(dp1
S'output'
p2
S"<type 'exceptions.ImportError'> No module named simplejson"
p3
sS'layer'
p4
S'/home/preethi/Downloads/web2py/applications/sniffer/controllers/default.py'
p5
sS'code'
p6
S'import socket\nfrom struct import *\nimport datetime\nimport pcapy,time\nimport sys\nimport thread\nimport threading\nimport subprocess,signal\nfrom simplejson import loads, dumps\nfrom pcapy import open_live, findalldevs, PcapError\nimport time\n#from pcapy import findalldevs,open_live\n#from impacket import ImpactDecoder, ImpactPacket\n#from impacket.ImpactDecoder import *\n\n\n\n\nc_tcp = 0\nc_udp = 0\nc_icmp = 0\npackets = []\ngraph_data = [[]]\n\n\n\ndef index():\n    #sniffer()\\\n    devices = pcapy.findalldevs()\n    form = SQLFORM.factory(Field(\'interface\', requires=IS_IN_SET(tuple(devices)),widget=SQLFORM.widgets.radio.widget))\n    if form.process().accepted:\n        redirect(URL(\'start\',vars = {\'interface\':form.vars.interface}))\n    return locals()\n\n\n\ndef sniffer(interf):\n\t\n    \tglobal packets\n    \t#pc = pcap.pcap()\n\tpromiscuous = True\n\tcap = pcapy.open_live(interf , 65536 , promiscuous ,100)\n\n\t#packet_limit = -1 # infinite\n    \t#cap.loop(packet_limit, parse_packet)\n\t#count=9\n    \trow = db(db.stopFlag.id == 1).select()\n\t   \t\n\tflag = row[0].flagval\n\tt1 = (str(time.time()).split(\'.\'))[0]\n    \ttcp = 0\n    \tudp = 0\n    \ticmp = 0\n\tcount=0\n\twhile flag< 500:\n            \tt2 = (str(time.time()).split(\'.\'))[0]\n            \ttry:\n\t\t\tprint "difference is :" + str(int(t2) -int(t1))\n\t\t\tif (int(t2) -int(t1) >= 1):\n\t\t\t\tcount = count + 1\n\t\t\t\ttemp = [(count) , tcp , udp , icmp]\n\t\t\t\tgraph_data.append(temp)\n                \t\tsession.b = graph_data\n\t\t\t\tprint "***************************************"\n                \t\tprint str(tcp) + \',\' + str(udp) + \',\' + str(icmp)\n\t\t\t\tt1 = (str(time.time()).split(\'.\'))[0]\n\t\t\t\tglobal c_tcp\n\t\t\t\tc_tcp = c_tcp + tcp\n\t\t\t\tglobal c_udp\t\t\t\t\n\t\t\t\tc_udp = c_udp + udp\n\t\t\t\tglobal c_icmp\t\t\t\t\n\t\t\t\tc_icmp = c_icmp + icmp\n\t\t\t\ttcp = 0\n\t\t\t\tudp = 0\n\t\t\t\ticmp = 0\n\n\t\t\telse:\n\t\t\t\tprint "chose to capture packet"\n\t\t\t\t(header,packet) = cap.next()\n\t\t\t\t\n\t\t\t\t#count = count+1\n                \t        typ = parse_packet(header,packet)\n              \t\t\tprint "current packet type :" + str(typ)\n\t\t\t\tif typ== \'tcp\':\n\t\t\t\t\ttcp=tcp+1\n\t\t\t\tif typ== \'udp\':\n\t\t\t\t\tudp=udp+1\n\t\t\t\tif typ== \'icmp\':\n\t\t\t\t\ticmp=icmp+1\t\t\t\t\n\t\t\t\tprint "this packets t1 and t2 :" + str(t2) + \',\' + str(t1)\n\t\t\t\n\t\t\t\n                \t\tflag = flag+1    \t\n                except socket.timeout:\n\t\t\tprint "pass"\n                        pass\n\t\t\n\tprint packets\n    \tsession.a = packets\n        \n\n\tprint str(tcp) + \',\' + str(udp) + \',\' + str(icmp)\n\n        return locals()\n\ndef eth_addr (a) :\n\tb = "%.2x:%.2x:%.2x:%.2x:%.2x:%.2x" % (ord(a[0]) , ord(a[1]) , ord(a[2]), ord(a[3]), ord(a[4]) , ord(a[5]))\n\treturn b\n\n#function to parse a packet\ndef parse_packet(hdr,packet) :\n\tglobal packets\n    \ttyp = \'none\'\n\teth_length = 14\n\teth_header = packet[:eth_length]\n\teth = unpack(\'!6s6sH\' , eth_header)\n\teth_protocol = socket.ntohs(eth[2])\n\t#print \'Destination MAC : \' + eth_addr(packet[0:6]) + \' Source MAC : \' + eth_addr(packet[6:12]) + \' Protocol : \' + str(eth_protocol)\n        dest_mac = str(eth_addr(packet[0:6]))\n        src_mac =  str(eth_addr(packet[6:12]))\n\t#Parse IP packets, IP Protocol number = 8\n    \tif eth_protocol == 8 :\n\t\t#Parse IP header\n\t\t#take first 20 characters for the ip header\n\t\tip_header = packet[eth_length:20+eth_length]\n\t\t#now unpack them :)\n\t\tiph = unpack(\'!BBHHHBBH4s4s\' , ip_header)\n\t\tversion_ihl = iph[0]\n\t\tversion = version_ihl >> 4\n\t\tihl = version_ihl & 0xF\n\n\t\tiph_length = ihl * 4\n\n\t\tttl = iph[5]\n\t\tprotocol = iph[6]\n\t\ts_addr = socket.inet_ntoa(iph[8]);\n\t\td_addr = socket.inet_ntoa(iph[9]);\n\n\t\t#print \'Version : \' + str(version) + \' IP Header Length : \' + str(ihl) + \' TTL : \' + str(ttl) + \' Protocol : \' + str(protocol) + \' Source Address : \' + str(s_addr) + \' Destination Address : \' + str(d_addr)\n        \tstring = dest_mac + \',\' + src_mac + \',\' + str(version) + \',\' + str(ihl) + \',\' + str(ttl) + \',\' + str(protocol) + \',\' + str(s_addr) + \',\' + str(d_addr)\n\t\t#TCP protocol\n\t\tif protocol == 6 :\n\t\t\tt = iph_length + eth_length\n\t\t\ttcp_header = packet[t:t+20]\n\n\t\t\t#now unpack them :)\n\t\t\ttcph = unpack(\'!HHLLBBHHH\' , tcp_header)\n\t\t\tsource_port = tcph[0]\n\t\t\tdest_port = tcph[1]\n\t\t\tsequence = tcph[2]\n\t\t\tacknowledgement = tcph[3]\n\t\t\tdoff_reserved = tcph[4]\n\t\t\ttcph_length = doff_reserved >> 4\n\t\t\t#print \'Source Port : \' + str(source_port) + \' Dest Port : \' + str(dest_port) + \' Sequence Number : \' + str(sequence) + \' Acknowledgement : \' + str(acknowledgement) + \' TCP header length : \' + str(tcph_length)\n\n\t\t\tstring = string + \',\' +  str(source_port) + \', \' + str(dest_port) + \' , \' + str(sequence) + \' , \' + str(acknowledgement) + \' , \' + str(tcph_length)\n            \t\ttyp = \'tcp\'\n\t\t\th_size = eth_length + iph_length + tcph_length * 4\n\t\t\tdata_size = len(packet) - h_size\n\t\t\t#get data from the packet\n\t\t\tdata = packet[h_size:]\n#\t\t\tprint \'Data : \' + data\n\n\t\t#ICMP Packets\n\t\telif protocol == 1 :\n\t\t\tu = iph_length + eth_length\n\t\t\ticmph_length = 4\n\t\t\ticmp_header = packet[u:u+4]\n\n\t\t\t#now unpack them :)\n\t\t\ticmph = unpack(\'!BBH\' , icmp_header)\n\t\t\ticmp_type = icmph[0]\n\t\t\tcode = icmph[1]\n\t\t\tchecksum = icmph[2]\n\t\t\t#print \'Type : \' + str(icmp_type) + \' Code : \' + str(code) + \' Checksum : \' + str(checksum)\n\t\t\t\n\t\t\tstring = string + \',\' + str(icmp_type) + \',\' + str(code) + \',\' + str(checksum)\n            \t\ttyp = \'icmp\'\n\t\t\th_size = eth_length + iph_length + icmph_length\n\t\t\tdata_size = len(packet) - h_size\n\t\t\t#get data from the packet\n\t\t\tdata = packet[h_size:]\n#\t\t\tprint \'Data : \' + data\n\n\t\t#UDP packets\n\t\telif protocol == 17 :\n\t\t\tu = iph_length + eth_length\n\t\t\tudph_length = 8\n\t\t\tudp_header = packet[u:u+8]\n\n\t\t\t#now unpack them :)\n\t\t\tudph = unpack(\'!HHHH\' , udp_header)\n\t\t\tsource_port = udph[0]\n\t\t\tdest_port = udph[1]\n\t\t\tlength = udph[2]\n\t\t\tchecksum = udph[3]\n\t\t\t#print \'Source Port : \' + str(source_port) + \' Dest Port : \' + str(dest_port) + \' Length : \' + str(length) + \' Checksum : \' + str(checksum)\n\n\t\t\tstring = string + \', \' + str(source_port) + \',\' + str(dest_port) + \',\' + str(length) + \',\' + str(checksum)\t\t\t\n            \t\ttyp = \'udp\'\n\t\t\th_size = eth_length + iph_length + udph_length\n\t\t\tdata_size = len(packet) - h_size\n\t\t\t#get data from the packet\n\t\t\tdata = packet[h_size:]\n#\t\t\tprint \'Data : \' + data\n\n\t\t#some other IP packet like IGMP\n\t\telse :\n\t\t\tprint \'Protocol other than TCP/UDP/ICMP\'\n\t\tpackets.append(string)\n\n    \telse:\n    \t\tprint "none"\n\n        return typ\n\ndef start() :\n    interface = request.vars.interface\n    print "**********************"+interface + "*************"\n    db(db.stopFlag.id == 1 ).update(flagval = 0)\n    #thread.start_new_thread(sniffer,(interface,))\n    t1 = threading.Thread(target=sniffer, args=(interface,))\n    t1.start()\n    t1.join()\n    redirect(URL(\'show_pack\',vars = {} ))\n\n    \n    print "workng"\n    return locals()\n\ndef stop():\n    print "******** stop ***********"\n    #db.stopFlag.update_record(flagval=1)\n    #db(db.stopFlag.id == 1 ).update(flagval = 1)\n    return locals()\ndef snif():\n    d = session.b\n    if ([]) in d :\n        d.remove([])\n    print "-----------" , d\n    return locals()\n\ndef show_pack():\n    print "showing_packets"\n    x = session.a\n    \n    return x\ndef getdata():\n    d = session.b\n    return json.dumps(d)\n\nresponse._vars=response._caller(snif)\n'
p7
sS'snapshot'
p8
(dp9
S'exception'
p10
(dp11
S'__hash__'
p12
S"<method-wrapper '__hash__' of exceptions.ImportError object>"
p13
sS'__setattr__'
p14
S"<method-wrapper '__setattr__' of exceptions.ImportError object>"
p15
sS'__reduce_ex__'
p16
S'<built-in method __reduce_ex__ of exceptions.ImportError object>'
p17
sS'__getslice__'
p18
S"<method-wrapper '__getslice__' of exceptions.ImportError object>"
p19
sS'__getitem__'
p20
S"<method-wrapper '__getitem__' of exceptions.ImportError object>"
p21
sS'__setstate__'
p22
S'<built-in method __setstate__ of exceptions.ImportError object>'
p23
sS'args'
p24
S"('No module named simplejson',)"
p25
sS'__reduce__'
p26
S'<built-in method __reduce__ of exceptions.ImportError object>'
p27
sS'__str__'
p28
S"<method-wrapper '__str__' of exceptions.ImportError object>"
p29
sS'__format__'
p30
S'<built-in method __format__ of exceptions.ImportError object>'
p31
sS'__getattribute__'
p32
S"<method-wrapper '__getattribute__' of exceptions.ImportError object>"
p33
sS'__class__'
p34
S"<type 'exceptions.ImportError'>"
p35
sS'__unicode__'
p36
S'<built-in method __unicode__ of exceptions.ImportError object>'
p37
sS'__delattr__'
p38
S"<method-wrapper '__delattr__' of exceptions.ImportError object>"
p39
sS'__subclasshook__'
p40
S'<built-in method __subclasshook__ of type object>'
p41
sS'__repr__'
p42
S"<method-wrapper '__repr__' of exceptions.ImportError object>"
p43
sS'__dict__'
p44
S'{}'
p45
sS'__sizeof__'
p46
S'<built-in method __sizeof__ of exceptions.ImportError object>'
p47
sS'__doc__'
p48
S'"Import can\'t find module, or can\'t find name in module."'
p49
sS'__init__'
p50
S"<method-wrapper '__init__' of exceptions.ImportError object>"
p51
sS'__new__'
p52
S'<built-in method __new__ of type object>'
p53
ssS'evalue'
p54
S'No module named simplejson'
p55
sS'request'
p56
cgluon.html
XML_unpickle
p57
(S's\x7fa\x00\x00<div><table><tr><td style="font-weight:bold;vertical-align:top;">ajax</td><td style="vertical-align:top;">:</td><td><div>False</div></td></tr><tr><td style="font-weight:bold;vertical-align:top;">application</td><td style="vertical-align:top;">:</td><td><div>sniffer</div></td></tr><tr><td style="font-weight:bold;vertical-align:top;">args</td><td style="vertical-align:top;">:</td><td><div><table></table></div></td></tr><tr><td style="font-weight:bold;vertical-align:top;">cid</td><td style="vertical-align:top;">:</td><td><div>None</div></td></tr><tr><td style="font-weight:bold;vertical-align:top;">client</td><td style="vertical-align:top;">:</td><td><div>127.0.0.1</div></td></tr><tr><td style="font-weight:bold;vertical-align:top;">controller</td><td style="vertical-align:top;">:</td><td><div>default</div></td></tr><tr><td style="font-weight:bold;vertical-align:top;">cookies</td><td style="vertical-align:top;">:</td><td><div><table><tr><td style="font-weight:bold;vertical-align:top;">session_id_admin</td><td style="vertical-align:top;">:</td><td><div>127.0.0.1-bd81298d-4f64-42f9-bf69-fd8926526288<table><tr><td style="font-weight:bold;vertical-align:top;">comment</td><td style="vertical-align:top;">:</td><td><div></div></td></tr><tr><td style="font-weight:bold;vertical-align:top;">domain</td><td style="vertical-align:top;">:</td><td><div></div></td></tr><tr><td style="font-weight:bold;vertical-align:top;">expires</td><td style="vertical-align:top;">:</td><td><div></div></td></tr><tr><td style="font-weight:bold;vertical-align:top;">httponly</td><td style="vertical-align:top;">:</td><td><div></div></td></tr><tr><td style="font-weight:bold;vertical-align:top;">max-age</td><td style="vertical-align:top;">:</td><td><div></div></td></tr><tr><td style="font-weight:bold;vertical-align:top;">path</td><td style="vertical-align:top;">:</td><td><div></div></td></tr><tr><td style="font-weight:bold;vertical-align:top;">secure</td><td style="vertical-align:top;">:</td><td><div></div></td></tr><tr><td style="font-weight:bold;vertical-align:top;">version</td><td style="vertical-align:top;">:</td><td><div></div></td></tr></table></div></td></tr><tr><td style="font-weight:bold;vertical-align:top;">session_id_sniffer</td><td style="vertical-align:top;">:</td><td><div>127.0.0.1-ff44cfb1-a268-4381-8576-ff9dfa264a2d<table><tr><td style="font-weight:bold;vertical-align:top;">comment</td><td style="vertical-align:top;">:</td><td><div></div></td></tr><tr><td style="font-weight:bold;vertical-align:top;">domain</td><td style="vertical-align:top;">:</td><td><div></div></td></tr><tr><td style="font-weight:bold;vertical-align:top;">expires</td><td style="vertical-align:top;">:</td><td><div></div></td></tr><tr><td style="font-weight:bold;vertical-align:top;">httponly</td><td style="vertical-align:top;">:</td><td><div></div></td></tr><tr><td style="font-weight:bold;vertical-align:top;">max-age</td><td style="vertical-align:top;">:</td><td><div></div></td></tr><tr><td style="font-weight:bold;vertical-align:top;">path</td><td style="vertical-align:top;">:</td><td><div></div></td></tr><tr><td style="font-weight:bold;vertical-align:top;">secure</td><td style="vertical-align:top;">:</td><td><div></div></td></tr><tr><td style="font-weight:bold;vertical-align:top;">version</td><td style="vertical-align:top;">:</td><td><div></div></td></tr></table></div></td></tr><tr><td style="font-weight:bold;vertical-align:top;">session_id_urban_traffic</td><td style="vertical-align:top;">:</td><td><div>127.0.0.1-78bf9321-4a01-4b96-aa43-c745fed47855<table><tr><td style="font-weight:bold;vertical-align:top;">comment</td><td style="vertical-align:top;">:</td><td><div></div></td></tr><tr><td style="font-weight:bold;vertical-align:top;">domain</td><td style="vertical-align:top;">:</td><td><div></div></td></tr><tr><td style="font-weight:bold;vertical-align:top;">expires</td><td style="vertical-align:top;">:</td><td><div></div></td></tr><tr><td style="font-weight:bold;vertical-align:top;">httponly</td><td style="vertical-align:top;">:</td><td><div></div></td></tr><tr><td style="font-weight:bold;vertical-align:top;">max-age</td><td style="vertical-align:top;">:</td><td><div></div></td></tr><tr><td style="font-weight:bold;vertical-align:top;">path</td><td style="vertical-align:top;">:</td><td><div></div></td></tr><tr><td style="font-weight:bold;vertical-align:top;">secure</td><td style="vertical-align:top;">:</td><td><div></div></td></tr><tr><td style="font-weight:bold;vertical-align:top;">version</td><td style="vertical-align:top;">:</td><td><div></div></td></tr></table></div></td></tr><tr><td style="font-weight:bold;vertical-align:top;">session_id_welcome</td><td style="vertical-align:top;">:</td><td><div>127.0.0.1-acdd94dd-0065-4308-a7fe-809221318d1a<table><tr><td style="font-weight:bold;vertical-align:top;">comment</td><td style="vertical-align:top;">:</td><td><div></div></td></tr><tr><td style="font-weight:bold;vertical-align:top;">domain</td><td style="vertical-align:top;">:</td><td><div></div></td></tr><tr><td style="font-weight:bold;vertical-align:top;">expires</td><td style="vertical-align:top;">:</td><td><div></div></td></tr><tr><td style="font-weight:bold;vertical-align:top;">httponly</td><td style="vertical-align:top;">:</td><td><div></div></td></tr><tr><td style="font-weight:bold;vertical-align:top;">max-age</td><td style="vertical-align:top;">:</td><td><div></div></td></tr><tr><td style="font-weight:bold;vertical-align:top;">path</td><td style="vertical-align:top;">:</td><td><div></div></td></tr><tr><td style="font-weight:bold;vertical-align:top;">secure</td><td style="vertical-align:top;">:</td><td><div></div></td></tr><tr><td style="font-weight:bold;vertical-align:top;">version</td><td style="vertical-align:top;">:</td><td><div></div></td></tr></table></div></td></tr></table></div></td></tr><tr><td style="font-weight:bold;vertical-align:top;">env</td><td style="vertical-align:top;">:</td><td><div><table><tr><td style="font-weight:bold;vertical-align:top;">HTTP_ACCEPT</td><td style="vertical-align:top;">:</td><td><div>text/html,application/xhtml+xml,application/xml;q=0.9,image/webp,*/*;q=0.8</div></td></tr><tr><td style="font-weight:bold;vertical-align:top;">HTTP_ACCEPT_ENCODING</td><td style="vertical-align:top;">:</td><td><div>gzip, deflate, sdch</div></td></tr><tr><td style="font-weight:bold;vertical-align:top;">HTTP_ACCEPT_LANGUAGE</td><td style="vertical-align:top;">:</td><td><div>en-US,en;q=0.8</div></td></tr><tr><td style="font-weight:bold;vertical-align:top;">HTTP_CACHE_CONTROL</td><td style="vertical-align:top;">:</td><td><div>max-age=0</div></td></tr><tr><td style="font-weight:bold;vertical-align:top;">HTTP_CONNECTION</td><td style="vertical-align:top;">:</td><td><div>keep-alive</div></td></tr><tr><td style="font-weight:bold;vertical-align:top;">HTTP_COOKIE</td><td style="vertical-align:top;">:</td><td><div>session_id_welcome=127.0.0.1-acdd94dd-0065-4308-a7fe-809221318d1a; session_id_urban_traffic=127.0.0.1-78bf9321-4a01-4b96-aa43-c745fed47855; session_id_sniffer=127.0.0.1-ff44cfb1-a268-4381-8576-ff9dfa264a2d; session_id_admin=127.0.0.1-bd81298d-4f64-42f9-bf69-fd8926526288</div></td></tr><tr><td style="font-weight:bold;vertical-align:top;">HTTP_HOST</td><td style="vertical-align:top;">:</td><td><div>127.0.0.1:8000</div></td></tr><tr><td style="font-weight:bold;vertical-align:top;">HTTP_UPGRADE_INSECURE_REQUESTS</td><td style="vertical-align:top;">:</td><td><div>1</div></td></tr><tr><td style="font-weight:bold;vertical-align:top;">HTTP_USER_AGENT</td><td style="vertical-align:top;">:</td><td><div>Mozilla/5.0 (X11; Linux x86_64) AppleWebKit/537.36 (KHTML, like Gecko) Chrome/53.0.2785.143 Safari/537.36</div></td></tr><tr><td style="font-weight:bold;vertical-align:top;">PATH_INFO</td><td style="vertical-align:top;">:</td><td><div>/sniffer/default/snif</div></td></tr><tr><td style="font-weight:bold;vertical-align:top;">QUERY_STRING</td><td style="vertical-align:top;">:</td><td><div></div></td></tr><tr><td style="font-weight:bold;vertical-align:top;">REMOTE_ADDR</td><td style="vertical-align:top;">:</td><td><div>127.0.0.1</div></td></tr><tr><td style="font-weight:bold;vertical-align:top;">REMOTE_PORT</td><td style="vertical-align:top;">:</td><td><div>37674</div></td></tr><tr><td style="font-weight:bold;vertical-align:top;">REQUEST_METHOD</td><td style="vertical-align:top;">:</td><td><div>GET</div></td></tr><tr><td style="font-weight:bold;vertical-align:top;">SCRIPT_NAME</td><td style="vertical-align:top;">:</td><td><div></div></td></tr><tr><td style="font-weight:bold;vertical-align:top;">SERVER_NAME</td><td style="vertical-align:top;">:</td><td><div>preethi-SVE1512J6EB</div></td></tr><tr><td style="font-weight:bold;vertical-align:top;">SERVER_PORT</td><td style="vertical-align:top;">:</td><td><div>8000</div></td></tr><tr><td style="font-weight:bold;vertical-align:top;">SERVER_PROTOCOL</td><td style="vertical-align:top;">:</td><td><div>HTTP/1.1</div></td></tr><tr><td style="font-weight:bold;vertical-align:top;">SERVER_SOFTWARE</td><td style="vertical-align:top;">:</td><td><div>Rocket 1.2.6</div></td></tr><tr><td style="font-weight:bold;vertical-align:top;">app_folders</td><td style="vertical-align:top;">:</td><td><div>set([&#x27;/home/preethi/Downloads/web2py/applications/welcome/&#x27;, &#x27;/home/preethi/Downloads/web2py/applications/admin/&#x27;, &#x27;/home/preethi/Downloads/web2py/applications/urban_traffic/&#x27;, &#x27;/home/preethi/Downloads/web2py/applications/sniffer/&#x27;])</div></td></tr><tr><td style="font-weight:bold;vertical-align:top;">applications_parent</td><td style="vertical-align:top;">:</td><td><div>/home/preethi/Downloads/web2py</div></td></tr><tr><td style="font-weight:bold;vertical-align:top;">cmd_args</td><td style="vertical-align:top;">:</td><td><div><table></table></div></td></tr><tr><td style="font-weight:bold;vertical-align:top;">cmd_options</td><td style="vertical-align:top;">:</td><td><div>&lt;Values at 0x7fce677cecb0: {&#x27;verbose&#x27;: False, &#x27;ip&#x27;: &#x27;127.0.0.1&#x27;, &#x27;debuglevel&#x27;: 30, &#x27;with_scheduler&#x27;: False, &#x27;shutdown_timeout&#x27;: 5, &#x27;taskbar&#x27;: False, &#x27;with_coverage&#x27;: False, &#x27;pid_filename&#x27;: &#x27;httpserver.pid&#x27;, &#x27;maxthreads&#x27;: None, &#x27;softcron&#x27;: False, &#x27;server_name&#x27;: &#x27;preethi-SVE1512J6EB&#x27;, &#x27;bpython&#x27;: False, &#x27;nogui&#x27;: False, &#x27;port&#x27;: 8000, &#x27;print_errors&#x27;: False, &#x27;extcron&#x27;: False, &#x27;runcron&#x27;: False, &#x27;run_system_tests&#x27;: False, &#x27;test&#x27;: None, &#x27;folder&#x27;: &#x27;/home/preethi/Downloads/web2py&#x27;, &#x27;config&#x27;: &#x27;&#x27;, &#x27;minthreads&#x27;: None, &#x27;shell&#x27;: None, &#x27;run&#x27;: &#x27;&#x27;, &#x27;log_filename&#x27;: &#x27;httpserver.log&#x27;, &#x27;profiler_dir&#x27;: None, &#x27;args&#x27;: [&#x27;&#x27;], &#x27;socket_timeout&#x27;: 5, &#x27;ssl_ca_certificate&#x27;: None, &#x27;scheduler&#x27;: None, &#x27;interfaces&#x27;: None, &#x27;ssl_private_key&#x27;: &#x27;&#x27;, &#x27;gae&#x27;: None, &#x27;password&#x27;: &#x27;******&#x27;, &#x27;request_queue_size&#x27;: 5, &#x27;ssl_certificate&#x27;: &#x27;&#x27;, &#x27;cronjob&#x27;: False, &#x27;numthreads&#x27;: None, &#x27;quiet&#x27;: False, &#x27;import_models&#x27;: False, &#x27;timeout&#x27;: 10, &#x27;plain&#x27;: False, &#x27;nobanner&#x27;: False}&gt;</div></td></tr><tr><td style="font-weight:bold;vertical-align:top;">db_sessions</td><td style="vertical-align:top;">:</td><td><div>set([])</div></td></tr><tr><td style="font-weight:bold;vertical-align:top;">debugging</td><td style="vertical-align:top;">:</td><td><div>True</div></td></tr><tr><td style="font-weight:bold;vertical-align:top;">gluon_parent</td><td style="vertical-align:top;">:</td><td><div>/home/preethi/Downloads/web2py</div></td></tr><tr><td style="font-weight:bold;vertical-align:top;">http_accept</td><td style="vertical-align:top;">:</td><td><div>text/html,application/xhtml+xml,application/xml;q=0.9,image/webp,*/*;q=0.8</div></td></tr><tr><td style="font-weight:bold;vertical-align:top;">http_accept_encoding</td><td style="vertical-align:top;">:</td><td><div>gzip, deflate, sdch</div></td></tr><tr><td style="font-weight:bold;vertical-align:top;">http_accept_language</td><td style="vertical-align:top;">:</td><td><div>en-US,en;q=0.8</div></td></tr><tr><td style="font-weight:bold;vertical-align:top;">http_cache_control</td><td style="vertical-align:top;">:</td><td><div>max-age=0</div></td></tr><tr><td style="font-weight:bold;vertical-align:top;">http_connection</td><td style="vertical-align:top;">:</td><td><div>keep-alive</div></td></tr><tr><td style="font-weight:bold;vertical-align:top;">http_cookie</td><td style="vertical-align:top;">:</td><td><div>session_id_welcome=127.0.0.1-acdd94dd-0065-4308-a7fe-809221318d1a; session_id_urban_traffic=127.0.0.1-78bf9321-4a01-4b96-aa43-c745fed47855; session_id_sniffer=127.0.0.1-ff44cfb1-a268-4381-8576-ff9dfa264a2d; session_id_admin=127.0.0.1-bd81298d-4f64-42f9-bf69-fd8926526288</div></td></tr><tr><td style="font-weight:bold;vertical-align:top;">http_host</td><td style="vertical-align:top;">:</td><td><div>127.0.0.1:8000</div></td></tr><tr><td style="font-weight:bold;vertical-align:top;">http_upgrade_insecure_requests</td><td style="vertical-align:top;">:</td><td><div>1</div></td></tr><tr><td style="font-weight:bold;vertical-align:top;">http_user_agent</td><td style="vertical-align:top;">:</td><td><div>Mozilla/5.0 (X11; Linux x86_64) AppleWebKit/537.36 (KHTML, like Gecko) Chrome/53.0.2785.143 Safari/537.36</div></td></tr><tr><td style="font-weight:bold;vertical-align:top;">is_jython</td><td style="vertical-align:top;">:</td><td><div>False</div></td></tr><tr><td style="font-weight:bold;vertical-align:top;">is_pypy</td><td style="vertical-align:top;">:</td><td><div>False</div></td></tr><tr><td style="font-weight:bold;vertical-align:top;">is_source</td><td style="vertical-align:top;">:</td><td><div>True</div></td></tr><tr><td style="font-weight:bold;vertical-align:top;">local_hosts</td><td style="vertical-align:top;">:</td><td><div><table><tr><td><div>::1</div></td></tr><tr><td><div>127.0.1.1</div></td></tr><tr><td><div>::ffff:127.0.0.1</div></td></tr><tr><td><div>127.0.0.1</div></td></tr><tr><td><div>preethi-SVE1512J6EB</div></td></tr></table></div></td></tr><tr><td style="font-weight:bold;vertical-align:top;">path_info</td><td style="vertical-align:top;">:</td><td><div>/sniffer/default/snif</div></td></tr><tr><td style="font-weight:bold;vertical-align:top;">query_string</td><td style="vertical-align:top;">:</td><td><div></div></td></tr><tr><td style="font-weight:bold;vertical-align:top;">remote_addr</td><td style="vertical-align:top;">:</td><td><div>127.0.0.1</div></td></tr><tr><td style="font-weight:bold;vertical-align:top;">remote_port</td><td style="vertical-align:top;">:</td><td><div>37674</div></td></tr><tr><td style="font-weight:bold;vertical-align:top;">request_method</td><td style="vertical-align:top;">:</td><td><div>GET</div></td></tr><tr><td style="font-weight:bold;vertical-align:top;">request_uri</td><td style="vertical-align:top;">:</td><td><div>/sniffer/default/snif</div></td></tr><tr><td style="font-weight:bold;vertical-align:top;">script_name</td><td style="vertical-align:top;">:</td><td><div></div></td></tr><tr><td style="font-weight:bold;vertical-align:top;">server_name</td><td style="vertical-align:top;">:</td><td><div>preethi-SVE1512J6EB</div></td></tr><tr><td style="font-weight:bold;vertical-align:top;">server_port</td><td style="vertical-align:top;">:</td><td><div>8000</div></td></tr><tr><td style="font-weight:bold;vertical-align:top;">server_protocol</td><td style="vertical-align:top;">:</td><td><div>HTTP/1.1</div></td></tr><tr><td style="font-weight:bold;vertical-align:top;">server_software</td><td style="vertical-align:top;">:</td><td><div>Rocket 1.2.6</div></td></tr><tr><td style="font-weight:bold;vertical-align:top;">web2py_path</td><td style="vertical-align:top;">:</td><td><div>/home/preethi/Downloads/web2py</div></td></tr><tr><td style="font-weight:bold;vertical-align:top;">web2py_version</td><td style="vertical-align:top;">:</td><td><div>2.14.6-stable+timestamp.2016.05.10.00.21.47</div></td></tr><tr><td style="font-weight:bold;vertical-align:top;">wsgi.errors</td><td style="vertical-align:top;">:</td><td><div>&lt;open file &#x27;&lt;stderr&gt;&#x27;, mode &#x27;w&#x27; at 0x7fce6ec4b1e0&gt;</div></td></tr><tr><td style="font-weight:bold;vertical-align:top;">wsgi.file_wrapper</td><td style="vertical-align:top;">:</td><td><div>&lt;class wsgiref.util.FileWrapper at 0x7fce6786e8d8&gt;</div></td></tr><tr><td style="font-weight:bold;vertical-align:top;">wsgi.input</td><td style="vertical-align:top;">:</td><td><div>&lt;socket._fileobject object at 0x7fce2dbe2250&gt;</div></td></tr><tr><td style="font-weight:bold;vertical-align:top;">wsgi.multiprocess</td><td style="vertical-align:top;">:</td><td><div>False</div></td></tr><tr><td style="font-weight:bold;vertical-align:top;">wsgi.multithread</td><td style="vertical-align:top;">:</td><td><div>True</div></td></tr><tr><td style="font-weight:bold;vertical-align:top;">wsgi.run_once</td><td style="vertical-align:top;">:</td><td><div>False</div></td></tr><tr><td style="font-weight:bold;vertical-align:top;">wsgi.url_scheme</td><td style="vertical-align:top;">:</td><td><div>http</div></td></tr><tr><td style="font-weight:bold;vertical-align:top;">wsgi.version</td><td style="vertical-align:top;">:</td><td><div><table><tr><td><div>1</div></td></tr><tr><td><div>0</div></td></tr></table></div></td></tr><tr><td style="font-weight:bold;vertical-align:top;">wsgi_errors</td><td style="vertical-align:top;">:</td><td><div>&lt;open file &#x27;&lt;stderr&gt;&#x27;, mode &#x27;w&#x27; at 0x7fce6ec4b1e0&gt;</div></td></tr><tr><td style="font-weight:bold;vertical-align:top;">wsgi_file_wrapper</td><td style="vertical-align:top;">:</td><td><div>&lt;class wsgiref.util.FileWrapper at 0x7fce6786e8d8&gt;</div></td></tr><tr><td style="font-weight:bold;vertical-align:top;">wsgi_input</td><td style="vertical-align:top;">:</td><td><div>&lt;socket._fileobject object at 0x7fce2dbe2250&gt;</div></td></tr><tr><td style="font-weight:bold;vertical-align:top;">wsgi_multiprocess</td><td style="vertical-align:top;">:</td><td><div>False</div></td></tr><tr><td style="font-weight:bold;vertical-align:top;">wsgi_multithread</td><td style="vertical-align:top;">:</td><td><div>True</div></td></tr><tr><td style="font-weight:bold;vertical-align:top;">wsgi_run_once</td><td style="vertical-align:top;">:</td><td><div>False</div></td></tr><tr><td style="font-weight:bold;vertical-align:top;">wsgi_url_scheme</td><td style="vertical-align:top;">:</td><td><div>http</div></td></tr><tr><td style="font-weight:bold;vertical-align:top;">wsgi_version</td><td style="vertical-align:top;">:</td><td><div><table><tr><td><div>1</div></td></tr><tr><td><div>0</div></td></tr></table></div></td></tr></table></div></td></tr><tr><td style="font-weight:bold;vertical-align:top;">extension</td><td style="vertical-align:top;">:</td><td><div>html</div></td></tr><tr><td style="font-weight:bold;vertical-align:top;">folder</td><td style="vertical-align:top;">:</td><td><div>/home/preethi/Downloads/web2py/applications/sniffer/</div></td></tr><tr><td style="font-weight:bold;vertical-align:top;">function</td><td style="vertical-align:top;">:</td><td><div>snif</div></td></tr><tr><td style="font-weight:bold;vertical-align:top;">global_settings</td><td style="vertical-align:top;">:</td><td><div><table><tr><td style="font-weight:bold;vertical-align:top;">app_folders</td><td style="vertical-align:top;">:</td><td><div>set([&#x27;/home/preethi/Downloads/web2py/applications/welcome/&#x27;, &#x27;/home/preethi/Downloads/web2py/applications/admin/&#x27;, &#x27;/home/preethi/Downloads/web2py/applications/urban_traffic/&#x27;, &#x27;/home/preethi/Downloads/web2py/applications/sniffer/&#x27;])</div></td></tr><tr><td style="font-weight:bold;vertical-align:top;">applications_parent</td><td style="vertical-align:top;">:</td><td><div>/home/preethi/Downloads/web2py</div></td></tr><tr><td style="font-weight:bold;vertical-align:top;">cmd_args</td><td style="vertical-align:top;">:</td><td><div><table></table></div></td></tr><tr><td style="font-weight:bold;vertical-align:top;">cmd_options</td><td style="vertical-align:top;">:</td><td><div>&lt;Values at 0x7fce677cecb0: {&#x27;verbose&#x27;: False, &#x27;ip&#x27;: &#x27;127.0.0.1&#x27;, &#x27;debuglevel&#x27;: 30, &#x27;with_scheduler&#x27;: False, &#x27;shutdown_timeout&#x27;: 5, &#x27;taskbar&#x27;: False, &#x27;with_coverage&#x27;: False, &#x27;pid_filename&#x27;: &#x27;httpserver.pid&#x27;, &#x27;maxthreads&#x27;: None, &#x27;softcron&#x27;: False, &#x27;server_name&#x27;: &#x27;preethi-SVE1512J6EB&#x27;, &#x27;bpython&#x27;: False, &#x27;nogui&#x27;: False, &#x27;port&#x27;: 8000, &#x27;print_errors&#x27;: False, &#x27;extcron&#x27;: False, &#x27;runcron&#x27;: False, &#x27;run_system_tests&#x27;: False, &#x27;test&#x27;: None, &#x27;folder&#x27;: &#x27;/home/preethi/Downloads/web2py&#x27;, &#x27;config&#x27;: &#x27;&#x27;, &#x27;minthreads&#x27;: None, &#x27;shell&#x27;: None, &#x27;run&#x27;: &#x27;&#x27;, &#x27;log_filename&#x27;: &#x27;httpserver.log&#x27;, &#x27;profiler_dir&#x27;: None, &#x27;args&#x27;: [&#x27;&#x27;], &#x27;socket_timeout&#x27;: 5, &#x27;ssl_ca_certificate&#x27;: None, &#x27;scheduler&#x27;: None, &#x27;interfaces&#x27;: None, &#x27;ssl_private_key&#x27;: &#x27;&#x27;, &#x27;gae&#x27;: None, &#x27;password&#x27;: &#x27;******&#x27;, &#x27;request_queue_size&#x27;: 5, &#x27;ssl_certificate&#x27;: &#x27;&#x27;, &#x27;cronjob&#x27;: False, &#x27;numthreads&#x27;: None, &#x27;quiet&#x27;: False, &#x27;import_models&#x27;: False, &#x27;timeout&#x27;: 10, &#x27;plain&#x27;: False, &#x27;nobanner&#x27;: False}&gt;</div></td></tr><tr><td style="font-weight:bold;vertical-align:top;">db_sessions</td><td style="vertical-align:top;">:</td><td><div>set([])</div></td></tr><tr><td style="font-weight:bold;vertical-align:top;">debugging</td><td style="vertical-align:top;">:</td><td><div>True</div></td></tr><tr><td style="font-weight:bold;vertical-align:top;">gluon_parent</td><td style="vertical-align:top;">:</td><td><div>/home/preethi/Downloads/web2py</div></td></tr><tr><td style="font-weight:bold;vertical-align:top;">is_jython</td><td style="vertical-align:top;">:</td><td><div>False</div></td></tr><tr><td style="font-weight:bold;vertical-align:top;">is_pypy</td><td style="vertical-align:top;">:</td><td><div>False</div></td></tr><tr><td style="font-weight:bold;vertical-align:top;">is_source</td><td style="vertical-align:top;">:</td><td><div>True</div></td></tr><tr><td style="font-weight:bold;vertical-align:top;">local_hosts</td><td style="vertical-align:top;">:</td><td><div><table><tr><td><div>::1</div></td></tr><tr><td><div>127.0.1.1</div></td></tr><tr><td><div>::ffff:127.0.0.1</div></td></tr><tr><td><div>127.0.0.1</div></td></tr><tr><td><div>preethi-SVE1512J6EB</div></td></tr></table></div></td></tr><tr><td style="font-weight:bold;vertical-align:top;">web2py_version</td><td style="vertical-align:top;">:</td><td><div>2.14.6-stable+timestamp.2016.05.10.00.21.47</div></td></tr></table></div></td></tr><tr><td style="font-weight:bold;vertical-align:top;">is_https</td><td style="vertical-align:top;">:</td><td><div>False</div></td></tr><tr><td style="font-weight:bold;vertical-align:top;">is_local</td><td style="vertical-align:top;">:</td><td><div>True</div></td></tr><tr><td style="font-weight:bold;vertical-align:top;">is_restful</td><td style="vertical-align:top;">:</td><td><div>False</div></td></tr><tr><td style="font-weight:bold;vertical-align:top;">is_scheduler</td><td style="vertical-align:top;">:</td><td><div>False</div></td></tr><tr><td style="font-weight:bold;vertical-align:top;">is_shell</td><td style="vertical-align:top;">:</td><td><div>False</div></td></tr><tr><td style="font-weight:bold;vertical-align:top;">now</td><td style="vertical-align:top;">:</td><td><div>datetime.datetime(2016, 11, 26, 3, 42, 5, 223150)</div></td></tr><tr><td style="font-weight:bold;vertical-align:top;">raw_args</td><td style="vertical-align:top;">:</td><td><div></div></td></tr><tr><td style="font-weight:bold;vertical-align:top;">raw_extension</td><td style="vertical-align:top;">:</td><td><div>None</div></td></tr><tr><td style="font-weight:bold;vertical-align:top;">url</td><td style="vertical-align:top;">:</td><td><div>/sniffer/default/snif</div></td></tr><tr><td style="font-weight:bold;vertical-align:top;">utcnow</td><td style="vertical-align:top;">:</td><td><div>datetime.datetime(2016, 11, 25, 22, 12, 5, 223185)</div></td></tr><tr><td style="font-weight:bold;vertical-align:top;">wsgi</td><td style="vertical-align:top;">:</td><td><div>&lt;gluon.main.LazyWSGI object at 0x7fce2cbb5d50&gt;</div></td></tr></table></div>'
tRp58
sS'frames'
p59
(lp60
(dp61
S'file'
p62
S'/home/preethi/Downloads/web2py/gluon/restricted.py'
p63
sS'dump'
p64
(dp65
S'environment'
p66
S"{'A': <class 'gluon.html.A'>, 'ANY_OF': <class 'gluon.validators.ANY_OF'>, 'ASSIGNJS': <function ASSIGNJS>, 'AppConfig': <function AppConfig>, 'Auth': <class 'gluon.tools.Auth'>, 'B': <class 'gluon.html.B'>, 'BEAUTIFY': <class 'gluon.html.BEAUTIFY'>, 'BODY': <class 'gluon.html.BODY'>, 'BR': <class 'gluon.html.BR'>, 'BUTTON': <class 'gluon.html.BUTTON'>, ...}"
p67
sS'ccode'
p68
S'<code object <module> at 0x7fce4c03b3b0, file "/...ications/sniffer/controllers/default.py", line 1>'
p69
ssS'lnum'
p70
I227
sS'lines'
p71
(dp72
I224
S'            ccode = code'
p73
sI225
S'        else:'
p74
sI226
S'            ccode = compile2(code, layer)'
p75
sI227
S'        exec ccode in environment'
p76
sI228
S'    except HTTP:'
p77
sI229
S'        raise'
p78
sI230
S'    except RestrictedError:'
p79
sI231
S'        # do not encapsulate (obfuscate) the original RestrictedError'
p80
sI222
S'    try:'
p81
sI223
S'        if isinstance(code, types.CodeType):'
p82
ssS'call'
p83
S"(code='import socket\\nfrom struct import *\\nimport dateti....dumps(d)\\n\\nresponse._vars=response._caller(snif)\\n', environment={'A': <class 'gluon.html.A'>, 'ANY_OF': <class 'gluon.validators.ANY_OF'>, 'ASSIGNJS': <function ASSIGNJS>, 'AppConfig': <function AppConfig>, 'Auth': <class 'gluon.tools.Auth'>, 'B': <class 'gluon.html.B'>, 'BEAUTIFY': <class 'gluon.html.BEAUTIFY'>, 'BODY': <class 'gluon.html.BODY'>, 'BR': <class 'gluon.html.BR'>, 'BUTTON': <class 'gluon.html.BUTTON'>, ...}, layer='/home/preethi/Downloads/web2py/applications/sniffer/controllers/default.py')"
p84
sS'func'
p85
S'restricted'
p86
sa(dp87
g62
S'/home/preethi/Downloads/web2py/applications/sniffer/controllers/default.py'
p88
sg64
(dp89
S'dumps'
p90
S'undefined'
p91
sS'loads'
p92
g91
sS'simplejson'
p93
g91
ssg70
I9
sg71
(dp94
I4
S'import pcapy,time'
p95
sI5
S'import sys'
p96
sI6
S'import thread'
p97
sI7
S'import threading'
p98
sI8
S'import subprocess,signal'
p99
sI9
S'from simplejson import loads, dumps'
p100
sI10
S'from pcapy import open_live, findalldevs, PcapError'
p101
sI11
S'import time'
p102
sI12
S'#from pcapy import findalldevs,open_live'
p103
sI13
S'#from impacket import ImpactDecoder, ImpactPacket'
p104
ssg83
S'()'
p105
sg85
S'<module>'
p106
sa(dp107
g62
S'/home/preethi/Downloads/web2py/gluon/custom_import.py'
p108
sg64
(dp109
S'fromlist'
p110
S"('loads', 'dumps')"
p111
sS'level'
p112
S'-1'
p113
sS'base_importer'
p114
S'<built-in function __import__>'
p115
sS'globals'
p116
S"{'A': <class 'gluon.html.A'>, 'ANY_OF': <class 'gluon.validators.ANY_OF'>, 'ASSIGNJS': <function ASSIGNJS>, 'AppConfig': <function AppConfig>, 'Auth': <class 'gluon.tools.Auth'>, 'B': <class 'gluon.html.B'>, 'BEAUTIFY': <class 'gluon.html.BEAUTIFY'>, 'BODY': <class 'gluon.html.BODY'>, 'BR': <class 'gluon.html.BR'>, 'BUTTON': <class 'gluon.html.BUTTON'>, ...}"
p117
sS'pname'
p118
S"'applications.sniffer.modules.simplejson'"
p119
sS'locals'
p120
S"{'A': <class 'gluon.html.A'>, 'ANY_OF': <class 'gluon.validators.ANY_OF'>, 'ASSIGNJS': <function ASSIGNJS>, 'AppConfig': <function AppConfig>, 'Auth': <class 'gluon.tools.Auth'>, 'B': <class 'gluon.html.B'>, 'BEAUTIFY': <class 'gluon.html.BEAUTIFY'>, 'BODY': <class 'gluon.html.BODY'>, 'BR': <class 'gluon.html.BR'>, 'BUTTON': <class 'gluon.html.BUTTON'>, ...}"
p121
ssg70
I95
sg71
(dp122
I96
S'        except ImportError, e1:'
p123
sI97
S'            import_tb = sys.exc_info()[2]'
p124
sI98
S'            try:'
p125
sI99
S'                return NATIVE_IMPORTER(name, globals, locals, fromlist, level)'
p126
sI90
S'                        modules_prefix += "." + itemname'
p127
sI91
S'                    return result'
p128
sI92
S'                else:'
p129
sI93
S'                    # import like "from x import a, b, ..."'
p130
sI94
S'                    pname = modules_prefix + "." + name'
p131
sI95
S'                    return base_importer(pname, globals, locals, fromlist, level)'
p132
ssg83
S"(name='simplejson', globals={'A': <class 'gluon.html.A'>, 'ANY_OF': <class 'gluon.validators.ANY_OF'>, 'ASSIGNJS': <function ASSIGNJS>, 'AppConfig': <function AppConfig>, 'Auth': <class 'gluon.tools.Auth'>, 'B': <class 'gluon.html.B'>, 'BEAUTIFY': <class 'gluon.html.BEAUTIFY'>, 'BODY': <class 'gluon.html.BODY'>, 'BR': <class 'gluon.html.BR'>, 'BUTTON': <class 'gluon.html.BUTTON'>, ...}, locals={'A': <class 'gluon.html.A'>, 'ANY_OF': <class 'gluon.validators.ANY_OF'>, 'ASSIGNJS': <function ASSIGNJS>, 'AppConfig': <function AppConfig>, 'Auth': <class 'gluon.tools.Auth'>, 'B': <class 'gluon.html.B'>, 'BEAUTIFY': <class 'gluon.html.BEAUTIFY'>, 'BODY': <class 'gluon.html.BODY'>, 'BR': <class 'gluon.html.BR'>, 'BUTTON': <class 'gluon.html.BUTTON'>, ...}, fromlist=('loads', 'dumps'), level=-1)"
p133
sg85
S'custom_importer'
p134
sasS'pyver'
p135
S'Python 2.7.6: /usr/bin/python (prefix: /usr)'
p136
sS'session'
p137
g57
(S's\x07\x05\x01\x00<div><table><tr><td style="font-weight:bold;vertical-align:top;">a</td><td style="vertical-align:top;">:</td><td><div><table><tr><td><div>01:00:5e:00:00:fc,02:20:ac:3b:a3:a3,4,5,1,17,192.168.1.151,224.0.0.252, 55507,5355,50,53177</div></td></tr><tr><td><div>01:00:5e:00:00:fc,02:20:ac:3b:a3:a3,4,5,1,17,192.168.1.151,224.0.0.252, 55507,5355,50,53177</div></td></tr><tr><td><div>01:00:5e:00:00:fc,02:20:ac:3b:a3:a3,4,5,1,17,192.168.1.151,224.0.0.252, 137,137,58,27126</div></td></tr><tr><td><div>01:00:5e:00:00:fc,02:20:ac:3b:a3:a3,4,5,1,17,192.168.1.151,224.0.0.252, 61819,5355,50,46886</div></td></tr><tr><td><div>01:00:5e:00:00:fc,02:20:ac:3b:a3:a3,4,5,1,17,192.168.1.151,224.0.0.252, 61819,5355,50,46886</div></td></tr><tr><td><div>2c:30:33:e1:cc:11,08:3e:8e:d9:6a:1d,4,5,64,17,192.168.1.189,192.168.1.1, 2987,53,43,4981</div></td></tr><tr><td><div>08:3e:8e:d9:6a:1d,2c:30:33:e1:cc:11,4,5,64,17,192.168.1.1,192.168.1.189, 53,2987,162,2338</div></td></tr><tr><td><div>2c:30:33:e1:cc:11,08:3e:8e:d9:6a:1d,4,5,64,17,192.168.1.189,74.125.68.101, 38954,443,1358,65166</div></td></tr><tr><td><div>2c:30:33:e1:cc:11,08:3e:8e:d9:6a:1d,4,5,64,6,192.168.1.189,74.125.68.101,53162, 443 , 2093329632 , 0 , 10</div></td></tr><tr><td><div>08:3e:8e:d9:6a:1d,2c:30:33:e1:cc:11,4,5,47,17,74.125.68.101,192.168.1.189, 443,38954,1358,3068</div></td></tr><tr><td><div>2c:30:33:e1:cc:11,08:3e:8e:d9:6a:1d,4,5,64,17,192.168.1.189,74.125.68.101, 38954,443,1055,61384</div></td></tr><tr><td><div>2c:30:33:e1:cc:11,08:3e:8e:d9:6a:1d,4,5,64,17,192.168.1.189,74.125.68.101, 38954,443,297,44203</div></td></tr><tr><td><div>08:3e:8e:d9:6a:1d,2c:30:33:e1:cc:11,4,5,47,6,74.125.68.101,192.168.1.189,443, 53162 , 3347548147 , 2093329633 , 10</div></td></tr><tr><td><div>2c:30:33:e1:cc:11,08:3e:8e:d9:6a:1d,4,5,64,6,192.168.1.189,74.125.68.101,53162, 443 , 2093329633 , 3347548148 , 8</div></td></tr><tr><td><div>2c:30:33:e1:cc:11,08:3e:8e:d9:6a:1d,4,5,64,6,192.168.1.189,74.125.68.101,53162, 443 , 2093329633 , 3347548148 , 8</div></td></tr><tr><td><div>08:3e:8e:d9:6a:1d,2c:30:33:e1:cc:11,4,5,47,17,74.125.68.101,192.168.1.189, 443,38954,35,36625</div></td></tr><tr><td><div>2c:30:33:e1:cc:11,08:3e:8e:d9:6a:1d,4,5,64,17,192.168.1.189,74.125.68.101, 38954,443,46,47933</div></td></tr><tr><td><div>08:3e:8e:d9:6a:1d,2c:30:33:e1:cc:11,4,5,47,17,74.125.68.101,192.168.1.189, 443,38954,38,64079</div></td></tr><tr><td><div>08:3e:8e:d9:6a:1d,2c:30:33:e1:cc:11,4,5,47,6,74.125.68.101,192.168.1.189,443, 53162 , 3347548148 , 2093330150 , 8</div></td></tr><tr><td><div>08:3e:8e:d9:6a:1d,2c:30:33:e1:cc:11,4,5,47,6,74.125.68.101,192.168.1.189,443, 53162 , 3347548148 , 2093330150 , 8</div></td></tr><tr><td><div>2c:30:33:e1:cc:11,08:3e:8e:d9:6a:1d,4,5,64,6,192.168.1.189,74.125.68.101,53162, 443 , 2093330150 , 3347548300 , 8</div></td></tr><tr><td><div>2c:30:33:e1:cc:11,08:3e:8e:d9:6a:1d,4,5,64,6,192.168.1.189,74.125.68.101,53162, 443 , 2093330150 , 3347548300 , 8</div></td></tr><tr><td><div>08:3e:8e:d9:6a:1d,2c:30:33:e1:cc:11,4,5,47,17,74.125.68.101,192.168.1.189, 443,38954,1358,43161</div></td></tr><tr><td><div>2c:30:33:e1:cc:11,08:3e:8e:d9:6a:1d,4,5,64,6,192.168.1.189,74.125.68.101,53162, 443 , 2093330350 , 3347548300 , 8</div></td></tr><tr><td><div>2c:30:33:e1:cc:11,08:3e:8e:d9:6a:1d,4,5,64,6,192.168.1.189,74.125.68.101,53162, 443 , 2093330395 , 3347548300 , 8</div></td></tr><tr><td><div>08:3e:8e:d9:6a:1d,2c:30:33:e1:cc:11,4,5,47,6,74.125.68.101,192.168.1.189,443, 53162 , 3347548300 , 2093330350 , 8</div></td></tr><tr><td><div>2c:30:33:e1:cc:11,08:3e:8e:d9:6a:1d,4,5,64,6,192.168.1.189,74.125.68.101,53162, 443 , 2093330471 , 3347548348 , 8</div></td></tr><tr><td><div>2c:30:33:e1:cc:11,08:3e:8e:d9:6a:1d,4,5,64,17,192.168.1.189,74.125.68.101, 38954,443,46,16457</div></td></tr><tr><td><div>08:3e:8e:d9:6a:1d,2c:30:33:e1:cc:11,4,5,47,6,74.125.68.101,192.168.1.189,443, 53162 , 3347548348 , 2093330350 , 8</div></td></tr><tr><td><div>08:3e:8e:d9:6a:1d,2c:30:33:e1:cc:11,4,5,47,6,74.125.68.101,192.168.1.189,443, 53162 , 3347548382 , 2093330471 , 8</div></td></tr><tr><td><div>08:3e:8e:d9:6a:1d,2c:30:33:e1:cc:11,4,5,47,6,74.125.68.101,192.168.1.189,443, 53162 , 3347548382 , 2093330471 , 8</div></td></tr><tr><td><div>2c:30:33:e1:cc:11,08:3e:8e:d9:6a:1d,4,5,64,6,192.168.1.189,74.125.68.101,53162, 443 , 2093330501 , 3347548412 , 8</div></td></tr><tr><td><div>08:3e:8e:d9:6a:1d,2c:30:33:e1:cc:11,4,5,47,6,74.125.68.101,192.168.1.189,443, 53162 , 3347548412 , 2093330501 , 8</div></td></tr><tr><td><div>01:00:5e:00:00:fc,02:20:ac:3b:a3:a3,4,5,1,17,192.168.1.151,224.0.0.252, 137,137,58,27126</div></td></tr><tr><td><div>08:3e:8e:d9:6a:1d,2c:30:33:e1:cc:11,4,5,47,17,74.125.68.101,192.168.1.189, 443,38954,267,64874</div></td></tr><tr><td><div>08:3e:8e:d9:6a:1d,2c:30:33:e1:cc:11,4,5,47,17,74.125.68.101,192.168.1.189, 443,38954,34,55739</div></td></tr><tr><td><div>2c:30:33:e1:cc:11,08:3e:8e:d9:6a:1d,4,5,64,17,192.168.1.189,74.125.68.101, 38954,443,46,27382</div></td></tr><tr><td><div>08:3e:8e:d9:6a:1d,2c:30:33:e1:cc:11,4,5,47,17,74.125.68.101,192.168.1.189, 443,38954,50,26387</div></td></tr><tr><td><div>2c:30:33:e1:cc:11,08:3e:8e:d9:6a:1d,4,5,64,17,192.168.1.189,192.168.1.1, 34945,53,41,47451</div></td></tr><tr><td><div>08:3e:8e:d9:6a:1d,2c:30:33:e1:cc:11,4,5,64,17,192.168.1.1,192.168.1.189, 53,34945,57,25696</div></td></tr><tr><td><div>2c:30:33:e1:cc:11,08:3e:8e:d9:6a:1d,4,5,64,17,192.168.1.189,216.58.192.163, 37309,443,1358,32381</div></td></tr><tr><td><div>2c:30:33:e1:cc:11,08:3e:8e:d9:6a:1d,4,5,64,17,192.168.1.189,74.125.68.101, 38954,443,43,2192</div></td></tr><tr><td><div>2c:30:33:e1:cc:11,08:3e:8e:d9:6a:1d,4,5,64,17,192.168.1.189,216.58.192.163, 37309,443,484,48182</div></td></tr><tr><td><div>08:3e:8e:d9:6a:1d,2c:30:33:e1:cc:11,4,5,49,17,216.58.192.163,192.168.1.189, 443,37309,1358,40827</div></td></tr><tr><td><div>08:3e:8e:d9:6a:1d,2c:30:33:e1:cc:11,4,5,49,17,216.58.192.163,192.168.1.189, 443,37309,1358,6637</div></td></tr><tr><td><div>08:3e:8e:d9:6a:1d,2c:30:33:e1:cc:11,4,5,49,17,216.58.192.163,192.168.1.189, 443,37309,43,45710</div></td></tr><tr><td><div>2c:30:33:e1:cc:11,08:3e:8e:d9:6a:1d,4,5,64,17,192.168.1.189,216.58.192.163, 37309,443,1358,53354</div></td></tr><tr><td><div>2c:30:33:e1:cc:11,08:3e:8e:d9:6a:1d,4,5,64,17,192.168.1.189,216.58.192.163, 37309,443,480,29460</div></td></tr><tr><td><div>2c:30:33:e1:cc:11,08:3e:8e:d9:6a:1d,4,5,64,17,192.168.1.189,216.58.192.163, 37309,443,46,12642</div></td></tr><tr><td><div>08:3e:8e:d9:6a:1d,2c:30:33:e1:cc:11,4,5,49,17,216.58.192.163,192.168.1.189, 443,37309,1358,48320</div></td></tr><tr><td><div>08:3e:8e:d9:6a:1d,2c:30:33:e1:cc:11,4,5,49,17,216.58.192.163,192.168.1.189, 443,37309,1358,13528</div></td></tr><tr><td><div>2c:30:33:e1:cc:11,08:3e:8e:d9:6a:1d,4,5,64,17,192.168.1.189,216.58.192.163, 37309,443,46,6127</div></td></tr><tr><td><div>2c:30:33:e1:cc:11,08:3e:8e:d9:6a:1d,4,5,64,6,192.168.1.189,216.58.192.163,35909, 443 , 2781406958 , 0 , 10</div></td></tr><tr><td><div>08:3e:8e:d9:6a:1d,2c:30:33:e1:cc:11,4,5,49,17,216.58.192.163,192.168.1.189, 443,37309,1358,27097</div></td></tr><tr><td><div>08:3e:8e:d9:6a:1d,2c:30:33:e1:cc:11,4,5,49,17,216.58.192.163,192.168.1.189, 443,37309,38,13266</div></td></tr><tr><td><div>08:3e:8e:d9:6a:1d,2c:30:33:e1:cc:11,4,5,49,17,216.58.192.163,192.168.1.189, 443,37309,38,56318</div></td></tr><tr><td><div>08:3e:8e:d9:6a:1d,2c:30:33:e1:cc:11,4,5,49,17,216.58.192.163,192.168.1.189, 443,37309,212,55630</div></td></tr><tr><td><div>2c:30:33:e1:cc:11,08:3e:8e:d9:6a:1d,4,5,64,17,192.168.1.189,216.58.192.163, 37309,443,52,50268</div></td></tr><tr><td><div>08:3e:8e:d9:6a:1d,2c:30:33:e1:cc:11,4,5,49,6,216.58.192.163,192.168.1.189,443, 35909 , 2738773513 , 2781406959 , 10</div></td></tr><tr><td><div>2c:30:33:e1:cc:11,08:3e:8e:d9:6a:1d,4,5,64,6,192.168.1.189,216.58.192.163,35909, 443 , 2781406959 , 2738773514 , 8</div></td></tr><tr><td><div>2c:30:33:e1:cc:11,08:3e:8e:d9:6a:1d,4,5,64,6,192.168.1.189,216.58.192.163,35909, 443 , 2781406959 , 2738773514 , 8</div></td></tr><tr><td><div>08:3e:8e:d9:6a:1d,2c:30:33:e1:cc:11,4,5,49,6,216.58.192.163,192.168.1.189,443, 35909 , 2738773514 , 2781407476 , 8</div></td></tr><tr><td><div>08:3e:8e:d9:6a:1d,2c:30:33:e1:cc:11,4,5,49,6,216.58.192.163,192.168.1.189,443, 35909 , 2738773514 , 2781407476 , 8</div></td></tr><tr><td><div>2c:30:33:e1:cc:11,08:3e:8e:d9:6a:1d,4,5,64,6,192.168.1.189,216.58.192.163,35909, 443 , 2781407476 , 2738773666 , 8</div></td></tr><tr><td><div>2c:30:33:e1:cc:11,08:3e:8e:d9:6a:1d,4,5,64,6,192.168.1.189,216.58.192.163,35909, 443 , 2781407476 , 2738773666 , 8</div></td></tr><tr><td><div>2c:30:33:e1:cc:11,08:3e:8e:d9:6a:1d,4,5,64,6,192.168.1.189,216.58.192.163,35909, 443 , 2781407676 , 2738773666 , 8</div></td></tr><tr><td><div>2c:30:33:e1:cc:11,08:3e:8e:d9:6a:1d,4,5,64,6,192.168.1.189,216.58.192.163,35909, 443 , 2781407721 , 2738773666 , 8</div></td></tr><tr><td><div>08:3e:8e:d9:6a:1d,2c:30:33:e1:cc:11,4,5,49,6,216.58.192.163,192.168.1.189,443, 35909 , 2738773666 , 2781407676 , 8</div></td></tr><tr><td><div>2c:30:33:e1:cc:11,08:3e:8e:d9:6a:1d,4,5,64,6,192.168.1.189,216.58.192.163,35909, 443 , 2781407797 , 2738773714 , 8</div></td></tr><tr><td><div>08:3e:8e:d9:6a:1d,2c:30:33:e1:cc:11,4,5,49,6,216.58.192.163,192.168.1.189,443, 35909 , 2738773714 , 2781407676 , 8</div></td></tr><tr><td><div>08:3e:8e:d9:6a:1d,2c:30:33:e1:cc:11,4,5,49,6,216.58.192.163,192.168.1.189,443, 35909 , 2738773748 , 2781407797 , 8</div></td></tr><tr><td><div>08:3e:8e:d9:6a:1d,2c:30:33:e1:cc:11,4,5,49,6,216.58.192.163,192.168.1.189,443, 35909 , 2738773748 , 2781407797 , 8</div></td></tr><tr><td><div>2c:30:33:e1:cc:11,08:3e:8e:d9:6a:1d,4,5,64,6,192.168.1.189,216.58.192.163,35909, 443 , 2781407827 , 2738773778 , 8</div></td></tr><tr><td><div>08:3e:8e:d9:6a:1d,2c:30:33:e1:cc:11,4,5,49,6,216.58.192.163,192.168.1.189,443, 35909 , 2738773778 , 2781407827 , 8</div></td></tr><tr><td><div>01:00:5e:00:00:fc,02:20:ac:3b:a3:a3,4,5,1,17,192.168.1.151,224.0.0.252, 137,137,58,27126</div></td></tr><tr><td><div>ff:ff:ff:ff:ff:ff,9c:d2:1e:0c:98:87,4,5,64,17,192.168.1.216,192.168.1.255, 8612,8612,24,42162</div></td></tr><tr><td><div>ff:ff:ff:ff:ff:ff,9c:d2:1e:0c:98:87,4,5,64,17,192.168.1.216,192.168.1.255, 8612,8610,24,39352</div></td></tr><tr><td><div>01:00:5e:00:00:fc,02:20:ac:3b:a3:a3,4,5,1,17,192.168.1.151,224.0.0.252, 54847,5355,98,6132</div></td></tr><tr><td><div>ff:ff:ff:ff:ff:ff,9c:d2:1e:0c:98:87,4,5,64,17,192.168.1.216,192.168.1.255, 8612,8612,24,42162</div></td></tr><tr><td><div>ff:ff:ff:ff:ff:ff,9c:d2:1e:0c:98:87,4,5,64,17,192.168.1.216,192.168.1.255, 8612,8610,24,39352</div></td></tr><tr><td><div>01:00:5e:00:00:fc,02:20:ac:3b:a3:a3,4,5,1,17,192.168.1.151,224.0.0.252, 54847,5355,98,6132</div></td></tr><tr><td><div>01:00:5e:00:00:fb,9c:d2:1e:0c:98:87,4,5,255,17,192.168.1.216,224.0.0.251, 5353,5353,45,52873</div></td></tr><tr><td><div>01:00:5e:00:00:fb,9c:d2:1e:0c:98:87,4,5,255,17,192.168.1.216,224.0.0.251, 5353,5353,45,52873</div></td></tr><tr><td><div>ff:ff:ff:ff:ff:ff,9c:d2:1e:0c:98:87,4,5,64,17,192.168.1.216,255.255.255.255, 42701,3289,23,41386</div></td></tr><tr><td><div>2c:30:33:e1:cc:11,08:3e:8e:d9:6a:1d,4,5,64,17,192.168.1.189,74.125.68.101, 38954,443,121,49511</div></td></tr><tr><td><div>2c:30:33:e1:cc:11,08:3e:8e:d9:6a:1d,4,5,64,17,192.168.1.189,74.125.68.101, 38954,443,220,27744</div></td></tr><tr><td><div>08:3e:8e:d9:6a:1d,2c:30:33:e1:cc:11,4,5,47,17,74.125.68.101,192.168.1.189, 443,38954,44,27430</div></td></tr><tr><td><div>08:3e:8e:d9:6a:1d,2c:30:33:e1:cc:11,4,5,47,17,74.125.68.101,192.168.1.189, 443,38954,93,38373</div></td></tr><tr><td><div>08:3e:8e:d9:6a:1d,2c:30:33:e1:cc:11,4,5,47,17,74.125.68.101,192.168.1.189, 443,38954,34,25958</div></td></tr><tr><td><div>2c:30:33:e1:cc:11,08:3e:8e:d9:6a:1d,4,5,64,17,192.168.1.189,74.125.68.101, 38954,443,49,57188</div></td></tr><tr><td><div>08:3e:8e:d9:6a:1d,2c:30:33:e1:cc:11,4,5,47,17,74.125.68.101,192.168.1.189, 443,38954,88,15294</div></td></tr><tr><td><div>2c:30:33:e1:cc:11,08:3e:8e:d9:6a:1d,4,5,64,17,192.168.1.189,74.125.68.101, 38954,443,43,52197</div></td></tr><tr><td><div>2c:30:33:e1:cc:11,08:3e:8e:d9:6a:1d,4,5,64,17,192.168.1.189,192.168.1.1, 14809,53,42,13916</div></td></tr><tr><td><div>2c:30:33:e1:cc:11,08:3e:8e:d9:6a:1d,4,5,64,17,192.168.1.189,192.168.1.1, 24549,53,41,20655</div></td></tr><tr><td><div>2c:30:33:e1:cc:11,08:3e:8e:d9:6a:1d,4,5,64,17,192.168.1.189,192.168.1.1, 5312,53,41,64365</div></td></tr><tr><td><div>2c:30:33:e1:cc:11,08:3e:8e:d9:6a:1d,4,5,64,17,192.168.1.189,192.168.1.1, 6665,53,51,1694</div></td></tr><tr><td><div>08:3e:8e:d9:6a:1d,2c:30:33:e1:cc:11,4,5,64,17,192.168.1.1,192.168.1.189, 53,14809,170,23708</div></td></tr><tr><td><div>08:3e:8e:d9:6a:1d,2c:30:33:e1:cc:11,4,5,64,17,192.168.1.1,192.168.1.189, 53,24549,214,28082</div></td></tr><tr><td><div>08:3e:8e:d9:6a:1d,2c:30:33:e1:cc:11,4,5,64,17,192.168.1.1,192.168.1.189, 53,6665,239,12691</div></td></tr><tr><td><div>2c:30:33:e1:cc:11,08:3e:8e:d9:6a:1d,4,5,64,17,192.168.1.189,216.58.220.3, 55954,443,1358,8970</div></td></tr><tr><td><div>2c:30:33:e1:cc:11,08:3e:8e:d9:6a:1d,4,5,64,17,192.168.1.189,192.168.1.1, 43418,53,40,37531</div></td></tr><tr><td><div>2c:30:33:e1:cc:11,08:3e:8e:d9:6a:1d,4,5,64,17,192.168.1.189,192.168.1.1, 43477,53,41,50695</div></td></tr><tr><td><div>08:3e:8e:d9:6a:1d,2c:30:33:e1:cc:11,4,5,64,17,192.168.1.1,192.168.1.189, 53,43418,213,54917</div></td></tr><tr><td><div>2c:30:33:e1:cc:11,08:3e:8e:d9:6a:1d,4,5,64,17,192.168.1.189,192.168.1.1, 41057,53,40,31750</div></td></tr><tr><td><div>08:3e:8e:d9:6a:1d,2c:30:33:e1:cc:11,4,5,64,17,192.168.1.1,192.168.1.189, 53,43477,200,20313</div></td></tr><tr><td><div>08:3e:8e:d9:6a:1d,2c:30:33:e1:cc:11,4,5,64,17,192.168.1.1,192.168.1.189, 53,41057,192,53839</div></td></tr><tr><td><div>2c:30:33:e1:cc:11,08:3e:8e:d9:6a:1d,4,5,64,17,192.168.1.189,216.58.220.3, 55954,443,1358,13793</div></td></tr><tr><td><div>ff:ff:ff:ff:ff:ff,9c:d2:1e:0c:98:87,4,5,64,17,192.168.1.216,255.255.255.255, 36736,1124,45,996</div></td></tr><tr><td><div>08:3e:8e:d9:6a:1d,2c:30:33:e1:cc:11,4,5,54,17,216.58.220.3,192.168.1.189, 443,55954,1358,10415</div></td></tr><tr><td><div>08:3e:8e:d9:6a:1d,2c:30:33:e1:cc:11,4,5,54,17,216.58.220.3,192.168.1.189, 443,55954,1358,49909</div></td></tr><tr><td><div>08:3e:8e:d9:6a:1d,2c:30:33:e1:cc:11,4,5,54,17,216.58.220.3,192.168.1.189, 443,55954,46,24649</div></td></tr><tr><td><div>2c:30:33:e1:cc:11,08:3e:8e:d9:6a:1d,4,5,64,17,192.168.1.189,216.58.220.3, 55954,443,1358,32533</div></td></tr><tr><td><div>2c:30:33:e1:cc:11,08:3e:8e:d9:6a:1d,4,5,64,17,192.168.1.189,216.58.220.3, 55954,443,46,2393</div></td></tr><tr><td><div>08:3e:8e:d9:6a:1d,2c:30:33:e1:cc:11,4,5,54,17,216.58.220.3,192.168.1.189, 443,55954,1358,1309</div></td></tr><tr><td><div>08:3e:8e:d9:6a:1d,2c:30:33:e1:cc:11,4,5,54,17,216.58.220.3,192.168.1.189, 443,55954,38,10058</div></td></tr><tr><td><div>2c:30:33:e1:cc:11,08:3e:8e:d9:6a:1d,4,5,64,17,192.168.1.189,216.58.220.3, 55954,443,46,3668</div></td></tr><tr><td><div>08:3e:8e:d9:6a:1d,2c:30:33:e1:cc:11,4,5,64,17,192.168.1.1,192.168.1.189, 53,5312,222,61167</div></td></tr><tr><td><div>01:00:5e:00:00:fb,9c:d2:1e:0c:98:87,4,5,255,17,192.168.1.216,224.0.0.251, 5353,5353,47,36627</div></td></tr><tr><td><div>2c:30:33:e1:cc:11,08:3e:8e:d9:6a:1d,4,5,64,17,192.168.1.189,192.168.1.1, 2935,53,49,31991</div></td></tr><tr><td><div>08:3e:8e:d9:6a:1d,2c:30:33:e1:cc:11,4,5,64,17,192.168.1.1,192.168.1.189, 53,2935,220,11147</div></td></tr><tr><td><div>2c:30:33:e1:cc:11,08:3e:8e:d9:6a:1d,4,5,64,17,192.168.1.189,172.217.26.206, 45300,443,1358,47086</div></td></tr><tr><td><div>2c:30:33:e1:cc:11,08:3e:8e:d9:6a:1d,4,5,64,17,192.168.1.189,192.168.1.1, 31430,53,49,42591</div></td></tr><tr><td><div>08:3e:8e:d9:6a:1d,2c:30:33:e1:cc:11,4,5,64,17,192.168.1.1,192.168.1.189, 53,31430,220,21747</div></td></tr><tr><td><div>2c:30:33:e1:cc:11,08:3e:8e:d9:6a:1d,4,5,64,6,192.168.1.189,172.217.26.206,39618, 443 , 2621045468 , 0 , 10</div></td></tr><tr><td><div>08:3e:8e:d9:6a:1d,2c:30:33:e1:cc:11,4,5,56,17,172.217.26.206,192.168.1.189, 443,45300,1358,6963</div></td></tr><tr><td><div>2c:30:33:e1:cc:11,08:3e:8e:d9:6a:1d,4,5,64,17,192.168.1.189,172.217.26.206, 45300,443,384,55825</div></td></tr><tr><td><div>2c:30:33:e1:cc:11,08:3e:8e:d9:6a:1d,4,5,64,17,192.168.1.189,172.217.26.206, 45300,443,40,57842</div></td></tr><tr><td><div>08:3e:8e:d9:6a:1d,2c:30:33:e1:cc:11,4,5,56,6,172.217.26.206,192.168.1.189,443, 39618 , 1068723826 , 2621045469 , 10</div></td></tr><tr><td><div>2c:30:33:e1:cc:11,08:3e:8e:d9:6a:1d,4,5,64,6,192.168.1.189,172.217.26.206,39618, 443 , 2621045469 , 1068723827 , 8</div></td></tr><tr><td><div>2c:30:33:e1:cc:11,08:3e:8e:d9:6a:1d,4,5,64,6,192.168.1.189,172.217.26.206,39618, 443 , 2621045469 , 1068723827 , 8</div></td></tr><tr><td><div>08:3e:8e:d9:6a:1d,2c:30:33:e1:cc:11,4,5,56,17,172.217.26.206,192.168.1.189, 443,45300,38,25564</div></td></tr><tr><td><div>08:3e:8e:d9:6a:1d,2c:30:33:e1:cc:11,4,5,56,6,172.217.26.206,192.168.1.189,443, 39618 , 1068723827 , 2621045986 , 8</div></td></tr><tr><td><div>08:3e:8e:d9:6a:1d,2c:30:33:e1:cc:11,4,5,56,6,172.217.26.206,192.168.1.189,443, 39618 , 1068723827 , 2621045986 , 8</div></td></tr><tr><td><div>2c:30:33:e1:cc:11,08:3e:8e:d9:6a:1d,4,5,64,6,192.168.1.189,172.217.26.206,39618, 443 , 2621045986 , 1068723979 , 8</div></td></tr><tr><td><div>2c:30:33:e1:cc:11,08:3e:8e:d9:6a:1d,4,5,64,6,192.168.1.189,172.217.26.206,39618, 443 , 2621045986 , 1068723979 , 8</div></td></tr><tr><td><div>2c:30:33:e1:cc:11,08:3e:8e:d9:6a:1d,4,5,64,6,192.168.1.189,172.217.26.206,39618, 443 , 2621046186 , 1068723979 , 8</div></td></tr><tr><td><div>2c:30:33:e1:cc:11,08:3e:8e:d9:6a:1d,4,5,64,6,192.168.1.189,172.217.26.206,39618, 443 , 2621046231 , 1068723979 , 8</div></td></tr><tr><td><div>08:3e:8e:d9:6a:1d,2c:30:33:e1:cc:11,4,5,56,17,172.217.26.206,192.168.1.189, 443,45300,1358,3033</div></td></tr><tr><td><div>2c:30:33:e1:cc:11,08:3e:8e:d9:6a:1d,4,5,64,17,192.168.1.189,172.217.26.206, 45300,443,49,19736</div></td></tr><tr><td><div>08:3e:8e:d9:6a:1d,2c:30:33:e1:cc:11,4,5,56,6,172.217.26.206,192.168.1.189,443, 39618 , 1068723979 , 2621046231 , 8</div></td></tr><tr><td><div>08:3e:8e:d9:6a:1d,2c:30:33:e1:cc:11,4,5,56,6,172.217.26.206,192.168.1.189,443, 39618 , 1068724027 , 2621046231 , 8</div></td></tr><tr><td><div>2c:30:33:e1:cc:11,08:3e:8e:d9:6a:1d,4,5,64,6,192.168.1.189,172.217.26.206,39618, 443 , 2621046307 , 1068724061 , 8</div></td></tr><tr><td><div>2c:30:33:e1:cc:11,08:3e:8e:d9:6a:1d,4,5,64,6,192.168.1.189,172.217.26.206,39618, 443 , 2621046307 , 1068724061 , 8</div></td></tr><tr><td><div>08:3e:8e:d9:6a:1d,2c:30:33:e1:cc:11,4,5,56,6,172.217.26.206,192.168.1.189,443, 39618 , 1068724061 , 2621046307 , 8</div></td></tr><tr><td><div>08:3e:8e:d9:6a:1d,2c:30:33:e1:cc:11,4,5,56,17,172.217.26.206,192.168.1.189, 443,45300,38,29825</div></td></tr><tr><td><div>08:3e:8e:d9:6a:1d,2c:30:33:e1:cc:11,4,5,56,17,172.217.26.206,192.168.1.189, 443,45300,332,56433</div></td></tr><tr><td><div>2c:30:33:e1:cc:11,08:3e:8e:d9:6a:1d,4,5,64,6,192.168.1.189,172.217.26.206,39618, 443 , 2621046337 , 1068724091 , 8</div></td></tr><tr><td><div>08:3e:8e:d9:6a:1d,2c:30:33:e1:cc:11,4,5,56,6,172.217.26.206,192.168.1.189,443, 39618 , 1068724091 , 2621046337 , 8</div></td></tr><tr><td><div>2c:30:33:e1:cc:11,08:3e:8e:d9:6a:1d,4,5,64,17,192.168.1.189,172.217.26.206, 45300,443,46,46498</div></td></tr><tr><td><div>2c:30:33:e1:cc:11,08:3e:8e:d9:6a:1d,4,5,64,17,192.168.1.189,216.58.220.3, 55954,443,929,46080</div></td></tr><tr><td><div>08:3e:8e:d9:6a:1d,2c:30:33:e1:cc:11,4,5,54,17,216.58.220.3,192.168.1.189, 443,55954,38,41087</div></td></tr><tr><td><div>08:3e:8e:d9:6a:1d,2c:30:33:e1:cc:11,4,5,54,17,216.58.220.3,192.168.1.189, 443,55954,177,38587</div></td></tr><tr><td><div>2c:30:33:e1:cc:11,08:3e:8e:d9:6a:1d,4,5,64,17,192.168.1.189,216.58.220.3, 55954,443,46,24618</div></td></tr><tr><td><div>2c:30:33:e1:cc:11,08:3e:8e:d9:6a:1d,4,5,64,17,192.168.1.189,216.58.192.163, 37309,443,31,29090</div></td></tr><tr><td><div>08:3e:8e:d9:6a:1d,2c:30:33:e1:cc:11,4,5,49,17,216.58.192.163,192.168.1.189, 443,37309,44,52596</div></td></tr><tr><td><div>2c:30:33:e1:cc:11,08:3e:8e:d9:6a:1d,4,5,64,17,192.168.1.189,216.58.220.3, 55954,443,132,19207</div></td></tr><tr><td><div>08:3e:8e:d9:6a:1d,2c:30:33:e1:cc:11,4,5,54,17,216.58.220.3,192.168.1.189, 443,55954,38,38833</div></td></tr><tr><td><div>08:3e:8e:d9:6a:1d,2c:30:33:e1:cc:11,4,5,54,17,216.58.220.3,192.168.1.189, 443,55954,1358,20163</div></td></tr><tr><td><div>08:3e:8e:d9:6a:1d,2c:30:33:e1:cc:11,4,5,54,17,216.58.220.3,192.168.1.189, 443,55954,1358,58790</div></td></tr><tr><td><div>08:3e:8e:d9:6a:1d,2c:30:33:e1:cc:11,4,5,54,17,216.58.220.3,192.168.1.189, 443,55954,1358,34573</div></td></tr><tr><td><div>2c:30:33:e1:cc:11,08:3e:8e:d9:6a:1d,4,5,64,17,192.168.1.189,216.58.220.3, 55954,443,49,18833</div></td></tr><tr><td><div>08:3e:8e:d9:6a:1d,2c:30:33:e1:cc:11,4,5,54,17,216.58.220.3,192.168.1.189, 443,55954,1358,39266</div></td></tr><tr><td><div>2c:30:33:e1:cc:11,08:3e:8e:d9:6a:1d,4,5,64,17,192.168.1.189,216.58.220.3, 55954,443,46,39764</div></td></tr><tr><td><div>08:3e:8e:d9:6a:1d,2c:30:33:e1:cc:11,4,5,54,17,216.58.220.3,192.168.1.189, 443,55954,1358,7984</div></td></tr><tr><td><div>08:3e:8e:d9:6a:1d,2c:30:33:e1:cc:11,4,5,54,17,216.58.220.3,192.168.1.189, 443,55954,1358,53554</div></td></tr><tr><td><div>2c:30:33:e1:cc:11,08:3e:8e:d9:6a:1d,4,5,64,17,192.168.1.189,216.58.220.3, 55954,443,46,27479</div></td></tr><tr><td><div>08:3e:8e:d9:6a:1d,2c:30:33:e1:cc:11,4,5,54,17,216.58.220.3,192.168.1.189, 443,55954,1358,48897</div></td></tr><tr><td><div>08:3e:8e:d9:6a:1d,2c:30:33:e1:cc:11,4,5,54,17,216.58.220.3,192.168.1.189, 443,55954,1358,6836</div></td></tr><tr><td><div>2c:30:33:e1:cc:11,08:3e:8e:d9:6a:1d,4,5,64,17,192.168.1.189,216.58.220.3, 55954,443,46,64299</div></td></tr><tr><td><div>08:3e:8e:d9:6a:1d,2c:30:33:e1:cc:11,4,5,54,17,216.58.220.3,192.168.1.189, 443,55954,1358,42826</div></td></tr><tr><td><div>08:3e:8e:d9:6a:1d,2c:30:33:e1:cc:11,4,5,54,17,216.58.220.3,192.168.1.189, 443,55954,645,15929</div></td></tr><tr><td><div>08:3e:8e:d9:6a:1d,2c:30:33:e1:cc:11,4,5,54,17,216.58.220.3,192.168.1.189, 443,55954,1358,9348</div></td></tr><tr><td><div>2c:30:33:e1:cc:11,08:3e:8e:d9:6a:1d,4,5,64,17,192.168.1.189,216.58.220.3, 55954,443,46,33143</div></td></tr><tr><td><div>08:3e:8e:d9:6a:1d,2c:30:33:e1:cc:11,4,5,54,17,216.58.220.3,192.168.1.189, 443,55954,1358,39839</div></td></tr><tr><td><div>2c:30:33:e1:cc:11,08:3e:8e:d9:6a:1d,4,5,64,17,192.168.1.189,216.58.220.3, 55954,443,46,13924</div></td></tr><tr><td><div>08:3e:8e:d9:6a:1d,2c:30:33:e1:cc:11,4,5,54,17,216.58.220.3,192.168.1.189, 443,55954,1358,61725</div></td></tr><tr><td><div>08:3e:8e:d9:6a:1d,2c:30:33:e1:cc:11,4,5,54,17,216.58.220.3,192.168.1.189, 443,55954,1358,7733</div></td></tr><tr><td><div>2c:30:33:e1:cc:11,08:3e:8e:d9:6a:1d,4,5,64,17,192.168.1.189,216.58.220.3, 55954,443,46,39470</div></td></tr><tr><td><div>08:3e:8e:d9:6a:1d,2c:30:33:e1:cc:11,4,5,54,17,216.58.220.3,192.168.1.189, 443,55954,1358,7276</div></td></tr><tr><td><div>08:3e:8e:d9:6a:1d,2c:30:33:e1:cc:11,4,5,54,17,216.58.220.3,192.168.1.189, 443,55954,1358,55583</div></td></tr><tr><td><div>2c:30:33:e1:cc:11,08:3e:8e:d9:6a:1d,4,5,64,17,192.168.1.189,216.58.220.3, 55954,443,46,12100</div></td></tr><tr><td><div>08:3e:8e:d9:6a:1d,2c:30:33:e1:cc:11,4,5,54,17,216.58.220.3,192.168.1.189, 443,55954,1358,18054</div></td></tr><tr><td><div>08:3e:8e:d9:6a:1d,2c:30:33:e1:cc:11,4,5,54,17,216.58.220.3,192.168.1.189, 443,55954,1358,37646</div></td></tr><tr><td><div>2c:30:33:e1:cc:11,08:3e:8e:d9:6a:1d,4,5,64,17,192.168.1.189,216.58.220.3, 55954,443,46,61751</div></td></tr><tr><td><div>08:3e:8e:d9:6a:1d,2c:30:33:e1:cc:11,4,5,54,17,216.58.220.3,192.168.1.189, 443,55954,1358,20722</div></td></tr><tr><td><div>08:3e:8e:d9:6a:1d,2c:30:33:e1:cc:11,4,5,54,17,216.58.220.3,192.168.1.189, 443,55954,1358,47675</div></td></tr><tr><td><div>2c:30:33:e1:cc:11,08:3e:8e:d9:6a:1d,4,5,64,17,192.168.1.189,216.58.220.3, 55954,443,46,56830</div></td></tr><tr><td><div>08:3e:8e:d9:6a:1d,2c:30:33:e1:cc:11,4,5,54,17,216.58.220.3,192.168.1.189, 443,55954,1358,5142</div></td></tr><tr><td><div>08:3e:8e:d9:6a:1d,2c:30:33:e1:cc:11,4,5,54,17,216.58.220.3,192.168.1.189, 443,55954,1358,27021</div></td></tr><tr><td><div>2c:30:33:e1:cc:11,08:3e:8e:d9:6a:1d,4,5,64,17,192.168.1.189,216.58.220.3, 55954,443,46,26050</div></td></tr><tr><td><div>08:3e:8e:d9:6a:1d,2c:30:33:e1:cc:11,4,5,54,17,216.58.220.3,192.168.1.189, 443,55954,1358,6365</div></td></tr><tr><td><div>08:3e:8e:d9:6a:1d,2c:30:33:e1:cc:11,4,5,54,17,216.58.220.3,192.168.1.189, 443,55954,1358,18188</div></td></tr><tr><td><div>08:3e:8e:d9:6a:1d,2c:30:33:e1:cc:11,4,5,54,17,216.58.220.3,192.168.1.189, 443,55954,1358,24920</div></td></tr><tr><td><div>2c:30:33:e1:cc:11,08:3e:8e:d9:6a:1d,4,5,64,17,192.168.1.189,216.58.220.3, 55954,443,46,39765</div></td></tr><tr><td><div>08:3e:8e:d9:6a:1d,2c:30:33:e1:cc:11,4,5,54,17,216.58.220.3,192.168.1.189, 443,55954,1358,49307</div></td></tr><tr><td><div>2c:30:33:e1:cc:11,08:3e:8e:d9:6a:1d,4,5,64,17,192.168.1.189,216.58.220.3, 55954,443,46,14467</div></td></tr><tr><td><div>08:3e:8e:d9:6a:1d,2c:30:33:e1:cc:11,4,5,54,17,216.58.220.3,192.168.1.189, 443,55954,1358,27687</div></td></tr><tr><td><div>08:3e:8e:d9:6a:1d,2c:30:33:e1:cc:11,4,5,54,17,216.58.220.3,192.168.1.189, 443,55954,1358,21072</div></td></tr><tr><td><div>2c:30:33:e1:cc:11,08:3e:8e:d9:6a:1d,4,5,64,17,192.168.1.189,216.58.220.3, 55954,443,46,32148</div></td></tr><tr><td><div>08:3e:8e:d9:6a:1d,2c:30:33:e1:cc:11,4,5,54,17,216.58.220.3,192.168.1.189, 443,55954,1358,41763</div></td></tr><tr><td><div>08:3e:8e:d9:6a:1d,2c:30:33:e1:cc:11,4,5,54,17,216.58.220.3,192.168.1.189, 443,55954,1358,41446</div></td></tr><tr><td><div>08:3e:8e:d9:6a:1d,2c:30:33:e1:cc:11,4,5,54,17,216.58.220.3,192.168.1.189, 443,55954,1358,46648</div></td></tr><tr><td><div>08:3e:8e:d9:6a:1d,2c:30:33:e1:cc:11,4,5,54,17,216.58.220.3,192.168.1.189, 443,55954,1358,3151</div></td></tr><tr><td><div>08:3e:8e:d9:6a:1d,2c:30:33:e1:cc:11,4,5,54,17,216.58.220.3,192.168.1.189, 443,55954,1358,2682</div></td></tr><tr><td><div>2c:30:33:e1:cc:11,08:3e:8e:d9:6a:1d,4,5,64,17,192.168.1.189,216.58.220.3, 55954,443,46,37633</div></td></tr><tr><td><div>2c:30:33:e1:cc:11,08:3e:8e:d9:6a:1d,4,5,64,17,192.168.1.189,216.58.220.3, 55954,443,46,11510</div></td></tr><tr><td><div>08:3e:8e:d9:6a:1d,2c:30:33:e1:cc:11,4,5,54,17,216.58.220.3,192.168.1.189, 443,55954,1358,33090</div></td></tr><tr><td><div>08:3e:8e:d9:6a:1d,2c:30:33:e1:cc:11,4,5,54,17,216.58.220.3,192.168.1.189, 443,55954,1358,10795</div></td></tr><tr><td><div>2c:30:33:e1:cc:11,08:3e:8e:d9:6a:1d,4,5,64,17,192.168.1.189,216.58.220.3, 55954,443,46,53093</div></td></tr><tr><td><div>08:3e:8e:d9:6a:1d,2c:30:33:e1:cc:11,4,5,54,17,216.58.220.3,192.168.1.189, 443,55954,1358,50249</div></td></tr><tr><td><div>2c:30:33:e1:cc:11,08:3e:8e:d9:6a:1d,4,5,64,17,192.168.1.189,216.58.220.3, 55954,443,46,59851</div></td></tr><tr><td><div>08:3e:8e:d9:6a:1d,2c:30:33:e1:cc:11,4,5,54,17,216.58.220.3,192.168.1.189, 443,55954,1358,62028</div></td></tr><tr><td><div>08:3e:8e:d9:6a:1d,2c:30:33:e1:cc:11,4,5,54,17,216.58.220.3,192.168.1.189, 443,55954,1358,31015</div></td></tr><tr><td><div>08:3e:8e:d9:6a:1d,2c:30:33:e1:cc:11,4,5,54,17,216.58.220.3,192.168.1.189, 443,55954,1358,31609</div></td></tr><tr><td><div>2c:30:33:e1:cc:11,08:3e:8e:d9:6a:1d,4,5,64,17,192.168.1.189,216.58.220.3, 55954,443,46,40402</div></td></tr><tr><td><div>08:3e:8e:d9:6a:1d,2c:30:33:e1:cc:11,4,5,54,17,216.58.220.3,192.168.1.189, 443,55954,1358,7335</div></td></tr><tr><td><div>2c:30:33:e1:cc:11,08:3e:8e:d9:6a:1d,4,5,64,17,192.168.1.189,216.58.220.3, 55954,443,46,17428</div></td></tr><tr><td><div>08:3e:8e:d9:6a:1d,2c:30:33:e1:cc:11,4,5,54,17,216.58.220.3,192.168.1.189, 443,55954,1358,14258</div></td></tr><tr><td><div>08:3e:8e:d9:6a:1d,2c:30:33:e1:cc:11,4,5,54,17,216.58.220.3,192.168.1.189, 443,55954,1358,59400</div></td></tr><tr><td><div>2c:30:33:e1:cc:11,08:3e:8e:d9:6a:1d,4,5,64,17,192.168.1.189,216.58.220.3, 55954,443,46,19961</div></td></tr><tr><td><div>08:3e:8e:d9:6a:1d,2c:30:33:e1:cc:11,4,5,54,17,216.58.220.3,192.168.1.189, 443,55954,1358,30259</div></td></tr><tr><td><div>08:3e:8e:d9:6a:1d,2c:30:33:e1:cc:11,4,5,54,17,216.58.220.3,192.168.1.189, 443,55954,1358,20334</div></td></tr><tr><td><div>2c:30:33:e1:cc:11,08:3e:8e:d9:6a:1d,4,5,64,17,192.168.1.189,216.58.220.3, 55954,443,46,23448</div></td></tr><tr><td><div>08:3e:8e:d9:6a:1d,2c:30:33:e1:cc:11,4,5,54,17,216.58.220.3,192.168.1.189, 443,55954,1358,63915</div></td></tr><tr><td><div>08:3e:8e:d9:6a:1d,2c:30:33:e1:cc:11,4,5,54,17,216.58.220.3,192.168.1.189, 443,55954,1358,18154</div></td></tr><tr><td><div>2c:30:33:e1:cc:11,08:3e:8e:d9:6a:1d,4,5,64,17,192.168.1.189,216.58.220.3, 55954,443,46,6843</div></td></tr><tr><td><div>08:3e:8e:d9:6a:1d,2c:30:33:e1:cc:11,4,5,54,17,216.58.220.3,192.168.1.189, 443,55954,1129,19189</div></td></tr><tr><td><div>08:3e:8e:d9:6a:1d,2c:30:33:e1:cc:11,4,5,54,17,216.58.220.3,192.168.1.189, 443,55954,1358,45469</div></td></tr><tr><td><div>08:3e:8e:d9:6a:1d,2c:30:33:e1:cc:11,4,5,54,17,216.58.220.3,192.168.1.189, 443,55954,1358,13231</div></td></tr><tr><td><div>08:3e:8e:d9:6a:1d,2c:30:33:e1:cc:11,4,5,54,17,216.58.220.3,192.168.1.189, 443,55954,615,308</div></td></tr><tr><td><div>2c:30:33:e1:cc:11,08:3e:8e:d9:6a:1d,4,5,64,17,192.168.1.189,216.58.220.3, 55954,443,46,14820</div></td></tr><tr><td><div>2c:30:33:e1:cc:11,08:3e:8e:d9:6a:1d,4,5,64,17,192.168.1.189,216.58.220.3, 55954,443,46,25878</div></td></tr><tr><td><div>01:00:5e:00:00:fc,02:20:ac:3b:a3:a3,4,5,1,17,192.168.1.151,224.0.0.252, 55586,5355,50,36450</div></td></tr><tr><td><div>2c:30:33:e1:cc:11,08:3e:8e:d9:6a:1d,4,5,64,17,192.168.1.189,216.58.220.3, 55954,443,234,44251</div></td></tr><tr><td><div>2c:30:33:e1:cc:11,08:3e:8e:d9:6a:1d,4,5,64,17,192.168.1.189,216.58.220.3, 55954,443,208,6949</div></td></tr><tr><td><div>08:3e:8e:d9:6a:1d,2c:30:33:e1:cc:11,4,5,54,17,216.58.220.3,192.168.1.189, 443,55954,56,23173</div></td></tr><tr><td><div>08:3e:8e:d9:6a:1d,2c:30:33:e1:cc:11,4,5,54,17,216.58.220.3,192.168.1.189, 443,55954,83,38872</div></td></tr><tr><td><div>2c:30:33:e1:cc:11,08:3e:8e:d9:6a:1d,4,5,64,17,192.168.1.189,216.58.220.3, 55954,443,46,52125</div></td></tr><tr><td><div>08:3e:8e:d9:6a:1d,2c:30:33:e1:cc:11,4,5,54,17,216.58.220.3,192.168.1.189, 443,55954,47,10317</div></td></tr><tr><td><div>2c:30:33:e1:cc:11,08:3e:8e:d9:6a:1d,4,5,64,17,192.168.1.189,216.58.220.3, 55954,443,43,30229</div></td></tr><tr><td><div>01:00:5e:00:00:fc,02:20:ac:3b:a3:a3,4,5,1,17,192.168.1.151,224.0.0.252, 55586,5355,50,36450</div></td></tr><tr><td><div>2c:30:33:e1:cc:11,08:3e:8e:d9:6a:1d,4,5,64,17,192.168.1.189,172.217.26.206, 47002,443,1358,64905</div></td></tr><tr><td><div>08:3e:8e:d9:6a:1d,2c:30:33:e1:cc:11,4,5,56,17,172.217.26.206,192.168.1.189, 443,47002,1358,23497</div></td></tr><tr><td><div>2c:30:33:e1:cc:11,08:3e:8e:d9:6a:1d,4,5,64,17,192.168.1.189,172.217.26.206, 47002,443,710,50242</div></td></tr><tr><td><div>2c:30:33:e1:cc:11,08:3e:8e:d9:6a:1d,4,5,64,17,192.168.1.189,172.217.26.206, 47002,443,135,16057</div></td></tr><tr><td><div>08:3e:8e:d9:6a:1d,2c:30:33:e1:cc:11,4,5,56,17,172.217.26.206,192.168.1.189, 443,47002,38,48406</div></td></tr><tr><td><div>08:3e:8e:d9:6a:1d,2c:30:33:e1:cc:11,4,5,56,17,172.217.26.206,192.168.1.189, 443,47002,1358,34285</div></td></tr><tr><td><div>2c:30:33:e1:cc:11,08:3e:8e:d9:6a:1d,4,5,64,17,192.168.1.189,172.217.26.206, 47002,443,49,38794</div></td></tr><tr><td><div>08:3e:8e:d9:6a:1d,2c:30:33:e1:cc:11,4,5,56,17,172.217.26.206,192.168.1.189, 443,47002,38,61867</div></td></tr><tr><td><div>08:3e:8e:d9:6a:1d,2c:30:33:e1:cc:11,4,5,56,17,172.217.26.206,192.168.1.189, 443,47002,586,41434</div></td></tr><tr><td><div>08:3e:8e:d9:6a:1d,2c:30:33:e1:cc:11,4,5,56,17,172.217.26.206,192.168.1.189, 443,47002,36,40258</div></td></tr><tr><td><div>2c:30:33:e1:cc:11,08:3e:8e:d9:6a:1d,4,5,64,17,192.168.1.189,172.217.26.206, 47002,443,49,52184</div></td></tr><tr><td><div>2c:30:33:e1:cc:11,08:3e:8e:d9:6a:1d,4,5,64,17,192.168.1.189,192.168.1.1, 46959,53,41,53132</div></td></tr><tr><td><div>2c:30:33:e1:cc:11,08:3e:8e:d9:6a:1d,4,5,64,17,192.168.1.189,192.168.1.1, 52925,53,53,25165</div></td></tr><tr><td><div>2c:30:33:e1:cc:11,08:3e:8e:d9:6a:1d,4,5,64,17,192.168.1.189,192.168.1.1, 6214,53,37,31804</div></td></tr><tr><td><div>2c:30:33:e1:cc:11,08:3e:8e:d9:6a:1d,4,5,64,17,192.168.1.189,192.168.1.1, 16494,53,55,50766</div></td></tr><tr><td><div>2c:30:33:e1:cc:11,08:3e:8e:d9:6a:1d,4,5,64,17,192.168.1.189,192.168.1.1, 33647,53,50,21207</div></td></tr><tr><td><div>08:3e:8e:d9:6a:1d,2c:30:33:e1:cc:11,4,5,64,17,192.168.1.1,192.168.1.189, 53,46959,227,335</div></td></tr><tr><td><div>08:3e:8e:d9:6a:1d,2c:30:33:e1:cc:11,4,5,64,17,192.168.1.1,192.168.1.189, 53,52925,240,20375</div></td></tr><tr><td><div>08:3e:8e:d9:6a:1d,2c:30:33:e1:cc:11,4,5,64,17,192.168.1.1,192.168.1.189, 53,6214,218,51992</div></td></tr><tr><td><div>08:3e:8e:d9:6a:1d,2c:30:33:e1:cc:11,4,5,64,17,192.168.1.1,192.168.1.189, 53,16494,254,26515</div></td></tr><tr><td><div>08:3e:8e:d9:6a:1d,2c:30:33:e1:cc:11,4,5,64,17,192.168.1.1,192.168.1.189, 53,33647,238,11388</div></td></tr><tr><td><div>2c:30:33:e1:cc:11,08:3e:8e:d9:6a:1d,4,5,64,17,192.168.1.189,74.125.169.102, 58451,443,1358,63810</div></td></tr><tr><td><div>2c:30:33:e1:cc:11,08:3e:8e:d9:6a:1d,4,5,64,17,192.168.1.189,112.133.228.78, 60463,443,1358,41264</div></td></tr><tr><td><div>2c:30:33:e1:cc:11,08:3e:8e:d9:6a:1d,4,5,64,17,192.168.1.189,192.168.1.1, 58684,53,37,13407</div></td></tr><tr><td><div>2c:30:33:e1:cc:11,08:3e:8e:d9:6a:1d,4,5,64,17,192.168.1.189,192.168.1.1, 41023,53,56,23886</div></td></tr><tr><td><div>08:3e:8e:d9:6a:1d,2c:30:33:e1:cc:11,4,5,64,17,192.168.1.1,192.168.1.189, 53,58684,221,5670</div></td></tr><tr><td><div>08:3e:8e:d9:6a:1d,2c:30:33:e1:cc:11,4,5,64,17,192.168.1.1,192.168.1.189, 53,41023,244,14212</div></td></tr><tr><td><div>08:3e:8e:d9:6a:1d,2c:30:33:e1:cc:11,4,5,58,17,74.125.169.102,192.168.1.189, 443,58451,1358,44243</div></td></tr><tr><td><div>08:3e:8e:d9:6a:1d,2c:30:33:e1:cc:11,4,5,57,17,112.133.228.78,192.168.1.189, 443,60463,1358,43847</div></td></tr><tr><td><div>08:3e:8e:d9:6a:1d,2c:30:33:e1:cc:11,4,5,58,17,74.125.169.102,192.168.1.189, 443,58451,35,31617</div></td></tr><tr><td><div>08:3e:8e:d9:6a:1d,2c:30:33:e1:cc:11,4,5,57,17,112.133.228.78,192.168.1.189, 443,60463,1358,15563</div></td></tr><tr><td><div>08:3e:8e:d9:6a:1d,2c:30:33:e1:cc:11,4,5,57,17,112.133.228.78,192.168.1.189, 443,60463,35,35426</div></td></tr><tr><td><div>08:3e:8e:d9:6a:1d,2c:30:33:e1:cc:11,4,5,58,17,74.125.169.102,192.168.1.189, 443,58451,1358,5343</div></td></tr><tr><td><div>08:3e:8e:d9:6a:1d,2c:30:33:e1:cc:11,4,5,57,17,112.133.228.78,192.168.1.189, 443,60463,1358,58767</div></td></tr><tr><td><div>2c:30:33:e1:cc:11,08:3e:8e:d9:6a:1d,4,5,64,17,192.168.1.189,172.217.26.206, 51496,443,1358,35336</div></td></tr><tr><td><div>2c:30:33:e1:cc:11,08:3e:8e:d9:6a:1d,4,5,64,17,192.168.1.189,192.168.1.1, 9073,53,39,31759</div></td></tr><tr><td><div>2c:30:33:e1:cc:11,08:3e:8e:d9:6a:1d,4,5,64,17,192.168.1.189,216.58.197.66, 55979,443,1358,21392</div></td></tr><tr><td><div>08:3e:8e:d9:6a:1d,2c:30:33:e1:cc:11,4,5,64,17,192.168.1.1,192.168.1.189, 53,9073,243,40136</div></td></tr><tr><td><div>08:3e:8e:d9:6a:1d,2c:30:33:e1:cc:11,4,5,56,17,172.217.26.206,192.168.1.189, 443,51496,1358,38574</div></td></tr><tr><td><div>08:3e:8e:d9:6a:1d,2c:30:33:e1:cc:11,4,5,56,17,216.58.197.66,192.168.1.189, 443,55979,1358,54865</div></td></tr><tr><td><div>08:3e:8e:d9:6a:1d,2c:30:33:e1:cc:11,4,5,56,17,172.217.26.206,192.168.1.189, 443,51496,1358,59341</div></td></tr><tr><td><div>08:3e:8e:d9:6a:1d,2c:30:33:e1:cc:11,4,5,56,17,172.217.26.206,192.168.1.189, 443,51496,35,7863</div></td></tr><tr><td><div>08:3e:8e:d9:6a:1d,2c:30:33:e1:cc:11,4,5,56,17,216.58.197.66,192.168.1.189, 443,55979,35,27395</div></td></tr><tr><td><div>08:3e:8e:d9:6a:1d,2c:30:33:e1:cc:11,4,5,56,17,216.58.197.66,192.168.1.189, 443,55979,1358,62537</div></td></tr><tr><td><div>08:3e:8e:d9:6a:1d,2c:30:33:e1:cc:11,4,5,56,17,172.217.26.206,192.168.1.189, 443,51496,1358,15154</div></td></tr><tr><td><div>08:3e:8e:d9:6a:1d,2c:30:33:e1:cc:11,4,5,57,17,112.133.228.78,192.168.1.189, 443,60463,1358,4553</div></td></tr><tr><td><div>08:3e:8e:d9:6a:1d,2c:30:33:e1:cc:11,4,5,56,17,216.58.197.66,192.168.1.189, 443,55979,1358,46981</div></td></tr><tr><td><div>08:3e:8e:d9:6a:1d,2c:30:33:e1:cc:11,4,5,58,17,74.125.169.102,192.168.1.189, 443,58451,1358,48750</div></td></tr><tr><td><div>2c:30:33:e1:cc:11,08:3e:8e:d9:6a:1d,4,5,64,17,192.168.1.189,172.217.26.206, 40150,443,1358,9733</div></td></tr><tr><td><div>2c:30:33:e1:cc:11,08:3e:8e:d9:6a:1d,4,5,64,17,192.168.1.189,172.217.26.194, 42403,443,1358,17533</div></td></tr><tr><td><div>08:3e:8e:d9:6a:1d,2c:30:33:e1:cc:11,4,5,56,17,172.217.26.206,192.168.1.189, 443,40150,1358,8225</div></td></tr><tr><td><div>08:3e:8e:d9:6a:1d,2c:30:33:e1:cc:11,4,5,56,17,172.217.26.206,192.168.1.189, 443,51496,1358,7109</div></td></tr><tr><td><div>08:3e:8e:d9:6a:1d,2c:30:33:e1:cc:11,4,5,56,17,172.217.26.194,192.168.1.189, 443,42403,1358,17987</div></td></tr><tr><td><div>08:3e:8e:d9:6a:1d,2c:30:33:e1:cc:11,4,5,56,17,172.217.26.206,192.168.1.189, 443,40150,1358,4464</div></td></tr><tr><td><div>08:3e:8e:d9:6a:1d,2c:30:33:e1:cc:11,4,5,56,17,172.217.26.194,192.168.1.189, 443,42403,1358,20311</div></td></tr><tr><td><div>08:3e:8e:d9:6a:1d,2c:30:33:e1:cc:11,4,5,56,17,172.217.26.206,192.168.1.189, 443,40150,35,23989</div></td></tr><tr><td><div>08:3e:8e:d9:6a:1d,2c:30:33:e1:cc:11,4,5,56,17,172.217.26.194,192.168.1.189, 443,42403,35,33369</div></td></tr><tr><td><div>2c:30:33:e1:cc:11,08:3e:8e:d9:6a:1d,4,5,64,17,192.168.1.189,74.125.169.102, 58451,443,49,63191</div></td></tr><tr><td><div>2c:30:33:e1:cc:11,08:3e:8e:d9:6a:1d,4,5,64,17,192.168.1.189,112.133.228.78, 60463,443,46,35632</div></td></tr><tr><td><div>2c:30:33:e1:cc:11,08:3e:8e:d9:6a:1d,4,5,64,17,192.168.1.189,112.133.228.78, 60463,443,49,31953</div></td></tr><tr><td><div>2c:30:33:e1:cc:11,08:3e:8e:d9:6a:1d,4,5,64,17,192.168.1.189,172.217.26.193, 58569,443,1358,61175</div></td></tr><tr><td><div>2c:30:33:e1:cc:11,08:3e:8e:d9:6a:1d,4,5,64,17,192.168.1.189,172.217.26.206, 51496,443,46,40309</div></td></tr><tr><td><div>2c:30:33:e1:cc:11,08:3e:8e:d9:6a:1d,4,5,64,17,192.168.1.189,172.217.26.206, 51496,443,49,62254</div></td></tr><tr><td><div>2c:30:33:e1:cc:11,08:3e:8e:d9:6a:1d,4,5,64,17,192.168.1.189,216.58.197.66, 55979,443,49,59980</div></td></tr><tr><td><div>2c:30:33:e1:cc:11,08:3e:8e:d9:6a:1d,4,5,64,17,192.168.1.189,172.217.26.206, 40150,443,46,13077</div></td></tr><tr><td><div>2c:30:33:e1:cc:11,08:3e:8e:d9:6a:1d,4,5,64,17,192.168.1.189,172.217.26.194, 42403,443,46,58045</div></td></tr><tr><td><div>08:3e:8e:d9:6a:1d,2c:30:33:e1:cc:11,4,5,56,17,172.217.26.193,192.168.1.189, 443,58569,1358,33897</div></td></tr><tr><td><div>08:3e:8e:d9:6a:1d,2c:30:33:e1:cc:11,4,5,56,17,172.217.26.193,192.168.1.189, 443,58569,1358,51004</div></td></tr><tr><td><div>2c:30:33:e1:cc:11,08:3e:8e:d9:6a:1d,4,5,64,17,192.168.1.189,172.217.26.193, 58569,443,46,41286</div></td></tr><tr><td><div>2c:30:33:e1:cc:11,08:3e:8e:d9:6a:1d,4,5,64,17,192.168.1.189,74.125.169.102, 58451,443,43,49753</div></td></tr><tr><td><div>2c:30:33:e1:cc:11,08:3e:8e:d9:6a:1d,4,5,64,17,192.168.1.189,216.58.197.66, 55979,443,43,6320</div></td></tr><tr><td><div>08:3e:8e:d9:6a:1d,2c:30:33:e1:cc:11,4,5,56,17,172.217.26.193,192.168.1.189, 443,58569,38,4220</div></td></tr><tr><td><div>2c:30:33:e1:cc:11,08:3e:8e:d9:6a:1d,4,5,64,17,192.168.1.189,192.168.1.1, 38990,53,44,63133</div></td></tr><tr><td><div>2c:30:33:e1:cc:11,08:3e:8e:d9:6a:1d,4,5,64,17,192.168.1.189,172.217.26.206, 51496,443,813,39382</div></td></tr><tr><td><div>08:3e:8e:d9:6a:1d,2c:30:33:e1:cc:11,4,5,64,17,192.168.1.1,192.168.1.189, 53,38990,245,12506</div></td></tr><tr><td><div>2c:30:33:e1:cc:11,08:3e:8e:d9:6a:1d,4,5,64,6,192.168.1.189,54.221.3.35,51016, 443 , 2379272824 , 0 , 10</div></td></tr><tr><td><div>08:3e:8e:d9:6a:1d,2c:30:33:e1:cc:11,4,5,56,17,172.217.26.206,192.168.1.189, 443,51496,41,44940</div></td></tr><tr><td><div>08:3e:8e:d9:6a:1d,2c:30:33:e1:cc:11,4,5,56,17,172.217.26.206,192.168.1.189, 443,51496,1358,64806</div></td></tr><tr><td><div>08:3e:8e:d9:6a:1d,2c:30:33:e1:cc:11,4,5,56,17,172.217.26.206,192.168.1.189, 443,51496,1358,49017</div></td></tr><tr><td><div>08:3e:8e:d9:6a:1d,2c:30:33:e1:cc:11,4,5,56,17,172.217.26.206,192.168.1.189, 443,51496,1199,51435</div></td></tr><tr><td><div>2c:30:33:e1:cc:11,08:3e:8e:d9:6a:1d,4,5,64,17,192.168.1.189,172.217.26.206, 51496,443,49,38461</div></td></tr><tr><td><div>2c:30:33:e1:cc:11,08:3e:8e:d9:6a:1d,4,5,64,17,192.168.1.189,172.217.26.206, 51496,443,43,37142</div></td></tr><tr><td><div>2c:30:33:e1:cc:11,08:3e:8e:d9:6a:1d,4,5,64,6,192.168.1.189,54.221.3.35,51017, 443 , 3093011258 , 0 , 10</div></td></tr><tr><td><div>08:3e:8e:d9:6a:1d,2c:30:33:e1:cc:11,4,5,42,6,54.221.3.35,192.168.1.189,443, 51016 , 1957181624 , 2379272825 , 10</div></td></tr><tr><td><div>2c:30:33:e1:cc:11,08:3e:8e:d9:6a:1d,4,5,64,6,192.168.1.189,54.221.3.35,51016, 443 , 2379272825 , 1957181625 , 8</div></td></tr><tr><td><div>2c:30:33:e1:cc:11,08:3e:8e:d9:6a:1d,4,5,64,6,192.168.1.189,54.221.3.35,51016, 443 , 2379272825 , 1957181625 , 8</div></td></tr><tr><td><div>2c:30:33:e1:cc:11,08:3e:8e:d9:6a:1d,4,5,64,17,192.168.1.189,216.58.220.3, 55954,443,154,40814</div></td></tr><tr><td><div>2c:30:33:e1:cc:11,08:3e:8e:d9:6a:1d,4,5,64,17,192.168.1.189,216.58.197.66, 43029,443,1358,37340</div></td></tr><tr><td><div>08:3e:8e:d9:6a:1d,2c:30:33:e1:cc:11,4,5,56,17,216.58.197.66,192.168.1.189, 443,43029,1358,21458</div></td></tr><tr><td><div>08:3e:8e:d9:6a:1d,2c:30:33:e1:cc:11,4,5,54,17,216.58.220.3,192.168.1.189, 443,55954,41,14206</div></td></tr><tr><td><div>2c:30:33:e1:cc:11,08:3e:8e:d9:6a:1d,4,5,64,17,192.168.1.189,216.58.197.66, 43029,443,43,40587</div></td></tr><tr><td><div>08:3e:8e:d9:6a:1d,2c:30:33:e1:cc:11,4,5,56,17,216.58.197.66,192.168.1.189, 443,43029,35,19521</div></td></tr><tr><td><div>08:3e:8e:d9:6a:1d,2c:30:33:e1:cc:11,4,5,54,17,216.58.220.3,192.168.1.189, 443,55954,1358,22318</div></td></tr><tr><td><div>08:3e:8e:d9:6a:1d,2c:30:33:e1:cc:11,4,5,54,17,216.58.220.3,192.168.1.189, 443,55954,48,15585</div></td></tr><tr><td><div>2c:30:33:e1:cc:11,08:3e:8e:d9:6a:1d,4,5,64,17,192.168.1.189,216.58.220.3, 55954,443,49,18109</div></td></tr><tr><td><div>08:3e:8e:d9:6a:1d,2c:30:33:e1:cc:11,4,5,42,6,54.221.3.35,192.168.1.189,443, 51017 , 4162336481 , 3093011259 , 10</div></td></tr><tr><td><div>2c:30:33:e1:cc:11,08:3e:8e:d9:6a:1d,4,5,64,6,192.168.1.189,54.221.3.35,51017, 443 , 3093011259 , 4162336482 , 8</div></td></tr><tr><td><div>08:3e:8e:d9:6a:1d,2c:30:33:e1:cc:11,4,5,42,6,54.221.3.35,192.168.1.189,443, 51016 , 1957181625 , 2379273342 , 8</div></td></tr><tr><td><div>08:3e:8e:d9:6a:1d,2c:30:33:e1:cc:11,4,5,42,6,54.221.3.35,192.168.1.189,443, 51016 , 1957181625 , 2379273342 , 8</div></td></tr><tr><td><div>2c:30:33:e1:cc:11,08:3e:8e:d9:6a:1d,4,5,64,6,192.168.1.189,54.221.3.35,51016, 443 , 2379273342 , 1957183013 , 8</div></td></tr><tr><td><div>08:3e:8e:d9:6a:1d,2c:30:33:e1:cc:11,4,5,42,6,54.221.3.35,192.168.1.189,443, 51016 , 1957183013 , 2379273342 , 8</div></td></tr><tr><td><div>2c:30:33:e1:cc:11,08:3e:8e:d9:6a:1d,4,5,64,6,192.168.1.189,54.221.3.35,51016, 443 , 2379273342 , 1957184401 , 8</div></td></tr><tr><td><div>08:3e:8e:d9:6a:1d,2c:30:33:e1:cc:11,4,5,42,6,54.221.3.35,192.168.1.189,443, 51016 , 1957184401 , 2379273342 , 8</div></td></tr><tr><td><div>2c:30:33:e1:cc:11,08:3e:8e:d9:6a:1d,4,5,64,6,192.168.1.189,54.221.3.35,51016, 443 , 2379273342 , 1957184553 , 8</div></td></tr><tr><td><div>2c:30:33:e1:cc:11,08:3e:8e:d9:6a:1d,4,5,64,6,192.168.1.189,54.221.3.35,51016, 443 , 2379273342 , 1957184553 , 8</div></td></tr><tr><td><div>08:3e:8e:d9:6a:1d,2c:30:33:e1:cc:11,4,5,42,6,54.221.3.35,192.168.1.189,443, 51016 , 1957184553 , 2379273468 , 8</div></td></tr><tr><td><div>2c:30:33:e1:cc:11,08:3e:8e:d9:6a:1d,4,5,64,6,192.168.1.189,54.221.3.35,51016, 443 , 2379273468 , 1957184811 , 8</div></td></tr><tr><td><div>2c:30:33:e1:cc:11,08:3e:8e:d9:6a:1d,4,5,64,6,192.168.1.189,54.221.3.35,51016, 443 , 2379274856 , 1957184811 , 8</div></td></tr><tr><td><div>08:3e:8e:d9:6a:1d,2c:30:33:e1:cc:11,4,5,42,6,54.221.3.35,192.168.1.189,443, 51016 , 1957184811 , 2379274954 , 8</div></td></tr><tr><td><div>08:3e:8e:d9:6a:1d,2c:30:33:e1:cc:11,4,5,42,6,54.221.3.35,192.168.1.189,443, 51016 , 1957184811 , 2379274954 , 8</div></td></tr><tr><td><div>2c:30:33:e1:cc:11,08:3e:8e:d9:6a:1d,4,5,64,6,192.168.1.189,54.221.3.35,51016, 443 , 2379274954 , 1957185000 , 8</div></td></tr><tr><td><div>08:3e:8e:d9:6a:1d,2c:30:33:e1:cc:11,4,5,56,17,172.217.26.206,192.168.1.189, 443,51496,1358,488</div></td></tr><tr><td><div>08:3e:8e:d9:6a:1d,2c:30:33:e1:cc:11,4,5,56,17,172.217.26.206,192.168.1.189, 443,51496,1358,11485</div></td></tr><tr><td><div>08:3e:8e:d9:6a:1d,2c:30:33:e1:cc:11,4,5,56,17,172.217.26.206,192.168.1.189, 443,51496,1358,33075</div></td></tr><tr><td><div>2c:30:33:e1:cc:11,08:3e:8e:d9:6a:1d,4,5,64,17,192.168.1.189,172.217.26.206, 51496,443,46,18703</div></td></tr><tr><td><div>08:3e:8e:d9:6a:1d,2c:30:33:e1:cc:11,4,5,56,17,172.217.26.206,192.168.1.189, 443,51496,1358,17139</div></td></tr><tr><td><div>2c:30:33:e1:cc:11,08:3e:8e:d9:6a:1d,4,5,64,17,192.168.1.189,172.217.26.206, 51496,443,46,20421</div></td></tr><tr><td><div>08:3e:8e:d9:6a:1d,2c:30:33:e1:cc:11,4,5,56,17,172.217.26.206,192.168.1.189, 443,51496,1358,1894</div></td></tr><tr><td><div>08:3e:8e:d9:6a:1d,2c:30:33:e1:cc:11,4,5,56,17,172.217.26.206,192.168.1.189, 443,51496,1358,57492</div></td></tr><tr><td><div>08:3e:8e:d9:6a:1d,2c:30:33:e1:cc:11,4,5,56,17,172.217.26.206,192.168.1.189, 443,51496,1358,15522</div></td></tr><tr><td><div>2c:30:33:e1:cc:11,08:3e:8e:d9:6a:1d,4,5,64,17,192.168.1.189,172.217.26.206, 51496,443,46,1714</div></td></tr><tr><td><div>08:3e:8e:d9:6a:1d,2c:30:33:e1:cc:11,4,5,56,17,172.217.26.206,192.168.1.189, 443,51496,1358,32399</div></td></tr><tr><td><div>08:3e:8e:d9:6a:1d,2c:30:33:e1:cc:11,4,5,56,17,172.217.26.206,192.168.1.189, 443,51496,1358,6189</div></td></tr><tr><td><div>2c:30:33:e1:cc:11,08:3e:8e:d9:6a:1d,4,5,64,17,192.168.1.189,172.217.26.206, 51496,443,46,38086</div></td></tr><tr><td><div>08:3e:8e:d9:6a:1d,2c:30:33:e1:cc:11,4,5,56,17,172.217.26.206,192.168.1.189, 443,51496,1358,46909</div></td></tr><tr><td><div>2c:30:33:e1:cc:11,08:3e:8e:d9:6a:1d,4,5,64,17,192.168.1.189,172.217.26.206, 51496,443,46,36131</div></td></tr><tr><td><div>08:3e:8e:d9:6a:1d,2c:30:33:e1:cc:11,4,5,56,17,172.217.26.206,192.168.1.189, 443,51496,1195,18380</div></td></tr><tr><td><div>08:3e:8e:d9:6a:1d,2c:30:33:e1:cc:11,4,5,56,17,172.217.26.206,192.168.1.189, 443,51496,1358,25783</div></td></tr><tr><td><div>2c:30:33:e1:cc:11,08:3e:8e:d9:6a:1d,4,5,64,17,192.168.1.189,172.217.26.206, 51496,443,46,48358</div></td></tr><tr><td><div>08:3e:8e:d9:6a:1d,2c:30:33:e1:cc:11,4,5,56,17,172.217.26.206,192.168.1.189, 443,51496,1358,45338</div></td></tr><tr><td><div>08:3e:8e:d9:6a:1d,2c:30:33:e1:cc:11,4,5,56,17,172.217.26.206,192.168.1.189, 443,51496,1358,16918</div></td></tr><tr><td><div>2c:30:33:e1:cc:11,08:3e:8e:d9:6a:1d,4,5,64,17,192.168.1.189,172.217.26.206, 51496,443,46,40960</div></td></tr><tr><td><div>08:3e:8e:d9:6a:1d,2c:30:33:e1:cc:11,4,5,56,17,172.217.26.206,192.168.1.189, 443,51496,1358,26875</div></td></tr><tr><td><div>08:3e:8e:d9:6a:1d,2c:30:33:e1:cc:11,4,5,56,17,172.217.26.206,192.168.1.189, 443,51496,1358,34759</div></td></tr><tr><td><div>08:3e:8e:d9:6a:1d,2c:30:33:e1:cc:11,4,5,56,17,172.217.26.206,192.168.1.189, 443,51496,1358,58437</div></td></tr><tr><td><div>2c:30:33:e1:cc:11,08:3e:8e:d9:6a:1d,4,5,64,17,192.168.1.189,172.217.26.206, 51496,443,46,37595</div></td></tr><tr><td><div>08:3e:8e:d9:6a:1d,2c:30:33:e1:cc:11,4,5,56,17,172.217.26.206,192.168.1.189, 443,51496,1358,31969</div></td></tr><tr><td><div>2c:30:33:e1:cc:11,08:3e:8e:d9:6a:1d,4,5,64,17,192.168.1.189,172.217.26.206, 51496,443,46,54216</div></td></tr><tr><td><div>08:3e:8e:d9:6a:1d,2c:30:33:e1:cc:11,4,5,56,17,172.217.26.206,192.168.1.189, 443,51496,1358,51827</div></td></tr><tr><td><div>08:3e:8e:d9:6a:1d,2c:30:33:e1:cc:11,4,5,56,17,172.217.26.206,192.168.1.189, 443,51496,1358,11085</div></td></tr><tr><td><div>2c:30:33:e1:cc:11,08:3e:8e:d9:6a:1d,4,5,64,17,192.168.1.189,172.217.26.206, 51496,443,46,53349</div></td></tr><tr><td><div>08:3e:8e:d9:6a:1d,2c:30:33:e1:cc:11,4,5,56,17,172.217.26.206,192.168.1.189, 443,51496,1358,62354</div></td></tr><tr><td><div>08:3e:8e:d9:6a:1d,2c:30:33:e1:cc:11,4,5,56,17,172.217.26.206,192.168.1.189, 443,51496,1358,3704</div></td></tr><tr><td><div>2c:30:33:e1:cc:11,08:3e:8e:d9:6a:1d,4,5,64,17,192.168.1.189,172.217.26.206, 51496,443,46,10133</div></td></tr><tr><td><div>08:3e:8e:d9:6a:1d,2c:30:33:e1:cc:11,4,5,56,17,172.217.26.206,192.168.1.189, 443,51496,1358,49568</div></td></tr><tr><td><div>08:3e:8e:d9:6a:1d,2c:30:33:e1:cc:11,4,5,56,17,172.217.26.206,192.168.1.189, 443,51496,1358,19580</div></td></tr><tr><td><div>08:3e:8e:d9:6a:1d,2c:30:33:e1:cc:11,4,5,56,17,172.217.26.206,192.168.1.189, 443,51496,1358,53321</div></td></tr><tr><td><div>2c:30:33:e1:cc:11,08:3e:8e:d9:6a:1d,4,5,64,17,192.168.1.189,172.217.26.206, 51496,443,46,11086</div></td></tr><tr><td><div>08:3e:8e:d9:6a:1d,2c:30:33:e1:cc:11,4,5,56,17,172.217.26.206,192.168.1.189, 443,51496,1358,63909</div></td></tr><tr><td><div>2c:30:33:e1:cc:11,08:3e:8e:d9:6a:1d,4,5,64,17,192.168.1.189,172.217.26.206, 51496,443,46,40843</div></td></tr><tr><td><div>08:3e:8e:d9:6a:1d,2c:30:33:e1:cc:11,4,5,56,17,172.217.26.206,192.168.1.189, 443,51496,1358,39490</div></td></tr><tr><td><div>08:3e:8e:d9:6a:1d,2c:30:33:e1:cc:11,4,5,56,17,172.217.26.206,192.168.1.189, 443,51496,1358,22769</div></td></tr><tr><td><div>2c:30:33:e1:cc:11,08:3e:8e:d9:6a:1d,4,5,64,17,192.168.1.189,172.217.26.206, 51496,443,46,52236</div></td></tr><tr><td><div>08:3e:8e:d9:6a:1d,2c:30:33:e1:cc:11,4,5,56,17,172.217.26.206,192.168.1.189, 443,51496,1358,44110</div></td></tr><tr><td><div>08:3e:8e:d9:6a:1d,2c:30:33:e1:cc:11,4,5,56,17,172.217.26.206,192.168.1.189, 443,51496,1358,32189</div></td></tr><tr><td><div>2c:30:33:e1:cc:11,08:3e:8e:d9:6a:1d,4,5,64,17,192.168.1.189,172.217.26.206, 51496,443,46,29289</div></td></tr><tr><td><div>08:3e:8e:d9:6a:1d,2c:30:33:e1:cc:11,4,5,56,17,172.217.26.206,192.168.1.189, 443,51496,1358,2775</div></td></tr><tr><td><div>08:3e:8e:d9:6a:1d,2c:30:33:e1:cc:11,4,5,56,17,172.217.26.206,192.168.1.189, 443,51496,1358,25524</div></td></tr><tr><td><div>2c:30:33:e1:cc:11,08:3e:8e:d9:6a:1d,4,5,64,17,192.168.1.189,172.217.26.206, 51496,443,46,51321</div></td></tr><tr><td><div>08:3e:8e:d9:6a:1d,2c:30:33:e1:cc:11,4,5,56,17,172.217.26.206,192.168.1.189, 443,51496,1358,28569</div></td></tr><tr><td><div>08:3e:8e:d9:6a:1d,2c:30:33:e1:cc:11,4,5,56,17,172.217.26.206,192.168.1.189, 443,51496,1358,13339</div></td></tr><tr><td><div>2c:30:33:e1:cc:11,08:3e:8e:d9:6a:1d,4,5,64,17,192.168.1.189,172.217.26.206, 51496,443,46,54245</div></td></tr><tr><td><div>08:3e:8e:d9:6a:1d,2c:30:33:e1:cc:11,4,5,56,17,172.217.26.206,192.168.1.189, 443,51496,1358,46964</div></td></tr><tr><td><div>08:3e:8e:d9:6a:1d,2c:30:33:e1:cc:11,4,5,56,17,172.217.26.206,192.168.1.189, 443,51496,1358,23849</div></td></tr><tr><td><div>2c:30:33:e1:cc:11,08:3e:8e:d9:6a:1d,4,5,64,17,192.168.1.189,172.217.26.206, 51496,443,46,61920</div></td></tr><tr><td><div>08:3e:8e:d9:6a:1d,2c:30:33:e1:cc:11,4,5,56,17,172.217.26.206,192.168.1.189, 443,51496,1358,65437</div></td></tr><tr><td><div>08:3e:8e:d9:6a:1d,2c:30:33:e1:cc:11,4,5,56,17,172.217.26.206,192.168.1.189, 443,51496,1358,2955</div></td></tr><tr><td><div>2c:30:33:e1:cc:11,08:3e:8e:d9:6a:1d,4,5,64,17,192.168.1.189,172.217.26.206, 51496,443,46,56647</div></td></tr><tr><td><div>08:3e:8e:d9:6a:1d,2c:30:33:e1:cc:11,4,5,56,17,172.217.26.206,192.168.1.189, 443,51496,1358,61671</div></td></tr><tr><td><div>08:3e:8e:d9:6a:1d,2c:30:33:e1:cc:11,4,5,56,17,172.217.26.206,192.168.1.189, 443,51496,1358,61205</div></td></tr><tr><td><div>08:3e:8e:d9:6a:1d,2c:30:33:e1:cc:11,4,5,56,17,172.217.26.206,192.168.1.189, 443,51496,1358,54505</div></td></tr><tr><td><div>08:3e:8e:d9:6a:1d,2c:30:33:e1:cc:11,4,5,56,17,172.217.26.206,192.168.1.189, 443,51496,1358,14217</div></td></tr><tr><td><div>08:3e:8e:d9:6a:1d,2c:30:33:e1:cc:11,4,5,56,17,172.217.26.206,192.168.1.189, 443,51496,1358,47315</div></td></tr><tr><td><div>08:3e:8e:d9:6a:1d,2c:30:33:e1:cc:11,4,5,56,17,172.217.26.206,192.168.1.189, 443,51496,1358,12708</div></td></tr><tr><td><div>08:3e:8e:d9:6a:1d,2c:30:33:e1:cc:11,4,5,56,17,172.217.26.206,192.168.1.189, 443,51496,1358,36564</div></td></tr><tr><td><div>2c:30:33:e1:cc:11,08:3e:8e:d9:6a:1d,4,5,64,17,192.168.1.189,172.217.26.206, 51496,443,46,32138</div></td></tr><tr><td><div>2c:30:33:e1:cc:11,08:3e:8e:d9:6a:1d,4,5,64,17,192.168.1.189,172.217.26.206, 51496,443,46,59015</div></td></tr><tr><td><div>2c:30:33:e1:cc:11,08:3e:8e:d9:6a:1d,4,5,64,17,192.168.1.189,172.217.26.206, 51496,443,46,57963</div></td></tr><tr><td><div>08:3e:8e:d9:6a:1d,2c:30:33:e1:cc:11,4,5,56,17,172.217.26.206,192.168.1.189, 443,51496,298,19138</div></td></tr><tr><td><div>2c:30:33:e1:cc:11,08:3e:8e:d9:6a:1d,4,5,64,17,192.168.1.189,172.217.26.206, 51496,443,46,48698</div></td></tr><tr><td><div>08:3e:8e:d9:6a:1d,2c:30:33:e1:cc:11,4,5,56,17,172.217.26.206,192.168.1.189, 443,51496,1358,62190</div></td></tr><tr><td><div>08:3e:8e:d9:6a:1d,2c:30:33:e1:cc:11,4,5,56,17,172.217.26.206,192.168.1.189, 443,51496,1358,26716</div></td></tr><tr><td><div>08:3e:8e:d9:6a:1d,2c:30:33:e1:cc:11,4,5,56,17,172.217.26.206,192.168.1.189, 443,51496,1358,26031</div></td></tr><tr><td><div>2c:30:33:e1:cc:11,08:3e:8e:d9:6a:1d,4,5,64,17,192.168.1.189,172.217.26.206, 51496,443,46,54171</div></td></tr><tr><td><div>08:3e:8e:d9:6a:1d,2c:30:33:e1:cc:11,4,5,56,17,172.217.26.206,192.168.1.189, 443,51496,1358,1223</div></td></tr><tr><td><div>2c:30:33:e1:cc:11,08:3e:8e:d9:6a:1d,4,5,64,17,192.168.1.189,172.217.26.206, 51496,443,46,57989</div></td></tr><tr><td><div>08:3e:8e:d9:6a:1d,2c:30:33:e1:cc:11,4,5,56,17,172.217.26.206,192.168.1.189, 443,51496,1358,10850</div></td></tr><tr><td><div>08:3e:8e:d9:6a:1d,2c:30:33:e1:cc:11,4,5,56,17,172.217.26.206,192.168.1.189, 443,51496,1358,60459</div></td></tr><tr><td><div>08:3e:8e:d9:6a:1d,2c:30:33:e1:cc:11,4,5,56,17,172.217.26.206,192.168.1.189, 443,51496,1358,13044</div></td></tr><tr><td><div>08:3e:8e:d9:6a:1d,2c:30:33:e1:cc:11,4,5,56,17,172.217.26.206,192.168.1.189, 443,51496,1358,16733</div></td></tr><tr><td><div>2c:30:33:e1:cc:11,08:3e:8e:d9:6a:1d,4,5,64,17,192.168.1.189,172.217.26.206, 51496,443,46,11165</div></td></tr><tr><td><div>2c:30:33:e1:cc:11,08:3e:8e:d9:6a:1d,4,5,64,17,192.168.1.189,172.217.26.206, 51496,443,46,58638</div></td></tr><tr><td><div>08:3e:8e:d9:6a:1d,2c:30:33:e1:cc:11,4,5,56,17,172.217.26.206,192.168.1.189, 443,51496,1358,55223</div></td></tr><tr><td><div>08:3e:8e:d9:6a:1d,2c:30:33:e1:cc:11,4,5,56,17,172.217.26.206,192.168.1.189, 443,51496,1358,57946</div></td></tr><tr><td><div>2c:30:33:e1:cc:11,08:3e:8e:d9:6a:1d,4,5,64,17,192.168.1.189,172.217.26.206, 51496,443,46,21373</div></td></tr><tr><td><div>08:3e:8e:d9:6a:1d,2c:30:33:e1:cc:11,4,5,56,17,172.217.26.206,192.168.1.189, 443,51496,458,5877</div></td></tr><tr><td><div>2c:30:33:e1:cc:11,08:3e:8e:d9:6a:1d,4,5,64,17,192.168.1.189,172.217.26.206, 51496,443,43,33820</div></td></tr><tr><td><div>2c:30:33:e1:cc:11,08:3e:8e:d9:6a:1d,4,5,64,6,192.168.1.189,216.58.197.67,43553, 443 , 3918478747 , 1809622631 , 8</div></td></tr><tr><td><div>08:3e:8e:d9:6a:1d,2c:30:33:e1:cc:11,4,5,56,6,216.58.197.67,192.168.1.189,443, 43553 , 1809622631 , 3918478748 , 8</div></td></tr><tr><td><div>2c:30:33:e1:cc:11,08:3e:8e:d9:6a:1d,4,5,64,17,192.168.1.189,172.217.26.206, 40150,443,346,54269</div></td></tr><tr><td><div>08:3e:8e:d9:6a:1d,2c:30:33:e1:cc:11,4,5,56,17,172.217.26.206,192.168.1.189, 443,40150,1358,14322</div></td></tr><tr><td><div>08:3e:8e:d9:6a:1d,2c:30:33:e1:cc:11,4,5,56,17,172.217.26.206,192.168.1.189, 443,40150,1358,18734</div></td></tr><tr><td><div>08:3e:8e:d9:6a:1d,2c:30:33:e1:cc:11,4,5,56,17,172.217.26.206,192.168.1.189, 443,40150,1358,39094</div></td></tr><tr><td><div>08:3e:8e:d9:6a:1d,2c:30:33:e1:cc:11,4,5,56,17,172.217.26.206,192.168.1.189, 443,40150,1358,24745</div></td></tr><tr><td><div>08:3e:8e:d9:6a:1d,2c:30:33:e1:cc:11,4,5,56,17,172.217.26.206,192.168.1.189, 443,40150,1358,57323</div></td></tr><tr><td><div>08:3e:8e:d9:6a:1d,2c:30:33:e1:cc:11,4,5,56,17,172.217.26.206,192.168.1.189, 443,40150,1358,47405</div></td></tr><tr><td><div>08:3e:8e:d9:6a:1d,2c:30:33:e1:cc:11,4,5,56,17,172.217.26.206,192.168.1.189, 443,40150,1358,41877</div></td></tr><tr><td><div>08:3e:8e:d9:6a:1d,2c:30:33:e1:cc:11,4,5,56,17,172.217.26.206,192.168.1.189, 443,40150,1358,33864</div></td></tr><tr><td><div>08:3e:8e:d9:6a:1d,2c:30:33:e1:cc:11,4,5,56,17,172.217.26.206,192.168.1.189, 443,40150,710,30979</div></td></tr><tr><td><div>08:3e:8e:d9:6a:1d,2c:30:33:e1:cc:11,4,5,56,17,172.217.26.206,192.168.1.189, 443,40150,1342,14815</div></td></tr><tr><td><div>08:3e:8e:d9:6a:1d,2c:30:33:e1:cc:11,4,5,56,17,172.217.26.206,192.168.1.189, 443,40150,1358,11621</div></td></tr><tr><td><div>08:3e:8e:d9:6a:1d,2c:30:33:e1:cc:11,4,5,56,17,172.217.26.206,192.168.1.189, 443,40150,1358,52238</div></td></tr><tr><td><div>08:3e:8e:d9:6a:1d,2c:30:33:e1:cc:11,4,5,56,17,172.217.26.206,192.168.1.189, 443,40150,1358,33331</div></td></tr><tr><td><div>2c:30:33:e1:cc:11,08:3e:8e:d9:6a:1d,4,5,64,17,192.168.1.189,172.217.26.206, 40150,443,49,50015</div></td></tr><tr><td><div>2c:30:33:e1:cc:11,08:3e:8e:d9:6a:1d,4,5,64,17,192.168.1.189,172.217.26.206, 40150,443,46,394</div></td></tr><tr><td><div>2c:30:33:e1:cc:11,08:3e:8e:d9:6a:1d,4,5,64,17,192.168.1.189,172.217.26.206, 40150,443,46,21828</div></td></tr><tr><td><div>2c:30:33:e1:cc:11,08:3e:8e:d9:6a:1d,4,5,64,17,192.168.1.189,172.217.26.206, 40150,443,46,15283</div></td></tr><tr><td><div>2c:30:33:e1:cc:11,08:3e:8e:d9:6a:1d,4,5,64,17,192.168.1.189,172.217.26.206, 40150,443,46,9181</div></td></tr><tr><td><div>2c:30:33:e1:cc:11,08:3e:8e:d9:6a:1d,4,5,64,17,192.168.1.189,172.217.26.206, 40150,443,46,18798</div></td></tr><tr><td><div>2c:30:33:e1:cc:11,08:3e:8e:d9:6a:1d,4,5,64,17,192.168.1.189,172.217.26.206, 40150,443,43,50510</div></td></tr><tr><td><div>2c:30:33:e1:cc:11,08:3e:8e:d9:6a:1d,4,5,64,17,192.168.1.189,172.217.26.206, 40150,443,157,36921</div></td></tr><tr><td><div>2c:30:33:e1:cc:11,08:3e:8e:d9:6a:1d,4,5,64,17,192.168.1.189,172.217.26.206, 40150,443,158,44413</div></td></tr><tr><td><div>2c:30:33:e1:cc:11,08:3e:8e:d9:6a:1d,4,5,64,17,192.168.1.189,172.217.26.206, 40150,443,157,51789</div></td></tr><tr><td><div>2c:30:33:e1:cc:11,08:3e:8e:d9:6a:1d,4,5,64,17,192.168.1.189,172.217.26.206, 40150,443,157,11740</div></td></tr><tr><td><div>2c:30:33:e1:cc:11,08:3e:8e:d9:6a:1d,4,5,64,17,192.168.1.189,172.217.26.206, 40150,443,157,37124</div></td></tr><tr><td><div>2c:30:33:e1:cc:11,08:3e:8e:d9:6a:1d,4,5,64,17,192.168.1.189,172.217.26.206, 40150,443,168,5211</div></td></tr><tr><td><div>2c:30:33:e1:cc:11,08:3e:8e:d9:6a:1d,4,5,64,17,192.168.1.189,172.217.26.206, 40150,443,163,21608</div></td></tr><tr><td><div>08:3e:8e:d9:6a:1d,2c:30:33:e1:cc:11,4,5,56,17,172.217.26.206,192.168.1.189, 443,40150,59,14075</div></td></tr><tr><td><div>08:3e:8e:d9:6a:1d,2c:30:33:e1:cc:11,4,5,56,17,172.217.26.206,192.168.1.189, 443,40150,38,3497</div></td></tr><tr><td><div>08:3e:8e:d9:6a:1d,2c:30:33:e1:cc:11,4,5,56,17,172.217.26.206,192.168.1.189, 443,40150,1358,28079</div></td></tr><tr><td><div>08:3e:8e:d9:6a:1d,2c:30:33:e1:cc:11,4,5,56,17,172.217.26.206,192.168.1.189, 443,40150,1358,49781</div></td></tr><tr><td><div>08:3e:8e:d9:6a:1d,2c:30:33:e1:cc:11,4,5,56,17,172.217.26.206,192.168.1.189, 443,40150,1358,41277</div></td></tr><tr><td><div>2c:30:33:e1:cc:11,08:3e:8e:d9:6a:1d,4,5,64,17,192.168.1.189,172.217.26.206, 40150,443,52,58501</div></td></tr><tr><td><div>08:3e:8e:d9:6a:1d,2c:30:33:e1:cc:11,4,5,56,17,172.217.26.206,192.168.1.189, 443,40150,1358,63385</div></td></tr><tr><td><div>2c:30:33:e1:cc:11,08:3e:8e:d9:6a:1d,4,5,64,17,192.168.1.189,172.217.26.206, 40150,443,46,59401</div></td></tr><tr><td><div>08:3e:8e:d9:6a:1d,2c:30:33:e1:cc:11,4,5,56,17,172.217.26.206,192.168.1.189, 443,40150,1358,9079</div></td></tr><tr><td><div>08:3e:8e:d9:6a:1d,2c:30:33:e1:cc:11,4,5,56,17,172.217.26.206,192.168.1.189, 443,40150,1358,49996</div></td></tr><tr><td><div>2c:30:33:e1:cc:11,08:3e:8e:d9:6a:1d,4,5,64,17,192.168.1.189,172.217.26.206, 40150,443,46,9713</div></td></tr><tr><td><div>08:3e:8e:d9:6a:1d,2c:30:33:e1:cc:11,4,5,56,17,172.217.26.206,192.168.1.189, 443,40150,1358,54240</div></td></tr></table></div></td></tr><tr><td style="font-weight:bold;vertical-align:top;">b</td><td style="vertical-align:top;">:</td><td><div><table><tr><td><div><table><tr><td><div>1</div></td></tr><tr><td><div>0</div></td></tr><tr><td><div>0</div></td></tr><tr><td><div>0</div></td></tr></table></div></td></tr><tr><td><div><table><tr><td><div>2</div></td></tr><tr><td><div>0</div></td></tr><tr><td><div>0</div></td></tr><tr><td><div>0</div></td></tr></table></div></td></tr><tr><td><div><table><tr><td><div>3</div></td></tr><tr><td><div>0</div></td></tr><tr><td><div>0</div></td></tr><tr><td><div>0</div></td></tr></table></div></td></tr><tr><td><div><table><tr><td><div>4</div></td></tr><tr><td><div>0</div></td></tr><tr><td><div>1</div></td></tr><tr><td><div>0</div></td></tr></table></div></td></tr><tr><td><div><table><tr><td><div>5</div></td></tr><tr><td><div>0</div></td></tr><tr><td><div>1</div></td></tr><tr><td><div>0</div></td></tr></table></div></td></tr><tr><td><div><table><tr><td><div>6</div></td></tr><tr><td><div>0</div></td></tr><tr><td><div>0</div></td></tr><tr><td><div>0</div></td></tr></table></div></td></tr><tr><td><div><table><tr><td><div>7</div></td></tr><tr><td><div>0</div></td></tr><tr><td><div>0</div></td></tr><tr><td><div>0</div></td></tr></table></div></td></tr><tr><td><div><table><tr><td><div>8</div></td></tr><tr><td><div>0</div></td></tr><tr><td><div>0</div></td></tr><tr><td><div>0</div></td></tr></table></div></td></tr><tr><td><div><table><tr><td><div>9</div></td></tr><tr><td><div>0</div></td></tr><tr><td><div>0</div></td></tr><tr><td><div>0</div></td></tr></table></div></td></tr><tr><td><div><table><tr><td><div>10</div></td></tr><tr><td><div>0</div></td></tr><tr><td><div>0</div></td></tr><tr><td><div>0</div></td></tr></table></div></td></tr><tr><td><div><table><tr><td><div>11</div></td></tr><tr><td><div>0</div></td></tr><tr><td><div>0</div></td></tr><tr><td><div>0</div></td></tr></table></div></td></tr><tr><td><div><table><tr><td><div>12</div></td></tr><tr><td><div>0</div></td></tr><tr><td><div>0</div></td></tr><tr><td><div>0</div></td></tr></table></div></td></tr><tr><td><div><table><tr><td><div>13</div></td></tr><tr><td><div>0</div></td></tr><tr><td><div>2</div></td></tr><tr><td><div>0</div></td></tr></table></div></td></tr><tr><td><div><table><tr><td><div>14</div></td></tr><tr><td><div>0</div></td></tr><tr><td><div>1</div></td></tr><tr><td><div>0</div></td></tr></table></div></td></tr><tr><td><div><table><tr><td><div>15</div></td></tr><tr><td><div>17</div></td></tr><tr><td><div>11</div></td></tr><tr><td><div>0</div></td></tr></table></div></td></tr><tr><td><div><table><tr><td><div>16</div></td></tr><tr><td><div>0</div></td></tr><tr><td><div>2</div></td></tr><tr><td><div>0</div></td></tr></table></div></td></tr><tr><td><div><table><tr><td><div>17</div></td></tr><tr><td><div>5</div></td></tr><tr><td><div>22</div></td></tr><tr><td><div>0</div></td></tr></table></div></td></tr><tr><td><div><table><tr><td><div>18</div></td></tr><tr><td><div>12</div></td></tr><tr><td><div>0</div></td></tr><tr><td><div>0</div></td></tr></table></div></td></tr><tr><td><div><table><tr><td><div>19</div></td></tr><tr><td><div>0</div></td></tr><tr><td><div>1</div></td></tr><tr><td><div>0</div></td></tr></table></div></td></tr><tr><td><div><table><tr><td><div>20</div></td></tr><tr><td><div>0</div></td></tr><tr><td><div>0</div></td></tr><tr><td><div>0</div></td></tr></table></div></td></tr><tr><td><div><table><tr><td><div>21</div></td></tr><tr><td><div>0</div></td></tr><tr><td><div>0</div></td></tr><tr><td><div>0</div></td></tr></table></div></td></tr><tr><td><div><table><tr><td><div>22</div></td></tr><tr><td><div>0</div></td></tr><tr><td><div>5</div></td></tr><tr><td><div>0</div></td></tr></table></div></td></tr><tr><td><div><table><tr><td><div>23</div></td></tr><tr><td><div>0</div></td></tr><tr><td><div>1</div></td></tr><tr><td><div>0</div></td></tr></table></div></td></tr><tr><td><div><table><tr><td><div>24</div></td></tr><tr><td><div>0</div></td></tr><tr><td><div>1</div></td></tr><tr><td><div>0</div></td></tr></table></div></td></tr><tr><td><div><table><tr><td><div>25</div></td></tr><tr><td><div>0</div></td></tr><tr><td><div>1</div></td></tr><tr><td><div>0</div></td></tr></table></div></td></tr><tr><td><div><table><tr><td><div>26</div></td></tr><tr><td><div>0</div></td></tr><tr><td><div>5</div></td></tr><tr><td><div>0</div></td></tr></table></div></td></tr><tr><td><div><table><tr><td><div>27</div></td></tr><tr><td><div>0</div></td></tr><tr><td><div>29</div></td></tr><tr><td><div>0</div></td></tr></table></div></td></tr><tr><td><div><table><tr><td><div>28</div></td></tr><tr><td><div>0</div></td></tr><tr><td><div>1</div></td></tr><tr><td><div>0</div></td></tr></table></div></td></tr><tr><td><div><table><tr><td><div>29</div></td></tr><tr><td><div>0</div></td></tr><tr><td><div>0</div></td></tr><tr><td><div>0</div></td></tr></table></div></td></tr><tr><td><div><table><tr><td><div>30</div></td></tr><tr><td><div>0</div></td></tr><tr><td><div>0</div></td></tr><tr><td><div>0</div></td></tr></table></div></td></tr><tr><td><div><table><tr><td><div>31</div></td></tr><tr><td><div>17</div></td></tr><tr><td><div>18</div></td></tr><tr><td><div>0</div></td></tr></table></div></td></tr><tr><td><div><table><tr><td><div>32</div></td></tr><tr><td><div>0</div></td></tr><tr><td><div>87</div></td></tr><tr><td><div>0</div></td></tr></table></div></td></tr><tr><td><div><table><tr><td><div>33</div></td></tr><tr><td><div>0</div></td></tr><tr><td><div>42</div></td></tr><tr><td><div>0</div></td></tr></table></div></td></tr><tr><td><div><table><tr><td><div>34</div></td></tr><tr><td><div>8</div></td></tr><tr><td><div>49</div></td></tr><tr><td><div>0</div></td></tr></table></div></td></tr><tr><td><div><table><tr><td><div>35</div></td></tr><tr><td><div>13</div></td></tr><tr><td><div>86</div></td></tr><tr><td><div>0</div></td></tr></table></div></td></tr><tr><td><div><table><tr><td><div>36</div></td></tr><tr><td><div>2</div></td></tr><tr><td><div>15</div></td></tr><tr><td><div>0</div></td></tr></table></div></td></tr><tr><td><div><table><tr><td><div>37</div></td></tr><tr><td><div>0</div></td></tr><tr><td><div>5</div></td></tr><tr><td><div>0</div></td></tr></table></div></td></tr></table></div></td></tr><tr><td style="font-weight:bold;vertical-align:top;">c</td><td style="vertical-align:top;">:</td><td><div>0</div></td></tr></table></div>'
tRp138
sS'etype'
p139
S"<type 'exceptions.ImportError'>"
p140
sS'date'
p141
S'Sat Nov 26 03:42:05 2016'
p142
sS'response'
p143
g57
(S's\x90\x1d\x00\x00<div><table><tr><td style="font-weight:bold;vertical-align:top;">body</td><td style="vertical-align:top;">:</td><td><div>&lt;cStringIO.StringO object at 0x7fce2eb74688&gt;</div></td></tr><tr><td style="font-weight:bold;vertical-align:top;">cookies</td><td style="vertical-align:top;">:</td><td><div><table><tr><td style="font-weight:bold;vertical-align:top;">session_id_sniffer</td><td style="vertical-align:top;">:</td><td><div>127.0.0.1-ff44cfb1-a268-4381-8576-ff9dfa264a2d<table><tr><td style="font-weight:bold;vertical-align:top;">comment</td><td style="vertical-align:top;">:</td><td><div></div></td></tr><tr><td style="font-weight:bold;vertical-align:top;">domain</td><td style="vertical-align:top;">:</td><td><div></div></td></tr><tr><td style="font-weight:bold;vertical-align:top;">expires</td><td style="vertical-align:top;">:</td><td><div></div></td></tr><tr><td style="font-weight:bold;vertical-align:top;">httponly</td><td style="vertical-align:top;">:</td><td><div></div></td></tr><tr><td style="font-weight:bold;vertical-align:top;">max-age</td><td style="vertical-align:top;">:</td><td><div></div></td></tr><tr><td style="font-weight:bold;vertical-align:top;">path</td><td style="vertical-align:top;">:</td><td><div>/</div></td></tr><tr><td style="font-weight:bold;vertical-align:top;">secure</td><td style="vertical-align:top;">:</td><td><div></div></td></tr><tr><td style="font-weight:bold;vertical-align:top;">version</td><td style="vertical-align:top;">:</td><td><div></div></td></tr></table></div></td></tr></table></div></td></tr><tr><td style="font-weight:bold;vertical-align:top;">delimiters</td><td style="vertical-align:top;">:</td><td><div><table><tr><td><div>{{</div></td></tr><tr><td><div>}}</div></td></tr></table></div></td></tr><tr><td style="font-weight:bold;vertical-align:top;">files</td><td style="vertical-align:top;">:</td><td><div><table></table></div></td></tr><tr><td style="font-weight:bold;vertical-align:top;">flash</td><td style="vertical-align:top;">:</td><td><div></div></td></tr><tr><td style="font-weight:bold;vertical-align:top;">form_label_separator</td><td style="vertical-align:top;">:</td><td><div></div></td></tr><tr><td style="font-weight:bold;vertical-align:top;">formstyle</td><td style="vertical-align:top;">:</td><td><div>bootstrap3_inline</div></td></tr><tr><td style="font-weight:bold;vertical-align:top;">generic_patterns</td><td style="vertical-align:top;">:</td><td><div><table><tr><td><div>*</div></td></tr></table></div></td></tr><tr><td style="font-weight:bold;vertical-align:top;">google_analytics_id</td><td style="vertical-align:top;">:</td><td><div>None</div></td></tr><tr><td style="font-weight:bold;vertical-align:top;">headers</td><td style="vertical-align:top;">:</td><td><div><table><tr><td style="font-weight:bold;vertical-align:top;">X-Powered-By</td><td style="vertical-align:top;">:</td><td><div>web2py</div></td></tr></table></div></td></tr><tr><td style="font-weight:bold;vertical-align:top;">logo</td><td style="vertical-align:top;">:</td><td><div><a class="navbar-brand" href="http://www.web2py.com/" id="web2py-logo"><b>web<span>2</span>py</b>&trade;&nbsp;</a></div></td></tr><tr><td style="font-weight:bold;vertical-align:top;">menu</td><td style="vertical-align:top;">:</td><td><div><table><tr><td><div><table><tr><td><div>Sniff</div></td></tr><tr><td><div>False</div></td></tr><tr><td><div>/sniffer/default/index</div></td></tr><tr><td><div><table></table></div></td></tr></table></div></td></tr></table></div></td></tr><tr><td style="font-weight:bold;vertical-align:top;">meta</td><td style="vertical-align:top;">:</td><td><div><table><tr><td style="font-weight:bold;vertical-align:top;">author</td><td style="vertical-align:top;">:</td><td><div>Your Name &lt;you@example.com&gt;</div></td></tr><tr><td style="font-weight:bold;vertical-align:top;">description</td><td style="vertical-align:top;">:</td><td><div>a cool new app</div></td></tr><tr><td style="font-weight:bold;vertical-align:top;">generator</td><td style="vertical-align:top;">:</td><td><div>Web2py Web Framework</div></td></tr><tr><td style="font-weight:bold;vertical-align:top;">keywords</td><td style="vertical-align:top;">:</td><td><div><table><tr><td><div>web2py</div></td></tr><tr><td><div>python</div></td></tr><tr><td><div>framework</div></td></tr></table></div></td></tr></table></div></td></tr><tr><td style="font-weight:bold;vertical-align:top;">models_to_run</td><td style="vertical-align:top;">:</td><td><div><table><tr><td><div>^\\w+\\.py$</div></td></tr><tr><td><div>^default/\\w+\\.py$</div></td></tr><tr><td><div>^default/snif/\\w+\\.py$</div></td></tr></table></div></td></tr><tr><td style="font-weight:bold;vertical-align:top;">postprocessing</td><td style="vertical-align:top;">:</td><td><div><table></table></div></td></tr><tr><td style="font-weight:bold;vertical-align:top;">session_client</td><td style="vertical-align:top;">:</td><td><div>127.0.0.1</div></td></tr><tr><td style="font-weight:bold;vertical-align:top;">session_cookie_compression_level</td><td style="vertical-align:top;">:</td><td><div>None</div></td></tr><tr><td style="font-weight:bold;vertical-align:top;">session_cookie_expires</td><td style="vertical-align:top;">:</td><td><div>None</div></td></tr><tr><td style="font-weight:bold;vertical-align:top;">session_data_name</td><td style="vertical-align:top;">:</td><td><div>session_data_sniffer</div></td></tr><tr><td style="font-weight:bold;vertical-align:top;">session_file</td><td style="vertical-align:top;">:</td><td><div>&lt;open file &#x27;/home/preethi/Downloads/web2py/applications/sniffer/sessions/060/08e/127.0.0.1-ff44cfb1-a268-4381-8576-ff9dfa264a2d&#x27;, mode &#x27;rb+&#x27; at 0x7fce6c96b6f0&gt;</div></td></tr><tr><td style="font-weight:bold;vertical-align:top;">session_filename</td><td style="vertical-align:top;">:</td><td><div>/home/preethi/Downloads/web2py/applications/sniffer/sessions/127.0.0.1-ff44cfb1-a268-4381-8576-ff9dfa264a2d</div></td></tr><tr><td style="font-weight:bold;vertical-align:top;">session_hash</td><td style="vertical-align:top;">:</td><td><div>b8666d5b0905d78adb82fecda956af45</div></td></tr><tr><td style="font-weight:bold;vertical-align:top;">session_id</td><td style="vertical-align:top;">:</td><td><div>127.0.0.1-ff44cfb1-a268-4381-8576-ff9dfa264a2d</div></td></tr><tr><td style="font-weight:bold;vertical-align:top;">session_id_name</td><td style="vertical-align:top;">:</td><td><div>session_id_sniffer</div></td></tr><tr><td style="font-weight:bold;vertical-align:top;">session_locked</td><td style="vertical-align:top;">:</td><td><div>True</div></td></tr><tr><td style="font-weight:bold;vertical-align:top;">session_masterapp</td><td style="vertical-align:top;">:</td><td><div>sniffer</div></td></tr><tr><td style="font-weight:bold;vertical-align:top;">session_new</td><td style="vertical-align:top;">:</td><td><div>False</div></td></tr><tr><td style="font-weight:bold;vertical-align:top;">session_storage_type</td><td style="vertical-align:top;">:</td><td><div>file</div></td></tr><tr><td style="font-weight:bold;vertical-align:top;">status</td><td style="vertical-align:top;">:</td><td><div>200</div></td></tr><tr><td style="font-weight:bold;vertical-align:top;">subtitle</td><td style="vertical-align:top;">:</td><td><div></div></td></tr><tr><td style="font-weight:bold;vertical-align:top;">title</td><td style="vertical-align:top;">:</td><td><div>Sniffer</div></td></tr><tr><td style="font-weight:bold;vertical-align:top;">view</td><td style="vertical-align:top;">:</td><td><div>default/snif.html</div></td></tr></table></div>'
tRp144
sS'locals'
p145
(dp146
S'fromlist'
p147
S"('loads', 'dumps')"
p148
sS'modules_prefix'
p149
S"'applications.sniffer.modules'"
p150
sS'name'
p151
S"'simplejson'"
p152
sS'level'
p153
S'-1'
p154
sS'items'
p155
S"['', 'home', 'preethi', 'Downloads', 'web2py', 'applications', 'sniffer']"
p156
sS'base_importer'
p157
S'<built-in function __import__>'
p158
sS'globals'
p159
S"{'A': <class 'gluon.html.A'>, 'ANY_OF': <class 'gluon.validators.ANY_OF'>, 'ASSIGNJS': <function ASSIGNJS>, 'AppConfig': <function AppConfig>, 'Auth': <class 'gluon.tools.Auth'>, 'B': <class 'gluon.html.B'>, 'BEAUTIFY': <class 'gluon.html.BEAUTIFY'>, 'BODY': <class 'gluon.html.BODY'>, 'BR': <class 'gluon.html.BR'>, 'BUTTON': <class 'gluon.html.BUTTON'>, ...}"
p160
sS'pname'
p161
S"'applications.sniffer.modules.simplejson'"
p162
sS'e3'
p163
S"ImportError('No module named simplejson',)"
p164
sS'e1'
p165
S"ImportError('No module named simplejson',)"
p166
sS'import_tb'
p167
S'None'
p168
sg145
S"{'A': <class 'gluon.html.A'>, 'ANY_OF': <class 'gluon.validators.ANY_OF'>, 'ASSIGNJS': <function ASSIGNJS>, 'AppConfig': <function AppConfig>, 'Auth': <class 'gluon.tools.Auth'>, 'B': <class 'gluon.html.B'>, 'BEAUTIFY': <class 'gluon.html.BEAUTIFY'>, 'BODY': <class 'gluon.html.BODY'>, 'BR': <class 'gluon.html.BR'>, 'BUTTON': <class 'gluon.html.BUTTON'>, ...}"
p169
sS'oname'
p170
S"'simplejson'"
p171
sssS'traceback'
p172
S'Traceback (most recent call last):\n  File "/home/preethi/Downloads/web2py/gluon/restricted.py", line 227, in restricted\n    exec ccode in environment\n  File "/home/preethi/Downloads/web2py/applications/sniffer/controllers/default.py", line 9, in <module>\n    from simplejson import loads, dumps\n  File "/home/preethi/Downloads/web2py/gluon/custom_import.py", line 95, in custom_importer\n    return base_importer(pname, globals, locals, fromlist, level)\nImportError: No module named simplejson\n'
p173
s.