(dp1
S'output'
p2
S"<type 'exceptions.TypeError'> 'in <string>' requires string as left operand, not list"
p3
sS'layer'
p4
S'/home/preethi/Downloads/web2py/applications/sniffer/controllers/default.py'
p5
sS'code'
p6
S'import socket\nfrom struct import *\nimport datetime\nimport pcapy,time\nimport sys\nimport thread\nimport threading\nimport subprocess,signal\nfrom pcapy import open_live, findalldevs, PcapError\nimport time\n#from pcapy import findalldevs,open_live\n#from impacket import ImpactDecoder, ImpactPacket\n#from impacket.ImpactDecoder import *\n\n\n\n\nc_tcp = 0\nc_udp = 0\nc_icmp = 0\npackets = []\ngraph_data = [[]]\n\n\n\ndef index():\n    #sniffer()\\\n    devices = pcapy.findalldevs()\n    form = SQLFORM.factory(Field(\'interface\', requires=IS_IN_SET(tuple(devices)),widget=SQLFORM.widgets.radio.widget))\n    if form.process().accepted:\n        redirect(URL(\'start\',vars = {\'interface\':form.vars.interface}))\n    return locals()\n\n\n\ndef sniffer(interf):\n\t\n    \tglobal packets\n    \t#pc = pcap.pcap()\n\tpromiscuous = True\n\tcap = pcapy.open_live(interf , 65536 , promiscuous ,100)\n\n\t#packet_limit = -1 # infinite\n    \t#cap.loop(packet_limit, parse_packet)\n\t#count=9\n    \trow = db(db.stopFlag.id == 1).select()\n\t   \t\n\tflag = row[0].flagval\n\tt1 = (str(time.time()).split(\'.\'))[0]\n    \ttcp = 0\n    \tudp = 0\n    \ticmp = 0\n\tcount=0\n\twhile flag< 200:\n            \tt2 = (str(time.time()).split(\'.\'))[0]\n            \ttry:\n\t\t\tprint "difference is :" + str(int(t2) -int(t1))\n\t\t\tif (int(t2) -int(t1) >= 1):\n\t\t\t\tcount = count + 1\n\t\t\t\ttemp = [(count) , tcp , udp , icmp]\n\t\t\t\tgraph_data.append(temp)\n                \t\tsession.b = graph_data\n\t\t\t\tprint "***************************************"\n                \t\tprint str(tcp) + \',\' + str(udp) + \',\' + str(icmp)\n\t\t\t\tt1 = (str(time.time()).split(\'.\'))[0]\n\t\t\t\tglobal c_tcp\n\t\t\t\tc_tcp = c_tcp + tcp\n\t\t\t\tglobal c_udp\t\t\t\t\n\t\t\t\tc_udp = c_udp + udp\n\t\t\t\tglobal c_icmp\t\t\t\t\n\t\t\t\tc_icmp = c_icmp + icmp\n\t\t\t\ttcp = 0\n\t\t\t\tudp = 0\n\t\t\t\ticmp = 0\n\n\t\t\telse:\n\t\t\t\tprint "chose to capture packet"\n\t\t\t\t(header,packet) = cap.next()\n\t\t\t\t\n\t\t\t\t#count = count+1\n                \t        typ = parse_packet(header,packet)\n              \t\t\tprint "current packet type :" + str(typ)\n\t\t\t\tif typ== \'tcp\':\n\t\t\t\t\ttcp=tcp+1\n\t\t\t\tif typ== \'udp\':\n\t\t\t\t\tudp=udp+1\n\t\t\t\tif typ== \'icmp\':\n\t\t\t\t\ticmp=icmp+1\t\t\t\t\n\t\t\t\tprint "this packets t1 and t2 :" + str(t2) + \',\' + str(t1)\n\t\t\t\n\t\t\t\n                \t\tflag = flag+1    \t\n                except socket.timeout:\n\t\t\tprint "pass"\n                        pass\n\t\t\n\tprint packets\n    \tsession.a = packets\n        \n\n\tprint str(tcp) + \',\' + str(udp) + \',\' + str(icmp)\n\n        return locals()\n\ndef eth_addr (a) :\n\tb = "%.2x:%.2x:%.2x:%.2x:%.2x:%.2x" % (ord(a[0]) , ord(a[1]) , ord(a[2]), ord(a[3]), ord(a[4]) , ord(a[5]))\n\treturn b\n\n#function to parse a packet\ndef parse_packet(hdr,packet) :\n\tglobal packets\n    \ttyp = \'none\'\n\teth_length = 14\n\teth_header = packet[:eth_length]\n\teth = unpack(\'!6s6sH\' , eth_header)\n\teth_protocol = socket.ntohs(eth[2])\n\t#print \'Destination MAC : \' + eth_addr(packet[0:6]) + \' Source MAC : \' + eth_addr(packet[6:12]) + \' Protocol : \' + str(eth_protocol)\n        dest_mac = str(eth_addr(packet[0:6]))\n        src_mac =  str(eth_addr(packet[6:12]))\n\t#Parse IP packets, IP Protocol number = 8\n    \tif eth_protocol == 8 :\n\t\t#Parse IP header\n\t\t#take first 20 characters for the ip header\n\t\tip_header = packet[eth_length:20+eth_length]\n\t\t#now unpack them :)\n\t\tiph = unpack(\'!BBHHHBBH4s4s\' , ip_header)\n\t\tversion_ihl = iph[0]\n\t\tversion = version_ihl >> 4\n\t\tihl = version_ihl & 0xF\n\n\t\tiph_length = ihl * 4\n\n\t\tttl = iph[5]\n\t\tprotocol = iph[6]\n\t\ts_addr = socket.inet_ntoa(iph[8]);\n\t\td_addr = socket.inet_ntoa(iph[9]);\n\n\t\t#print \'Version : \' + str(version) + \' IP Header Length : \' + str(ihl) + \' TTL : \' + str(ttl) + \' Protocol : \' + str(protocol) + \' Source Address : \' + str(s_addr) + \' Destination Address : \' + str(d_addr)\n        \tstring = dest_mac + \',\' + src_mac + \',\' + str(version) + \',\' + str(ihl) + \',\' + str(ttl) + \',\' + str(protocol) + \',\' + str(s_addr) + \',\' + str(d_addr)\n\t\t#TCP protocol\n\t\tif protocol == 6 :\n\t\t\tt = iph_length + eth_length\n\t\t\ttcp_header = packet[t:t+20]\n\n\t\t\t#now unpack them :)\n\t\t\ttcph = unpack(\'!HHLLBBHHH\' , tcp_header)\n\t\t\tsource_port = tcph[0]\n\t\t\tdest_port = tcph[1]\n\t\t\tsequence = tcph[2]\n\t\t\tacknowledgement = tcph[3]\n\t\t\tdoff_reserved = tcph[4]\n\t\t\ttcph_length = doff_reserved >> 4\n\t\t\t#print \'Source Port : \' + str(source_port) + \' Dest Port : \' + str(dest_port) + \' Sequence Number : \' + str(sequence) + \' Acknowledgement : \' + str(acknowledgement) + \' TCP header length : \' + str(tcph_length)\n\n\t\t\tstring = string + \',\' +  str(source_port) + \', \' + str(dest_port) + \' , \' + str(sequence) + \' , \' + str(acknowledgement) + \' , \' + str(tcph_length)\n            \t\ttyp = \'tcp\'\n\t\t\th_size = eth_length + iph_length + tcph_length * 4\n\t\t\tdata_size = len(packet) - h_size\n\t\t\t#get data from the packet\n\t\t\tdata = packet[h_size:]\n#\t\t\tprint \'Data : \' + data\n\n\t\t#ICMP Packets\n\t\telif protocol == 1 :\n\t\t\tu = iph_length + eth_length\n\t\t\ticmph_length = 4\n\t\t\ticmp_header = packet[u:u+4]\n\n\t\t\t#now unpack them :)\n\t\t\ticmph = unpack(\'!BBH\' , icmp_header)\n\t\t\ticmp_type = icmph[0]\n\t\t\tcode = icmph[1]\n\t\t\tchecksum = icmph[2]\n\t\t\t#print \'Type : \' + str(icmp_type) + \' Code : \' + str(code) + \' Checksum : \' + str(checksum)\n\t\t\t\n\t\t\tstring = string + \',\' + str(icmp_type) + \',\' + str(code) + \',\' + str(checksum)\n            \t\ttyp = \'icmp\'\n\t\t\th_size = eth_length + iph_length + icmph_length\n\t\t\tdata_size = len(packet) - h_size\n\t\t\t#get data from the packet\n\t\t\tdata = packet[h_size:]\n#\t\t\tprint \'Data : \' + data\n\n\t\t#UDP packets\n\t\telif protocol == 17 :\n\t\t\tu = iph_length + eth_length\n\t\t\tudph_length = 8\n\t\t\tudp_header = packet[u:u+8]\n\n\t\t\t#now unpack them :)\n\t\t\tudph = unpack(\'!HHHH\' , udp_header)\n\t\t\tsource_port = udph[0]\n\t\t\tdest_port = udph[1]\n\t\t\tlength = udph[2]\n\t\t\tchecksum = udph[3]\n\t\t\t#print \'Source Port : \' + str(source_port) + \' Dest Port : \' + str(dest_port) + \' Length : \' + str(length) + \' Checksum : \' + str(checksum)\n\n\t\t\tstring = string + \', \' + str(source_port) + \',\' + str(dest_port) + \',\' + str(length) + \',\' + str(checksum)\t\t\t\n            \t\ttyp = \'udp\'\n\t\t\th_size = eth_length + iph_length + udph_length\n\t\t\tdata_size = len(packet) - h_size\n\t\t\t#get data from the packet\n\t\t\tdata = packet[h_size:]\n#\t\t\tprint \'Data : \' + data\n\n\t\t#some other IP packet like IGMP\n\t\telse :\n\t\t\tprint \'Protocol other than TCP/UDP/ICMP\'\n\t\tpackets.append(string)\n\n    \telse:\n    \t\tprint "none"\n\n        return typ\n\ndef start() :\n    interface = request.vars.interface\n    print "**********************"+interface + "*************"\n    db(db.stopFlag.id == 1 ).update(flagval = 0)\n    #thread.start_new_thread(sniffer,(interface,))\n    t1 = threading.Thread(target=sniffer, args=(interface,))\n    t1.start()\n    t1.join()\n    redirect(URL(\'show_pack\',vars = {} ))\n\n    \n    print "workng"\n    return locals()\n\ndef stop():\n    print "******** stop ***********"\n    #db.stopFlag.update_record(flagval=1)\n    #db(db.stopFlag.id == 1 ).update(flagval = 1)\n    return locals()\ndef snif():\n    import json\n    d = "qwe"#session.b\n    print json.dumps(d)\n    if ([]) in d :\n        d.remove([])\n    print "-----------" , d\n    return locals()\n\ndef show_pack():\n    print "showing_packets"\n    \n    x = session.a\n    \n    return locals()\ndef getdata():\n    import json\n    d = "123"#session.b\n    print(d)\n    print json.dumps(d)\n    return json.dumps(d)\n\nresponse._vars=response._caller(snif)\n'
p7
sS'snapshot'
p8
(dp9
S'exception'
p10
(dp11
S'__hash__'
p12
S"<method-wrapper '__hash__' of exceptions.TypeError object>"
p13
sS'__setattr__'
p14
S"<method-wrapper '__setattr__' of exceptions.TypeError object>"
p15
sS'__reduce_ex__'
p16
S'<built-in method __reduce_ex__ of exceptions.TypeError object>'
p17
sS'__getslice__'
p18
S"<method-wrapper '__getslice__' of exceptions.TypeError object>"
p19
sS'__getitem__'
p20
S"<method-wrapper '__getitem__' of exceptions.TypeError object>"
p21
sS'__setstate__'
p22
S'<built-in method __setstate__ of exceptions.TypeError object>'
p23
sS'args'
p24
S'("\'in <string>\' requires string as left operand, not list",)'
p25
sS'__reduce__'
p26
S'<built-in method __reduce__ of exceptions.TypeError object>'
p27
sS'__str__'
p28
S"<method-wrapper '__str__' of exceptions.TypeError object>"
p29
sS'__format__'
p30
S'<built-in method __format__ of exceptions.TypeError object>'
p31
sS'__getattribute__'
p32
S"<method-wrapper '__getattribute__' of exceptions.TypeError object>"
p33
sS'__class__'
p34
S"<type 'exceptions.TypeError'>"
p35
sS'__unicode__'
p36
S'<built-in method __unicode__ of exceptions.TypeError object>'
p37
sS'__delattr__'
p38
S"<method-wrapper '__delattr__' of exceptions.TypeError object>"
p39
sS'__subclasshook__'
p40
S'<built-in method __subclasshook__ of type object>'
p41
sS'__repr__'
p42
S"<method-wrapper '__repr__' of exceptions.TypeError object>"
p43
sS'__dict__'
p44
S'{}'
p45
sS'__sizeof__'
p46
S'<built-in method __sizeof__ of exceptions.TypeError object>'
p47
sS'__doc__'
p48
S"'Inappropriate argument type.'"
p49
sS'__init__'
p50
S"<method-wrapper '__init__' of exceptions.TypeError object>"
p51
sS'__new__'
p52
S'<built-in method __new__ of type object>'
p53
ssS'evalue'
p54
S"'in <string>' requires string as left operand, not list"
p55
sS'request'
p56
cgluon.html
XML_unpickle
p57
(S's\xe3`\x00\x00<div><table><tr><td style="font-weight:bold;vertical-align:top;">ajax</td><td style="vertical-align:top;">:</td><td><div>False</div></td></tr><tr><td style="font-weight:bold;vertical-align:top;">application</td><td style="vertical-align:top;">:</td><td><div>sniffer</div></td></tr><tr><td style="font-weight:bold;vertical-align:top;">args</td><td style="vertical-align:top;">:</td><td><div><table></table></div></td></tr><tr><td style="font-weight:bold;vertical-align:top;">cid</td><td style="vertical-align:top;">:</td><td><div>None</div></td></tr><tr><td style="font-weight:bold;vertical-align:top;">client</td><td style="vertical-align:top;">:</td><td><div>127.0.0.1</div></td></tr><tr><td style="font-weight:bold;vertical-align:top;">controller</td><td style="vertical-align:top;">:</td><td><div>default</div></td></tr><tr><td style="font-weight:bold;vertical-align:top;">cookies</td><td style="vertical-align:top;">:</td><td><div><table><tr><td style="font-weight:bold;vertical-align:top;">session_id_admin</td><td style="vertical-align:top;">:</td><td><div>127.0.0.1-bd81298d-4f64-42f9-bf69-fd8926526288<table><tr><td style="font-weight:bold;vertical-align:top;">comment</td><td style="vertical-align:top;">:</td><td><div></div></td></tr><tr><td style="font-weight:bold;vertical-align:top;">domain</td><td style="vertical-align:top;">:</td><td><div></div></td></tr><tr><td style="font-weight:bold;vertical-align:top;">expires</td><td style="vertical-align:top;">:</td><td><div></div></td></tr><tr><td style="font-weight:bold;vertical-align:top;">httponly</td><td style="vertical-align:top;">:</td><td><div></div></td></tr><tr><td style="font-weight:bold;vertical-align:top;">max-age</td><td style="vertical-align:top;">:</td><td><div></div></td></tr><tr><td style="font-weight:bold;vertical-align:top;">path</td><td style="vertical-align:top;">:</td><td><div></div></td></tr><tr><td style="font-weight:bold;vertical-align:top;">secure</td><td style="vertical-align:top;">:</td><td><div></div></td></tr><tr><td style="font-weight:bold;vertical-align:top;">version</td><td style="vertical-align:top;">:</td><td><div></div></td></tr></table></div></td></tr><tr><td style="font-weight:bold;vertical-align:top;">session_id_sniffer</td><td style="vertical-align:top;">:</td><td><div>127.0.0.1-ff44cfb1-a268-4381-8576-ff9dfa264a2d<table><tr><td style="font-weight:bold;vertical-align:top;">comment</td><td style="vertical-align:top;">:</td><td><div></div></td></tr><tr><td style="font-weight:bold;vertical-align:top;">domain</td><td style="vertical-align:top;">:</td><td><div></div></td></tr><tr><td style="font-weight:bold;vertical-align:top;">expires</td><td style="vertical-align:top;">:</td><td><div></div></td></tr><tr><td style="font-weight:bold;vertical-align:top;">httponly</td><td style="vertical-align:top;">:</td><td><div></div></td></tr><tr><td style="font-weight:bold;vertical-align:top;">max-age</td><td style="vertical-align:top;">:</td><td><div></div></td></tr><tr><td style="font-weight:bold;vertical-align:top;">path</td><td style="vertical-align:top;">:</td><td><div></div></td></tr><tr><td style="font-weight:bold;vertical-align:top;">secure</td><td style="vertical-align:top;">:</td><td><div></div></td></tr><tr><td style="font-weight:bold;vertical-align:top;">version</td><td style="vertical-align:top;">:</td><td><div></div></td></tr></table></div></td></tr><tr><td style="font-weight:bold;vertical-align:top;">session_id_urban_traffic</td><td style="vertical-align:top;">:</td><td><div>127.0.0.1-1eee3d26-2ef9-4d2d-b272-87e7bdb9f091<table><tr><td style="font-weight:bold;vertical-align:top;">comment</td><td style="vertical-align:top;">:</td><td><div></div></td></tr><tr><td style="font-weight:bold;vertical-align:top;">domain</td><td style="vertical-align:top;">:</td><td><div></div></td></tr><tr><td style="font-weight:bold;vertical-align:top;">expires</td><td style="vertical-align:top;">:</td><td><div></div></td></tr><tr><td style="font-weight:bold;vertical-align:top;">httponly</td><td style="vertical-align:top;">:</td><td><div></div></td></tr><tr><td style="font-weight:bold;vertical-align:top;">max-age</td><td style="vertical-align:top;">:</td><td><div></div></td></tr><tr><td style="font-weight:bold;vertical-align:top;">path</td><td style="vertical-align:top;">:</td><td><div></div></td></tr><tr><td style="font-weight:bold;vertical-align:top;">secure</td><td style="vertical-align:top;">:</td><td><div></div></td></tr><tr><td style="font-weight:bold;vertical-align:top;">version</td><td style="vertical-align:top;">:</td><td><div></div></td></tr></table></div></td></tr><tr><td style="font-weight:bold;vertical-align:top;">session_id_welcome</td><td style="vertical-align:top;">:</td><td><div>127.0.0.1-6ea3847d-4351-4dae-9c1a-633c674f05ba<table><tr><td style="font-weight:bold;vertical-align:top;">comment</td><td style="vertical-align:top;">:</td><td><div></div></td></tr><tr><td style="font-weight:bold;vertical-align:top;">domain</td><td style="vertical-align:top;">:</td><td><div></div></td></tr><tr><td style="font-weight:bold;vertical-align:top;">expires</td><td style="vertical-align:top;">:</td><td><div></div></td></tr><tr><td style="font-weight:bold;vertical-align:top;">httponly</td><td style="vertical-align:top;">:</td><td><div></div></td></tr><tr><td style="font-weight:bold;vertical-align:top;">max-age</td><td style="vertical-align:top;">:</td><td><div></div></td></tr><tr><td style="font-weight:bold;vertical-align:top;">path</td><td style="vertical-align:top;">:</td><td><div></div></td></tr><tr><td style="font-weight:bold;vertical-align:top;">secure</td><td style="vertical-align:top;">:</td><td><div></div></td></tr><tr><td style="font-weight:bold;vertical-align:top;">version</td><td style="vertical-align:top;">:</td><td><div></div></td></tr></table></div></td></tr></table></div></td></tr><tr><td style="font-weight:bold;vertical-align:top;">env</td><td style="vertical-align:top;">:</td><td><div><table><tr><td style="font-weight:bold;vertical-align:top;">HTTP_ACCEPT</td><td style="vertical-align:top;">:</td><td><div>text/html,application/xhtml+xml,application/xml;q=0.9,image/webp,*/*;q=0.8</div></td></tr><tr><td style="font-weight:bold;vertical-align:top;">HTTP_ACCEPT_ENCODING</td><td style="vertical-align:top;">:</td><td><div>gzip, deflate, sdch</div></td></tr><tr><td style="font-weight:bold;vertical-align:top;">HTTP_ACCEPT_LANGUAGE</td><td style="vertical-align:top;">:</td><td><div>en-US,en;q=0.8</div></td></tr><tr><td style="font-weight:bold;vertical-align:top;">HTTP_CACHE_CONTROL</td><td style="vertical-align:top;">:</td><td><div>max-age=0</div></td></tr><tr><td style="font-weight:bold;vertical-align:top;">HTTP_CONNECTION</td><td style="vertical-align:top;">:</td><td><div>keep-alive</div></td></tr><tr><td style="font-weight:bold;vertical-align:top;">HTTP_COOKIE</td><td style="vertical-align:top;">:</td><td><div>session_id_urban_traffic=127.0.0.1-1eee3d26-2ef9-4d2d-b272-87e7bdb9f091; session_id_welcome=127.0.0.1-6ea3847d-4351-4dae-9c1a-633c674f05ba; session_id_admin=127.0.0.1-bd81298d-4f64-42f9-bf69-fd8926526288; session_id_sniffer=127.0.0.1-ff44cfb1-a268-4381-8576-ff9dfa264a2d</div></td></tr><tr><td style="font-weight:bold;vertical-align:top;">HTTP_HOST</td><td style="vertical-align:top;">:</td><td><div>127.0.0.1:8000</div></td></tr><tr><td style="font-weight:bold;vertical-align:top;">HTTP_UPGRADE_INSECURE_REQUESTS</td><td style="vertical-align:top;">:</td><td><div>1</div></td></tr><tr><td style="font-weight:bold;vertical-align:top;">HTTP_USER_AGENT</td><td style="vertical-align:top;">:</td><td><div>Mozilla/5.0 (X11; Linux x86_64) AppleWebKit/537.36 (KHTML, like Gecko) Chrome/53.0.2785.143 Safari/537.36</div></td></tr><tr><td style="font-weight:bold;vertical-align:top;">PATH_INFO</td><td style="vertical-align:top;">:</td><td><div>/sniffer/default/snif</div></td></tr><tr><td style="font-weight:bold;vertical-align:top;">QUERY_STRING</td><td style="vertical-align:top;">:</td><td><div></div></td></tr><tr><td style="font-weight:bold;vertical-align:top;">REMOTE_ADDR</td><td style="vertical-align:top;">:</td><td><div>127.0.0.1</div></td></tr><tr><td style="font-weight:bold;vertical-align:top;">REMOTE_PORT</td><td style="vertical-align:top;">:</td><td><div>38961</div></td></tr><tr><td style="font-weight:bold;vertical-align:top;">REQUEST_METHOD</td><td style="vertical-align:top;">:</td><td><div>GET</div></td></tr><tr><td style="font-weight:bold;vertical-align:top;">SCRIPT_NAME</td><td style="vertical-align:top;">:</td><td><div></div></td></tr><tr><td style="font-weight:bold;vertical-align:top;">SERVER_NAME</td><td style="vertical-align:top;">:</td><td><div>preethi-SVE1512J6EB</div></td></tr><tr><td style="font-weight:bold;vertical-align:top;">SERVER_PORT</td><td style="vertical-align:top;">:</td><td><div>8000</div></td></tr><tr><td style="font-weight:bold;vertical-align:top;">SERVER_PROTOCOL</td><td style="vertical-align:top;">:</td><td><div>HTTP/1.1</div></td></tr><tr><td style="font-weight:bold;vertical-align:top;">SERVER_SOFTWARE</td><td style="vertical-align:top;">:</td><td><div>Rocket 1.2.6</div></td></tr><tr><td style="font-weight:bold;vertical-align:top;">app_folders</td><td style="vertical-align:top;">:</td><td><div>set([&#x27;/home/preethi/Downloads/web2py/applications/welcome/&#x27;, &#x27;/home/preethi/Downloads/web2py/applications/admin/&#x27;, &#x27;/home/preethi/Downloads/web2py/applications/sniffer/&#x27;])</div></td></tr><tr><td style="font-weight:bold;vertical-align:top;">applications_parent</td><td style="vertical-align:top;">:</td><td><div>/home/preethi/Downloads/web2py</div></td></tr><tr><td style="font-weight:bold;vertical-align:top;">cmd_args</td><td style="vertical-align:top;">:</td><td><div><table></table></div></td></tr><tr><td style="font-weight:bold;vertical-align:top;">cmd_options</td><td style="vertical-align:top;">:</td><td><div>&lt;Values at 0x7f16bf434cb0: {&#x27;verbose&#x27;: False, &#x27;ip&#x27;: &#x27;127.0.0.1&#x27;, &#x27;debuglevel&#x27;: 30, &#x27;with_scheduler&#x27;: False, &#x27;shutdown_timeout&#x27;: 5, &#x27;taskbar&#x27;: False, &#x27;with_coverage&#x27;: False, &#x27;pid_filename&#x27;: &#x27;httpserver.pid&#x27;, &#x27;maxthreads&#x27;: 6, &#x27;softcron&#x27;: False, &#x27;server_name&#x27;: &#x27;preethi-SVE1512J6EB&#x27;, &#x27;bpython&#x27;: False, &#x27;nogui&#x27;: False, &#x27;port&#x27;: 8000, &#x27;print_errors&#x27;: False, &#x27;extcron&#x27;: False, &#x27;runcron&#x27;: False, &#x27;run_system_tests&#x27;: False, &#x27;test&#x27;: None, &#x27;folder&#x27;: &#x27;/home/preethi/Downloads/web2py&#x27;, &#x27;config&#x27;: &#x27;&#x27;, &#x27;minthreads&#x27;: 1, &#x27;shell&#x27;: None, &#x27;run&#x27;: &#x27;&#x27;, &#x27;log_filename&#x27;: &#x27;httpserver.log&#x27;, &#x27;profiler_dir&#x27;: None, &#x27;args&#x27;: [&#x27;&#x27;], &#x27;socket_timeout&#x27;: 5, &#x27;ssl_ca_certificate&#x27;: None, &#x27;scheduler&#x27;: None, &#x27;interfaces&#x27;: None, &#x27;ssl_private_key&#x27;: &#x27;&#x27;, &#x27;gae&#x27;: None, &#x27;password&#x27;: &#x27;******&#x27;, &#x27;request_queue_size&#x27;: 5, &#x27;ssl_certificate&#x27;: &#x27;&#x27;, &#x27;cronjob&#x27;: False, &#x27;numthreads&#x27;: None, &#x27;quiet&#x27;: False, &#x27;import_models&#x27;: False, &#x27;timeout&#x27;: 10, &#x27;plain&#x27;: False, &#x27;nobanner&#x27;: False}&gt;</div></td></tr><tr><td style="font-weight:bold;vertical-align:top;">db_sessions</td><td style="vertical-align:top;">:</td><td><div>set([])</div></td></tr><tr><td style="font-weight:bold;vertical-align:top;">debugging</td><td style="vertical-align:top;">:</td><td><div>True</div></td></tr><tr><td style="font-weight:bold;vertical-align:top;">gluon_parent</td><td style="vertical-align:top;">:</td><td><div>/home/preethi/Downloads/web2py</div></td></tr><tr><td style="font-weight:bold;vertical-align:top;">http_accept</td><td style="vertical-align:top;">:</td><td><div>text/html,application/xhtml+xml,application/xml;q=0.9,image/webp,*/*;q=0.8</div></td></tr><tr><td style="font-weight:bold;vertical-align:top;">http_accept_encoding</td><td style="vertical-align:top;">:</td><td><div>gzip, deflate, sdch</div></td></tr><tr><td style="font-weight:bold;vertical-align:top;">http_accept_language</td><td style="vertical-align:top;">:</td><td><div>en-US,en;q=0.8</div></td></tr><tr><td style="font-weight:bold;vertical-align:top;">http_cache_control</td><td style="vertical-align:top;">:</td><td><div>max-age=0</div></td></tr><tr><td style="font-weight:bold;vertical-align:top;">http_connection</td><td style="vertical-align:top;">:</td><td><div>keep-alive</div></td></tr><tr><td style="font-weight:bold;vertical-align:top;">http_cookie</td><td style="vertical-align:top;">:</td><td><div>session_id_urban_traffic=127.0.0.1-1eee3d26-2ef9-4d2d-b272-87e7bdb9f091; session_id_welcome=127.0.0.1-6ea3847d-4351-4dae-9c1a-633c674f05ba; session_id_admin=127.0.0.1-bd81298d-4f64-42f9-bf69-fd8926526288; session_id_sniffer=127.0.0.1-ff44cfb1-a268-4381-8576-ff9dfa264a2d</div></td></tr><tr><td style="font-weight:bold;vertical-align:top;">http_host</td><td style="vertical-align:top;">:</td><td><div>127.0.0.1:8000</div></td></tr><tr><td style="font-weight:bold;vertical-align:top;">http_upgrade_insecure_requests</td><td style="vertical-align:top;">:</td><td><div>1</div></td></tr><tr><td style="font-weight:bold;vertical-align:top;">http_user_agent</td><td style="vertical-align:top;">:</td><td><div>Mozilla/5.0 (X11; Linux x86_64) AppleWebKit/537.36 (KHTML, like Gecko) Chrome/53.0.2785.143 Safari/537.36</div></td></tr><tr><td style="font-weight:bold;vertical-align:top;">is_jython</td><td style="vertical-align:top;">:</td><td><div>False</div></td></tr><tr><td style="font-weight:bold;vertical-align:top;">is_pypy</td><td style="vertical-align:top;">:</td><td><div>False</div></td></tr><tr><td style="font-weight:bold;vertical-align:top;">is_source</td><td style="vertical-align:top;">:</td><td><div>True</div></td></tr><tr><td style="font-weight:bold;vertical-align:top;">local_hosts</td><td style="vertical-align:top;">:</td><td><div><table><tr><td><div>::1</div></td></tr><tr><td><div>127.0.1.1</div></td></tr><tr><td><div>::ffff:127.0.0.1</div></td></tr><tr><td><div>127.0.0.1</div></td></tr><tr><td><div>preethi-SVE1512J6EB</div></td></tr></table></div></td></tr><tr><td style="font-weight:bold;vertical-align:top;">path_info</td><td style="vertical-align:top;">:</td><td><div>/sniffer/default/snif</div></td></tr><tr><td style="font-weight:bold;vertical-align:top;">query_string</td><td style="vertical-align:top;">:</td><td><div></div></td></tr><tr><td style="font-weight:bold;vertical-align:top;">remote_addr</td><td style="vertical-align:top;">:</td><td><div>127.0.0.1</div></td></tr><tr><td style="font-weight:bold;vertical-align:top;">remote_port</td><td style="vertical-align:top;">:</td><td><div>38961</div></td></tr><tr><td style="font-weight:bold;vertical-align:top;">request_method</td><td style="vertical-align:top;">:</td><td><div>GET</div></td></tr><tr><td style="font-weight:bold;vertical-align:top;">request_uri</td><td style="vertical-align:top;">:</td><td><div>/sniffer/default/snif</div></td></tr><tr><td style="font-weight:bold;vertical-align:top;">script_name</td><td style="vertical-align:top;">:</td><td><div></div></td></tr><tr><td style="font-weight:bold;vertical-align:top;">server_name</td><td style="vertical-align:top;">:</td><td><div>preethi-SVE1512J6EB</div></td></tr><tr><td style="font-weight:bold;vertical-align:top;">server_port</td><td style="vertical-align:top;">:</td><td><div>8000</div></td></tr><tr><td style="font-weight:bold;vertical-align:top;">server_protocol</td><td style="vertical-align:top;">:</td><td><div>HTTP/1.1</div></td></tr><tr><td style="font-weight:bold;vertical-align:top;">server_software</td><td style="vertical-align:top;">:</td><td><div>Rocket 1.2.6</div></td></tr><tr><td style="font-weight:bold;vertical-align:top;">web2py_path</td><td style="vertical-align:top;">:</td><td><div>/home/preethi/Downloads/web2py</div></td></tr><tr><td style="font-weight:bold;vertical-align:top;">web2py_version</td><td style="vertical-align:top;">:</td><td><div>2.14.6-stable+timestamp.2016.05.10.00.21.47</div></td></tr><tr><td style="font-weight:bold;vertical-align:top;">wsgi.errors</td><td style="vertical-align:top;">:</td><td><div>&lt;open file &#x27;&lt;stderr&gt;&#x27;, mode &#x27;w&#x27; at 0x7f16c68b11e0&gt;</div></td></tr><tr><td style="font-weight:bold;vertical-align:top;">wsgi.file_wrapper</td><td style="vertical-align:top;">:</td><td><div>&lt;class wsgiref.util.FileWrapper at 0x7f16bf4d48d8&gt;</div></td></tr><tr><td style="font-weight:bold;vertical-align:top;">wsgi.input</td><td style="vertical-align:top;">:</td><td><div>&lt;socket._fileobject object at 0x7f16bc1008d0&gt;</div></td></tr><tr><td style="font-weight:bold;vertical-align:top;">wsgi.multiprocess</td><td style="vertical-align:top;">:</td><td><div>False</div></td></tr><tr><td style="font-weight:bold;vertical-align:top;">wsgi.multithread</td><td style="vertical-align:top;">:</td><td><div>True</div></td></tr><tr><td style="font-weight:bold;vertical-align:top;">wsgi.run_once</td><td style="vertical-align:top;">:</td><td><div>False</div></td></tr><tr><td style="font-weight:bold;vertical-align:top;">wsgi.url_scheme</td><td style="vertical-align:top;">:</td><td><div>http</div></td></tr><tr><td style="font-weight:bold;vertical-align:top;">wsgi.version</td><td style="vertical-align:top;">:</td><td><div><table><tr><td><div>1</div></td></tr><tr><td><div>0</div></td></tr></table></div></td></tr><tr><td style="font-weight:bold;vertical-align:top;">wsgi_errors</td><td style="vertical-align:top;">:</td><td><div>&lt;open file &#x27;&lt;stderr&gt;&#x27;, mode &#x27;w&#x27; at 0x7f16c68b11e0&gt;</div></td></tr><tr><td style="font-weight:bold;vertical-align:top;">wsgi_file_wrapper</td><td style="vertical-align:top;">:</td><td><div>&lt;class wsgiref.util.FileWrapper at 0x7f16bf4d48d8&gt;</div></td></tr><tr><td style="font-weight:bold;vertical-align:top;">wsgi_input</td><td style="vertical-align:top;">:</td><td><div>&lt;socket._fileobject object at 0x7f16bc1008d0&gt;</div></td></tr><tr><td style="font-weight:bold;vertical-align:top;">wsgi_multiprocess</td><td style="vertical-align:top;">:</td><td><div>False</div></td></tr><tr><td style="font-weight:bold;vertical-align:top;">wsgi_multithread</td><td style="vertical-align:top;">:</td><td><div>True</div></td></tr><tr><td style="font-weight:bold;vertical-align:top;">wsgi_run_once</td><td style="vertical-align:top;">:</td><td><div>False</div></td></tr><tr><td style="font-weight:bold;vertical-align:top;">wsgi_url_scheme</td><td style="vertical-align:top;">:</td><td><div>http</div></td></tr><tr><td style="font-weight:bold;vertical-align:top;">wsgi_version</td><td style="vertical-align:top;">:</td><td><div><table><tr><td><div>1</div></td></tr><tr><td><div>0</div></td></tr></table></div></td></tr></table></div></td></tr><tr><td style="font-weight:bold;vertical-align:top;">extension</td><td style="vertical-align:top;">:</td><td><div>html</div></td></tr><tr><td style="font-weight:bold;vertical-align:top;">folder</td><td style="vertical-align:top;">:</td><td><div>/home/preethi/Downloads/web2py/applications/sniffer/</div></td></tr><tr><td style="font-weight:bold;vertical-align:top;">function</td><td style="vertical-align:top;">:</td><td><div>snif</div></td></tr><tr><td style="font-weight:bold;vertical-align:top;">global_settings</td><td style="vertical-align:top;">:</td><td><div><table><tr><td style="font-weight:bold;vertical-align:top;">app_folders</td><td style="vertical-align:top;">:</td><td><div>set([&#x27;/home/preethi/Downloads/web2py/applications/welcome/&#x27;, &#x27;/home/preethi/Downloads/web2py/applications/admin/&#x27;, &#x27;/home/preethi/Downloads/web2py/applications/sniffer/&#x27;])</div></td></tr><tr><td style="font-weight:bold;vertical-align:top;">applications_parent</td><td style="vertical-align:top;">:</td><td><div>/home/preethi/Downloads/web2py</div></td></tr><tr><td style="font-weight:bold;vertical-align:top;">cmd_args</td><td style="vertical-align:top;">:</td><td><div><table></table></div></td></tr><tr><td style="font-weight:bold;vertical-align:top;">cmd_options</td><td style="vertical-align:top;">:</td><td><div>&lt;Values at 0x7f16bf434cb0: {&#x27;verbose&#x27;: False, &#x27;ip&#x27;: &#x27;127.0.0.1&#x27;, &#x27;debuglevel&#x27;: 30, &#x27;with_scheduler&#x27;: False, &#x27;shutdown_timeout&#x27;: 5, &#x27;taskbar&#x27;: False, &#x27;with_coverage&#x27;: False, &#x27;pid_filename&#x27;: &#x27;httpserver.pid&#x27;, &#x27;maxthreads&#x27;: 6, &#x27;softcron&#x27;: False, &#x27;server_name&#x27;: &#x27;preethi-SVE1512J6EB&#x27;, &#x27;bpython&#x27;: False, &#x27;nogui&#x27;: False, &#x27;port&#x27;: 8000, &#x27;print_errors&#x27;: False, &#x27;extcron&#x27;: False, &#x27;runcron&#x27;: False, &#x27;run_system_tests&#x27;: False, &#x27;test&#x27;: None, &#x27;folder&#x27;: &#x27;/home/preethi/Downloads/web2py&#x27;, &#x27;config&#x27;: &#x27;&#x27;, &#x27;minthreads&#x27;: 1, &#x27;shell&#x27;: None, &#x27;run&#x27;: &#x27;&#x27;, &#x27;log_filename&#x27;: &#x27;httpserver.log&#x27;, &#x27;profiler_dir&#x27;: None, &#x27;args&#x27;: [&#x27;&#x27;], &#x27;socket_timeout&#x27;: 5, &#x27;ssl_ca_certificate&#x27;: None, &#x27;scheduler&#x27;: None, &#x27;interfaces&#x27;: None, &#x27;ssl_private_key&#x27;: &#x27;&#x27;, &#x27;gae&#x27;: None, &#x27;password&#x27;: &#x27;******&#x27;, &#x27;request_queue_size&#x27;: 5, &#x27;ssl_certificate&#x27;: &#x27;&#x27;, &#x27;cronjob&#x27;: False, &#x27;numthreads&#x27;: None, &#x27;quiet&#x27;: False, &#x27;import_models&#x27;: False, &#x27;timeout&#x27;: 10, &#x27;plain&#x27;: False, &#x27;nobanner&#x27;: False}&gt;</div></td></tr><tr><td style="font-weight:bold;vertical-align:top;">db_sessions</td><td style="vertical-align:top;">:</td><td><div>set([])</div></td></tr><tr><td style="font-weight:bold;vertical-align:top;">debugging</td><td style="vertical-align:top;">:</td><td><div>True</div></td></tr><tr><td style="font-weight:bold;vertical-align:top;">gluon_parent</td><td style="vertical-align:top;">:</td><td><div>/home/preethi/Downloads/web2py</div></td></tr><tr><td style="font-weight:bold;vertical-align:top;">is_jython</td><td style="vertical-align:top;">:</td><td><div>False</div></td></tr><tr><td style="font-weight:bold;vertical-align:top;">is_pypy</td><td style="vertical-align:top;">:</td><td><div>False</div></td></tr><tr><td style="font-weight:bold;vertical-align:top;">is_source</td><td style="vertical-align:top;">:</td><td><div>True</div></td></tr><tr><td style="font-weight:bold;vertical-align:top;">local_hosts</td><td style="vertical-align:top;">:</td><td><div><table><tr><td><div>::1</div></td></tr><tr><td><div>127.0.1.1</div></td></tr><tr><td><div>::ffff:127.0.0.1</div></td></tr><tr><td><div>127.0.0.1</div></td></tr><tr><td><div>preethi-SVE1512J6EB</div></td></tr></table></div></td></tr><tr><td style="font-weight:bold;vertical-align:top;">web2py_version</td><td style="vertical-align:top;">:</td><td><div>2.14.6-stable+timestamp.2016.05.10.00.21.47</div></td></tr></table></div></td></tr><tr><td style="font-weight:bold;vertical-align:top;">is_https</td><td style="vertical-align:top;">:</td><td><div>False</div></td></tr><tr><td style="font-weight:bold;vertical-align:top;">is_local</td><td style="vertical-align:top;">:</td><td><div>True</div></td></tr><tr><td style="font-weight:bold;vertical-align:top;">is_restful</td><td style="vertical-align:top;">:</td><td><div>False</div></td></tr><tr><td style="font-weight:bold;vertical-align:top;">is_scheduler</td><td style="vertical-align:top;">:</td><td><div>False</div></td></tr><tr><td style="font-weight:bold;vertical-align:top;">is_shell</td><td style="vertical-align:top;">:</td><td><div>False</div></td></tr><tr><td style="font-weight:bold;vertical-align:top;">now</td><td style="vertical-align:top;">:</td><td><div>datetime.datetime(2016, 11, 26, 5, 34, 42, 693801)</div></td></tr><tr><td style="font-weight:bold;vertical-align:top;">raw_args</td><td style="vertical-align:top;">:</td><td><div></div></td></tr><tr><td style="font-weight:bold;vertical-align:top;">raw_extension</td><td style="vertical-align:top;">:</td><td><div>None</div></td></tr><tr><td style="font-weight:bold;vertical-align:top;">url</td><td style="vertical-align:top;">:</td><td><div>/sniffer/default/snif</div></td></tr><tr><td style="font-weight:bold;vertical-align:top;">utcnow</td><td style="vertical-align:top;">:</td><td><div>datetime.datetime(2016, 11, 26, 0, 4, 42, 693830)</div></td></tr><tr><td style="font-weight:bold;vertical-align:top;">wsgi</td><td style="vertical-align:top;">:</td><td><div>&lt;gluon.main.LazyWSGI object at 0x7f16aeb6ba50&gt;</div></td></tr></table></div>'
tRp58
sS'frames'
p59
(lp60
(dp61
S'file'
p62
S'/home/preethi/Downloads/web2py/gluon/restricted.py'
p63
sS'dump'
p64
(dp65
S'environment'
p66
S"{'A': <class 'gluon.html.A'>, 'ANY_OF': <class 'gluon.validators.ANY_OF'>, 'ASSIGNJS': <function ASSIGNJS>, 'AppConfig': <function AppConfig>, 'Auth': <class 'gluon.tools.Auth'>, 'B': <class 'gluon.html.B'>, 'BEAUTIFY': <class 'gluon.html.BEAUTIFY'>, 'BODY': <class 'gluon.html.BODY'>, 'BR': <class 'gluon.html.BR'>, 'BUTTON': <class 'gluon.html.BUTTON'>, ...}"
p67
sS'ccode'
p68
S'<code object <module> at 0x7f16aeb85f30, file "/...ications/sniffer/controllers/default.py", line 1>'
p69
ssS'lnum'
p70
I227
sS'lines'
p71
(dp72
I224
S'            ccode = code'
p73
sI225
S'        else:'
p74
sI226
S'            ccode = compile2(code, layer)'
p75
sI227
S'        exec ccode in environment'
p76
sI228
S'    except HTTP:'
p77
sI229
S'        raise'
p78
sI230
S'    except RestrictedError:'
p79
sI231
S'        # do not encapsulate (obfuscate) the original RestrictedError'
p80
sI222
S'    try:'
p81
sI223
S'        if isinstance(code, types.CodeType):'
p82
ssS'call'
p83
S"(code='import socket\\nfrom struct import *\\nimport dateti....dumps(d)\\n\\nresponse._vars=response._caller(snif)\\n', environment={'A': <class 'gluon.html.A'>, 'ANY_OF': <class 'gluon.validators.ANY_OF'>, 'ASSIGNJS': <function ASSIGNJS>, 'AppConfig': <function AppConfig>, 'Auth': <class 'gluon.tools.Auth'>, 'B': <class 'gluon.html.B'>, 'BEAUTIFY': <class 'gluon.html.BEAUTIFY'>, 'BODY': <class 'gluon.html.BODY'>, 'BR': <class 'gluon.html.BR'>, 'BUTTON': <class 'gluon.html.BUTTON'>, ...}, layer='/home/preethi/Downloads/web2py/applications/sniffer/controllers/default.py')"
p84
sS'func'
p85
S'restricted'
p86
sa(dp87
g62
S'/home/preethi/Downloads/web2py/applications/sniffer/controllers/default.py'
p88
sg64
(dp89
sg70
I257
sg71
(dp90
I246
S''
sI247
S'    x = session.a'
p91
sI248
S''
sI249
S'    return locals()'
p92
sI250
S'def getdata():'
p93
sI251
S'    import json'
p94
sI252
S'    d = "123"#session.b'
p95
sI253
S'    print(d)'
p96
sI254
S'    print json.dumps(d)'
p97
sI255
S'    return json.dumps(d)'
p98
ssg83
S'()'
p99
sg85
S'<module>'
p100
sa(dp101
g62
S'/home/preethi/Downloads/web2py/gluon/globals.py'
p102
sg64
(dp103
S'self'
p104
S'undefined'
p105
sS'f'
S'<function snif>'
p106
ssg70
I417
sg71
(dp107
I416
S'        self._vars = None'
p108
sI417
S'        self._caller = lambda f: f()'
p109
sI418
S'        self._view_environment = None'
p110
sI419
S'        self._custom_commit = None'
p111
sI420
S'        self._custom_rollback = None'
p112
sI421
S"        self.generic_patterns = ['*']"
p113
sI412
S"        self.flash = ''            # used by the default view layout"
p114
sI413
S'        self.meta = Storage()      # used by web2py_ajax.html'
p115
sI414
S'        self.menu = []             # used by the default view layout'
p116
sI415
S'        self.files = []            # used by web2py_ajax.html'
p117
ssg83
S'(f=<function snif>)'
p118
sg85
S'<lambda>'
p119
sa(dp120
g62
S'/home/preethi/Downloads/web2py/applications/sniffer/controllers/default.py'
p121
sg64
(dp122
S'd'
S"'qwe'"
p123
ssg70
I239
sg71
(dp124
I234
S'    return locals()'
p125
sI235
S'def snif():'
p126
sI236
S'    import json'
p127
sI237
S'    d = "qwe"#session.b'
p128
sI238
S'    print json.dumps(d)'
p129
sI239
S'    if ([]) in d :'
p130
sI240
S'        d.remove([])'
p131
sI241
S'    print "-----------" , d'
p132
sI242
S'    return locals()'
p133
sI243
S''
ssg83
S'()'
p134
sg85
S'snif'
p135
sasS'pyver'
p136
S'Python 2.7.6: /usr/bin/python (prefix: /usr)'
p137
sS'session'
p138
g57
(S's\t\x8d\x00\x00<div><table><tr><td style="font-weight:bold;vertical-align:top;">a</td><td style="vertical-align:top;">:</td><td><div><table><tr><td><div>01:00:5e:00:00:fc,02:20:ac:3b:a3:a3,4,5,1,17,192.168.1.151,224.0.0.252, 59376,5355,50,29236</div></td></tr><tr><td><div>01:00:5e:00:00:fc,02:20:ac:3b:a3:a3,4,5,1,17,192.168.1.151,224.0.0.252, 59376,5355,50,29236</div></td></tr><tr><td><div>01:00:5e:7f:ff:fa,54:35:30:9c:c3:f3,4,5,1,17,192.168.1.27,239.255.255.250, 42103,1900,180,3238</div></td></tr><tr><td><div>01:00:5e:7f:ff:fa,54:35:30:9c:c3:f3,4,5,1,17,192.168.1.27,239.255.255.250, 42103,1900,180,3238</div></td></tr><tr><td><div>08:3e:8e:d9:6a:1d,2c:30:33:e1:cc:11,4,5,47,6,74.125.68.113,192.168.1.189,443, 57804 , 3275934752 , 287496841 , 8</div></td></tr><tr><td><div>08:3e:8e:d9:6a:1d,2c:30:33:e1:cc:11,4,5,47,6,74.125.68.113,192.168.1.189,443, 57804 , 3275934807 , 287496841 , 8</div></td></tr><tr><td><div>2c:30:33:e1:cc:11,08:3e:8e:d9:6a:1d,4,5,64,6,192.168.1.189,74.125.68.113,57804, 443 , 287496841 , 3275934808 , 8</div></td></tr><tr><td><div>08:3e:8e:d9:6a:1d,2c:30:33:e1:cc:11,4,5,47,6,74.125.68.113,192.168.1.189,443, 57804 , 3275934808 , 287496842 , 8</div></td></tr><tr><td><div>01:00:5e:7f:ff:fa,54:35:30:9c:c3:f3,4,5,1,17,192.168.1.27,239.255.255.250, 42103,1900,180,3238</div></td></tr><tr><td><div>01:00:5e:00:00:fb,54:35:30:9c:c3:f3,4,5,1,17,192.168.1.27,224.0.0.251, 5353,5353,48,59620</div></td></tr><tr><td><div>01:00:5e:00:00:fb,54:35:30:9c:c3:f3,4,5,1,17,192.168.1.27,224.0.0.251, 5353,5353,48,59620</div></td></tr><tr><td><div>01:00:5e:7f:ff:fa,54:35:30:9c:c3:f3,4,5,1,17,192.168.1.27,239.255.255.250, 42103,1900,180,3238</div></td></tr><tr><td><div>01:00:5e:00:00:fb,54:35:30:9c:c3:f3,4,5,1,17,192.168.1.27,224.0.0.251, 5353,5353,48,59620</div></td></tr><tr><td><div>01:00:5e:00:00:fb,54:35:30:9c:c3:f3,4,5,1,17,192.168.1.27,224.0.0.251, 5353,5353,48,59620</div></td></tr><tr><td><div>2c:30:33:e1:cc:11,08:3e:8e:d9:6a:1d,4,5,64,6,192.168.1.189,192.229.237.25,50188, 80 , 1225124168 , 3182821914 , 8</div></td></tr><tr><td><div>2c:30:33:e1:cc:11,08:3e:8e:d9:6a:1d,4,5,64,6,192.168.1.189,192.229.237.25,50189, 80 , 2171189047 , 887415604 , 8</div></td></tr><tr><td><div>08:3e:8e:d9:6a:1d,2c:30:33:e1:cc:11,4,5,58,6,192.229.237.25,192.168.1.189,80, 50188 , 3182821914 , 1225124169 , 8</div></td></tr><tr><td><div>2c:30:33:e1:cc:11,08:3e:8e:d9:6a:1d,4,5,64,6,192.168.1.189,192.229.237.25,50188, 80 , 1225124169 , 3182821915 , 8</div></td></tr><tr><td><div>08:3e:8e:d9:6a:1d,2c:30:33:e1:cc:11,4,5,58,6,192.229.237.25,192.168.1.189,80, 50189 , 887415604 , 2171189048 , 8</div></td></tr><tr><td><div>2c:30:33:e1:cc:11,08:3e:8e:d9:6a:1d,4,5,64,6,192.168.1.189,192.229.237.25,50189, 80 , 2171189048 , 887415605 , 8</div></td></tr><tr><td><div>01:00:5e:00:00:fb,54:35:30:9c:c3:f3,4,5,1,17,192.168.1.27,224.0.0.251, 5353,5353,48,59620</div></td></tr><tr><td><div>01:00:5e:00:00:fb,54:35:30:9c:c3:f3,4,5,1,17,192.168.1.27,224.0.0.251, 5353,5353,48,59620</div></td></tr><tr><td><div>08:3e:8e:d9:6a:1d,2c:30:33:e1:cc:11,4,5,46,6,216.58.212.131,192.168.1.189,443, 48833 , 3753947185 , 996524546 , 8</div></td></tr><tr><td><div>2c:30:33:e1:cc:11,08:3e:8e:d9:6a:1d,4,5,64,6,192.168.1.189,216.58.212.131,48833, 443 , 996524546 , 3753947240 , 8</div></td></tr><tr><td><div>08:3e:8e:d9:6a:1d,2c:30:33:e1:cc:11,4,5,46,6,216.58.212.131,192.168.1.189,443, 48833 , 3753947240 , 996524546 , 8</div></td></tr><tr><td><div>2c:30:33:e1:cc:11,08:3e:8e:d9:6a:1d,4,5,64,6,192.168.1.189,216.58.212.131,48833, 443 , 996524547 , 3753947241 , 8</div></td></tr><tr><td><div>08:3e:8e:d9:6a:1d,2c:30:33:e1:cc:11,4,5,46,6,216.58.212.131,192.168.1.189,443, 48833 , 3753947241 , 996524547 , 8</div></td></tr><tr><td><div>01:00:5e:00:00:fc,02:20:ac:3b:a3:a3,4,5,1,17,192.168.1.151,224.0.0.252, 137,137,58,26365</div></td></tr><tr><td><div>01:00:5e:00:00:fc,02:20:ac:3b:a3:a3,4,5,1,17,192.168.1.151,224.0.0.252, 49991,5355,50,43078</div></td></tr><tr><td><div>01:00:5e:00:00:fc,02:20:ac:3b:a3:a3,4,5,1,17,192.168.1.151,224.0.0.252, 49991,5355,50,43078</div></td></tr><tr><td><div>01:00:5e:00:00:fc,02:20:ac:3b:a3:a3,4,5,1,17,192.168.1.151,224.0.0.252, 137,137,58,26365</div></td></tr><tr><td><div>01:00:5e:00:00:fc,02:20:ac:3b:a3:a3,4,5,1,17,192.168.1.151,224.0.0.252, 137,137,58,26365</div></td></tr><tr><td><div>01:00:5e:7f:ff:fa,54:35:30:9c:c3:f3,4,5,1,17,192.168.1.27,239.255.255.250, 42463,1900,180,2878</div></td></tr><tr><td><div>2c:30:33:e1:cc:11,08:3e:8e:d9:6a:1d,4,5,64,6,192.168.1.189,172.217.26.206,40824, 443 , 3023130704 , 123412657 , 8</div></td></tr><tr><td><div>08:3e:8e:d9:6a:1d,2c:30:33:e1:cc:11,4,5,56,6,172.217.26.206,192.168.1.189,443, 40824 , 123412657 , 3023130705 , 8</div></td></tr><tr><td><div>01:00:5e:7f:ff:fa,54:35:30:9c:c3:f3,4,5,1,17,192.168.1.27,239.255.255.250, 42463,1900,180,2878</div></td></tr><tr><td><div>01:00:5e:7f:ff:fa,54:35:30:9c:c3:f3,4,5,1,17,192.168.1.27,239.255.255.250, 42463,1900,180,2878</div></td></tr><tr><td><div>01:00:5e:7f:ff:fa,54:35:30:9c:c3:f3,4,5,1,17,192.168.1.27,239.255.255.250, 42463,1900,180,2878</div></td></tr><tr><td><div>2c:30:33:e1:cc:11,08:3e:8e:d9:6a:1d,4,5,64,17,192.168.1.189,192.168.1.1, 7749,53,42,43208</div></td></tr><tr><td><div>08:3e:8e:d9:6a:1d,2c:30:33:e1:cc:11,4,5,64,17,192.168.1.1,192.168.1.189, 53,7749,170,25714</div></td></tr><tr><td><div>2c:30:33:e1:cc:11,08:3e:8e:d9:6a:1d,4,5,64,17,192.168.1.189,216.58.220.3, 55936,443,1358,60844</div></td></tr><tr><td><div>2c:30:33:e1:cc:11,08:3e:8e:d9:6a:1d,4,5,64,17,192.168.1.189,216.58.220.3, 55936,443,801,755</div></td></tr><tr><td><div>2c:30:33:e1:cc:11,08:3e:8e:d9:6a:1d,4,5,64,6,192.168.1.189,216.58.220.3,45714, 443 , 323910523 , 0 , 10</div></td></tr><tr><td><div>08:3e:8e:d9:6a:1d,2c:30:33:e1:cc:11,4,5,54,17,216.58.220.3,192.168.1.189, 443,55936,1358,32477</div></td></tr><tr><td><div>2c:30:33:e1:cc:11,08:3e:8e:d9:6a:1d,4,5,64,17,192.168.1.189,216.58.220.3, 55936,443,1358,6560</div></td></tr><tr><td><div>08:3e:8e:d9:6a:1d,2c:30:33:e1:cc:11,4,5,54,17,216.58.220.3,192.168.1.189, 443,55936,1358,20955</div></td></tr><tr><td><div>2c:30:33:e1:cc:11,08:3e:8e:d9:6a:1d,4,5,64,17,192.168.1.189,216.58.220.3, 55936,443,1358,28077</div></td></tr><tr><td><div>2c:30:33:e1:cc:11,08:3e:8e:d9:6a:1d,4,5,64,17,192.168.1.189,216.58.220.3, 55936,443,797,47223</div></td></tr><tr><td><div>08:3e:8e:d9:6a:1d,2c:30:33:e1:cc:11,4,5,54,17,216.58.220.3,192.168.1.189, 443,55936,43,39667</div></td></tr><tr><td><div>08:3e:8e:d9:6a:1d,2c:30:33:e1:cc:11,4,5,54,6,216.58.220.3,192.168.1.189,443, 45714 , 2772138673 , 323910524 , 10</div></td></tr><tr><td><div>2c:30:33:e1:cc:11,08:3e:8e:d9:6a:1d,4,5,64,6,192.168.1.189,216.58.220.3,45714, 443 , 323910524 , 2772138674 , 8</div></td></tr><tr><td><div>2c:30:33:e1:cc:11,08:3e:8e:d9:6a:1d,4,5,64,6,192.168.1.189,216.58.220.3,45714, 443 , 323910524 , 2772138674 , 8</div></td></tr><tr><td><div>08:3e:8e:d9:6a:1d,2c:30:33:e1:cc:11,4,5,54,17,216.58.220.3,192.168.1.189, 443,55936,46,125</div></td></tr><tr><td><div>2c:30:33:e1:cc:11,08:3e:8e:d9:6a:1d,4,5,64,17,192.168.1.189,216.58.220.3, 55936,443,49,34105</div></td></tr><tr><td><div>08:3e:8e:d9:6a:1d,2c:30:33:e1:cc:11,4,5,54,17,216.58.220.3,192.168.1.189, 443,55936,1358,53541</div></td></tr><tr><td><div>08:3e:8e:d9:6a:1d,2c:30:33:e1:cc:11,4,5,54,17,216.58.220.3,192.168.1.189, 443,55936,38,50473</div></td></tr><tr><td><div>08:3e:8e:d9:6a:1d,2c:30:33:e1:cc:11,4,5,54,17,216.58.220.3,192.168.1.189, 443,55936,38,17829</div></td></tr><tr><td><div>08:3e:8e:d9:6a:1d,2c:30:33:e1:cc:11,4,5,54,6,216.58.220.3,192.168.1.189,443, 45714 , 2772138674 , 323911041 , 8</div></td></tr><tr><td><div>08:3e:8e:d9:6a:1d,2c:30:33:e1:cc:11,4,5,54,6,216.58.220.3,192.168.1.189,443, 45714 , 2772138674 , 323911041 , 8</div></td></tr><tr><td><div>2c:30:33:e1:cc:11,08:3e:8e:d9:6a:1d,4,5,64,6,192.168.1.189,216.58.220.3,45714, 443 , 323911041 , 2772138826 , 8</div></td></tr><tr><td><div>2c:30:33:e1:cc:11,08:3e:8e:d9:6a:1d,4,5,64,6,192.168.1.189,216.58.220.3,45714, 443 , 323911041 , 2772138826 , 8</div></td></tr><tr><td><div>2c:30:33:e1:cc:11,08:3e:8e:d9:6a:1d,4,5,64,6,192.168.1.189,216.58.220.3,45714, 443 , 323911241 , 2772138826 , 8</div></td></tr><tr><td><div>2c:30:33:e1:cc:11,08:3e:8e:d9:6a:1d,4,5,64,6,192.168.1.189,216.58.220.3,45714, 443 , 323911286 , 2772138826 , 8</div></td></tr><tr><td><div>2c:30:33:e1:cc:11,08:3e:8e:d9:6a:1d,4,5,64,17,192.168.1.189,216.58.220.3, 55936,443,49,62953</div></td></tr><tr><td><div>2c:30:33:e1:cc:11,08:3e:8e:d9:6a:1d,4,5,64,17,192.168.1.189,216.58.220.3, 55936,443,47,31489</div></td></tr><tr><td><div>08:3e:8e:d9:6a:1d,2c:30:33:e1:cc:11,4,5,54,6,216.58.220.3,192.168.1.189,443, 45714 , 2772138826 , 323911241 , 8</div></td></tr><tr><td><div>2c:30:33:e1:cc:11,08:3e:8e:d9:6a:1d,4,5,64,6,192.168.1.189,216.58.220.3,45714, 443 , 323911362 , 2772138874 , 8</div></td></tr><tr><td><div>08:3e:8e:d9:6a:1d,2c:30:33:e1:cc:11,4,5,54,6,216.58.220.3,192.168.1.189,443, 45714 , 2772138874 , 323911241 , 8</div></td></tr><tr><td><div>2c:30:33:e1:cc:11,08:3e:8e:d9:6a:1d,4,5,64,17,192.168.1.189,216.58.220.3, 55936,443,193,28764</div></td></tr><tr><td><div>08:3e:8e:d9:6a:1d,2c:30:33:e1:cc:11,4,5,54,6,216.58.220.3,192.168.1.189,443, 45714 , 2772138908 , 323911362 , 8</div></td></tr><tr><td><div>08:3e:8e:d9:6a:1d,2c:30:33:e1:cc:11,4,5,54,6,216.58.220.3,192.168.1.189,443, 45714 , 2772138908 , 323911362 , 8</div></td></tr><tr><td><div>2c:30:33:e1:cc:11,08:3e:8e:d9:6a:1d,4,5,64,6,192.168.1.189,216.58.220.3,45714, 443 , 323911392 , 2772138938 , 8</div></td></tr><tr><td><div>08:3e:8e:d9:6a:1d,2c:30:33:e1:cc:11,4,5,54,17,216.58.220.3,192.168.1.189, 443,55936,55,38667</div></td></tr><tr><td><div>08:3e:8e:d9:6a:1d,2c:30:33:e1:cc:11,4,5,54,17,216.58.220.3,192.168.1.189, 443,55936,38,32249</div></td></tr><tr><td><div>2c:30:33:e1:cc:11,08:3e:8e:d9:6a:1d,4,5,64,17,192.168.1.189,216.58.220.3, 55936,443,46,24091</div></td></tr><tr><td><div>08:3e:8e:d9:6a:1d,2c:30:33:e1:cc:11,4,5,54,6,216.58.220.3,192.168.1.189,443, 45714 , 2772138938 , 323911392 , 8</div></td></tr><tr><td><div>08:3e:8e:d9:6a:1d,2c:30:33:e1:cc:11,4,5,54,17,216.58.220.3,192.168.1.189, 443,55936,638,28799</div></td></tr><tr><td><div>2c:30:33:e1:cc:11,08:3e:8e:d9:6a:1d,4,5,64,17,192.168.1.189,216.58.220.3, 55936,443,43,29504</div></td></tr><tr><td><div>01:00:5e:00:00:fc,02:20:ac:3b:a3:a3,4,5,1,17,192.168.1.151,224.0.0.252, 52843,5355,98,37034</div></td></tr><tr><td><div>01:00:5e:00:00:fc,02:20:ac:3b:a3:a3,4,5,1,17,192.168.1.151,224.0.0.252, 52843,5355,98,37034</div></td></tr><tr><td><div>01:00:5e:00:00:fc,02:20:ac:3b:a3:a3,4,5,1,17,192.168.1.151,224.0.0.252, 54458,5355,50,36339</div></td></tr><tr><td><div>01:00:5e:00:00:fc,02:20:ac:3b:a3:a3,4,5,1,17,192.168.1.151,224.0.0.252, 54458,5355,50,36339</div></td></tr><tr><td><div>2c:30:33:e1:cc:11,08:3e:8e:d9:6a:1d,4,5,64,6,192.168.1.189,104.244.42.136,43433, 443 , 4026836272 , 3348740625 , 8</div></td></tr><tr><td><div>08:3e:8e:d9:6a:1d,2c:30:33:e1:cc:11,4,5,42,6,104.244.42.136,192.168.1.189,443, 43433 , 3348740625 , 4026836273 , 8</div></td></tr><tr><td><div>01:00:5e:00:00:fc,02:20:ac:3b:a3:a3,4,5,1,17,192.168.1.151,224.0.0.252, 137,137,58,26360</div></td></tr><tr><td><div>01:00:5e:00:00:fc,02:20:ac:3b:a3:a3,4,5,1,17,192.168.1.151,224.0.0.252, 56170,5355,50,44903</div></td></tr><tr><td><div>01:00:5e:00:00:fc,02:20:ac:3b:a3:a3,4,5,1,17,192.168.1.151,224.0.0.252, 56170,5355,50,44903</div></td></tr><tr><td><div>2c:30:33:e1:cc:11,08:3e:8e:d9:6a:1d,4,5,64,6,192.168.1.189,54.198.236.163,56080, 443 , 2367821031 , 0 , 10</div></td></tr><tr><td><div>2c:30:33:e1:cc:11,08:3e:8e:d9:6a:1d,4,5,64,6,192.168.1.189,54.198.236.163,56081, 443 , 966127223 , 0 , 10</div></td></tr><tr><td><div>08:3e:8e:d9:6a:1d,2c:30:33:e1:cc:11,4,5,42,6,54.198.236.163,192.168.1.189,443, 56080 , 2993368156 , 2367821032 , 10</div></td></tr><tr><td><div>2c:30:33:e1:cc:11,08:3e:8e:d9:6a:1d,4,5,64,6,192.168.1.189,54.198.236.163,56080, 443 , 2367821032 , 2993368157 , 8</div></td></tr><tr><td><div>2c:30:33:e1:cc:11,08:3e:8e:d9:6a:1d,4,5,64,6,192.168.1.189,54.198.236.163,56080, 443 , 2367821032 , 2993368157 , 8</div></td></tr><tr><td><div>08:3e:8e:d9:6a:1d,2c:30:33:e1:cc:11,4,5,42,6,54.198.236.163,192.168.1.189,443, 56081 , 2510321634 , 966127224 , 10</div></td></tr><tr><td><div>2c:30:33:e1:cc:11,08:3e:8e:d9:6a:1d,4,5,64,6,192.168.1.189,54.198.236.163,56081, 443 , 966127224 , 2510321635 , 8</div></td></tr><tr><td><div>08:3e:8e:d9:6a:1d,2c:30:33:e1:cc:11,4,5,42,6,54.198.236.163,192.168.1.189,443, 56080 , 2993368157 , 2367821549 , 8</div></td></tr><tr><td><div>08:3e:8e:d9:6a:1d,2c:30:33:e1:cc:11,4,5,42,6,54.198.236.163,192.168.1.189,443, 56080 , 2993368157 , 2367821549 , 8</div></td></tr><tr><td><div>2c:30:33:e1:cc:11,08:3e:8e:d9:6a:1d,4,5,64,6,192.168.1.189,54.198.236.163,56080, 443 , 2367821549 , 2993368294 , 8</div></td></tr><tr><td><div>2c:30:33:e1:cc:11,08:3e:8e:d9:6a:1d,4,5,64,6,192.168.1.189,54.198.236.163,56080, 443 , 2367821549 , 2993368294 , 8</div></td></tr><tr><td><div>2c:30:33:e1:cc:11,08:3e:8e:d9:6a:1d,4,5,64,6,192.168.1.189,54.198.236.163,56080, 443 , 2367821600 , 2993368294 , 8</div></td></tr><tr><td><div>08:3e:8e:d9:6a:1d,2c:30:33:e1:cc:11,4,5,42,6,54.198.236.163,192.168.1.189,443, 56080 , 2993368294 , 2367822280 , 8</div></td></tr><tr><td><div>08:3e:8e:d9:6a:1d,2c:30:33:e1:cc:11,4,5,42,6,54.198.236.163,192.168.1.189,443, 56080 , 2993368294 , 2367822280 , 8</div></td></tr><tr><td><div>2c:30:33:e1:cc:11,08:3e:8e:d9:6a:1d,4,5,64,6,192.168.1.189,54.198.236.163,56080, 443 , 2367822280 , 2993368483 , 8</div></td></tr><tr><td><div>01:00:5e:00:00:fc,02:20:ac:3b:a3:a3,4,5,1,17,192.168.1.151,224.0.0.252, 137,137,58,26360</div></td></tr><tr><td><div>01:00:5e:00:00:fc,02:20:ac:3b:a3:a3,4,5,1,17,192.168.1.151,224.0.0.252, 137,137,58,26360</div></td></tr><tr><td><div>01:00:5e:7f:ff:fa,08:3e:8e:d9:6a:1d,4,5,1,17,192.168.1.189,239.255.255.250, 55815,1900,180,52852</div></td></tr><tr><td><div>01:00:5e:00:00:fc,02:20:ac:3b:a3:a3,4,5,1,17,192.168.1.151,224.0.0.252, 56624,5355,98,55351</div></td></tr><tr><td><div>01:00:5e:00:00:fb,54:35:30:9c:c3:f3,4,5,255,17,192.168.1.27,224.0.0.251, 5353,5353,149,30414</div></td></tr><tr><td><div>01:00:5e:00:00:fc,02:20:ac:3b:a3:a3,4,5,1,17,192.168.1.151,224.0.0.252, 56624,5355,98,55351</div></td></tr><tr><td><div>01:00:5e:00:00:fc,02:20:ac:3b:a3:a3,4,5,1,17,192.168.1.151,224.0.0.252, 54188,5355,50,57214</div></td></tr><tr><td><div>01:00:5e:7f:ff:fa,08:3e:8e:d9:6a:1d,4,5,1,17,192.168.1.189,239.255.255.250, 55815,1900,180,52852</div></td></tr><tr><td><div>01:00:5e:00:00:fc,02:20:ac:3b:a3:a3,4,5,1,17,192.168.1.151,224.0.0.252, 54188,5355,50,57214</div></td></tr><tr><td><div>01:00:5e:7f:ff:fa,08:3e:8e:d9:6a:1d,4,5,1,17,192.168.1.189,239.255.255.250, 55815,1900,180,52852</div></td></tr><tr><td><div>08:3e:8e:d9:6a:1d,2c:30:33:e1:cc:11,4,5,42,6,54.198.236.163,192.168.1.189,443, 56080 , 2993368483 , 2367822280 , 8</div></td></tr><tr><td><div>2c:30:33:e1:cc:11,08:3e:8e:d9:6a:1d,4,5,64,6,192.168.1.189,54.198.236.163,56080, 443 , 2367822280 , 2993368514 , 8</div></td></tr><tr><td><div>08:3e:8e:d9:6a:1d,2c:30:33:e1:cc:11,4,5,42,6,54.198.236.163,192.168.1.189,443, 56080 , 2993368514 , 2367822280 , 8</div></td></tr><tr><td><div>2c:30:33:e1:cc:11,08:3e:8e:d9:6a:1d,4,5,64,6,192.168.1.189,54.198.236.163,56080, 443 , 2367822280 , 2993368515 , 8</div></td></tr><tr><td><div>01:00:5e:7f:ff:fa,08:3e:8e:d9:6a:1d,4,5,1,17,192.168.1.189,239.255.255.250, 55815,1900,180,52852</div></td></tr><tr><td><div>2c:30:33:e1:cc:11,08:3e:8e:d9:6a:1d,4,5,64,6,192.168.1.189,172.217.26.206,40824, 443 , 3023130704 , 123412657 , 8</div></td></tr><tr><td><div>08:3e:8e:d9:6a:1d,2c:30:33:e1:cc:11,4,5,56,6,172.217.26.206,192.168.1.189,443, 40824 , 123412657 , 3023130705 , 8</div></td></tr><tr><td><div>2c:30:33:e1:cc:11,08:3e:8e:d9:6a:1d,4,5,64,6,192.168.1.189,216.58.220.3,45714, 443 , 323911391 , 2772138938 , 8</div></td></tr><tr><td><div>08:3e:8e:d9:6a:1d,2c:30:33:e1:cc:11,4,5,54,6,216.58.220.3,192.168.1.189,443, 45714 , 2772138938 , 323911392 , 8</div></td></tr><tr><td><div>2c:30:33:e1:cc:11,08:3e:8e:d9:6a:1d,4,5,64,17,192.168.1.189,192.168.1.1, 41181,53,43,6756</div></td></tr><tr><td><div>08:3e:8e:d9:6a:1d,2c:30:33:e1:cc:11,4,5,64,17,192.168.1.1,192.168.1.189, 53,41181,162,4113</div></td></tr><tr><td><div>2c:30:33:e1:cc:11,08:3e:8e:d9:6a:1d,4,5,64,17,192.168.1.189,74.125.68.102, 56768,443,1358,29621</div></td></tr><tr><td><div>2c:30:33:e1:cc:11,08:3e:8e:d9:6a:1d,4,5,64,6,192.168.1.189,54.198.236.163,56080, 443 , 2367822280 , 2993368515 , 8</div></td></tr><tr><td><div>2c:30:33:e1:cc:11,08:3e:8e:d9:6a:1d,4,5,64,6,192.168.1.189,54.198.236.163,56081, 443 , 966127224 , 2510321635 , 8</div></td></tr><tr><td><div>2c:30:33:e1:cc:11,08:3e:8e:d9:6a:1d,4,5,64,6,192.168.1.189,74.125.68.102,44687, 443 , 813241418 , 0 , 10</div></td></tr><tr><td><div>08:3e:8e:d9:6a:1d,2c:30:33:e1:cc:11,4,5,47,17,74.125.68.102,192.168.1.189, 443,56768,1358,23032</div></td></tr><tr><td><div>2c:30:33:e1:cc:11,08:3e:8e:d9:6a:1d,4,5,64,17,192.168.1.189,74.125.68.102, 56768,443,1030,65316</div></td></tr><tr><td><div>2c:30:33:e1:cc:11,08:3e:8e:d9:6a:1d,4,5,64,17,192.168.1.189,74.125.68.102, 56768,443,297,63233</div></td></tr><tr><td><div>08:3e:8e:d9:6a:1d,2c:30:33:e1:cc:11,4,5,47,6,74.125.68.102,192.168.1.189,443, 44687 , 3407751091 , 813241419 , 10</div></td></tr><tr><td><div>2c:30:33:e1:cc:11,08:3e:8e:d9:6a:1d,4,5,64,6,192.168.1.189,74.125.68.102,44687, 443 , 813241419 , 3407751092 , 8</div></td></tr><tr><td><div>2c:30:33:e1:cc:11,08:3e:8e:d9:6a:1d,4,5,64,6,192.168.1.189,74.125.68.102,44687, 443 , 813241419 , 3407751092 , 8</div></td></tr><tr><td><div>08:3e:8e:d9:6a:1d,2c:30:33:e1:cc:11,4,5,47,17,74.125.68.102,192.168.1.189, 443,56768,35,44734</div></td></tr><tr><td><div>2c:30:33:e1:cc:11,08:3e:8e:d9:6a:1d,4,5,64,17,192.168.1.189,74.125.68.102, 56768,443,46,60928</div></td></tr><tr><td><div>08:3e:8e:d9:6a:1d,2c:30:33:e1:cc:11,4,5,47,17,74.125.68.102,192.168.1.189, 443,56768,38,34740</div></td></tr><tr><td><div>08:3e:8e:d9:6a:1d,2c:30:33:e1:cc:11,4,5,47,6,74.125.68.102,192.168.1.189,443, 44687 , 3407751092 , 813241936 , 8</div></td></tr><tr><td><div>08:3e:8e:d9:6a:1d,2c:30:33:e1:cc:11,4,5,47,6,74.125.68.102,192.168.1.189,443, 44687 , 3407751092 , 813241936 , 8</div></td></tr><tr><td><div>2c:30:33:e1:cc:11,08:3e:8e:d9:6a:1d,4,5,64,6,192.168.1.189,74.125.68.102,44687, 443 , 813241936 , 3407751244 , 8</div></td></tr><tr><td><div>2c:30:33:e1:cc:11,08:3e:8e:d9:6a:1d,4,5,64,6,192.168.1.189,74.125.68.102,44687, 443 , 813241936 , 3407751244 , 8</div></td></tr><tr><td><div>2c:30:33:e1:cc:11,08:3e:8e:d9:6a:1d,4,5,64,6,192.168.1.189,74.125.68.102,44687, 443 , 813242136 , 3407751244 , 8</div></td></tr><tr><td><div>2c:30:33:e1:cc:11,08:3e:8e:d9:6a:1d,4,5,64,6,192.168.1.189,74.125.68.102,44687, 443 , 813242181 , 3407751244 , 8</div></td></tr><tr><td><div>08:3e:8e:d9:6a:1d,2c:30:33:e1:cc:11,4,5,47,17,74.125.68.102,192.168.1.189, 443,56768,1358,64473</div></td></tr><tr><td><div>2c:30:33:e1:cc:11,08:3e:8e:d9:6a:1d,4,5,64,17,192.168.1.189,74.125.68.102, 56768,443,46,19145</div></td></tr><tr><td><div>08:3e:8e:d9:6a:1d,2c:30:33:e1:cc:11,4,5,47,6,74.125.68.102,192.168.1.189,443, 44687 , 3407751244 , 813242136 , 8</div></td></tr><tr><td><div>2c:30:33:e1:cc:11,08:3e:8e:d9:6a:1d,4,5,64,6,192.168.1.189,74.125.68.102,44687, 443 , 813242257 , 3407751292 , 8</div></td></tr><tr><td><div>08:3e:8e:d9:6a:1d,2c:30:33:e1:cc:11,4,5,47,6,74.125.68.102,192.168.1.189,443, 44687 , 3407751292 , 813242136 , 8</div></td></tr><tr><td><div>08:3e:8e:d9:6a:1d,2c:30:33:e1:cc:11,4,5,47,6,74.125.68.102,192.168.1.189,443, 44687 , 3407751326 , 813242257 , 8</div></td></tr><tr><td><div>08:3e:8e:d9:6a:1d,2c:30:33:e1:cc:11,4,5,47,6,74.125.68.102,192.168.1.189,443, 44687 , 3407751326 , 813242257 , 8</div></td></tr><tr><td><div>2c:30:33:e1:cc:11,08:3e:8e:d9:6a:1d,4,5,64,6,192.168.1.189,74.125.68.102,44687, 443 , 813242287 , 3407751356 , 8</div></td></tr><tr><td><div>08:3e:8e:d9:6a:1d,2c:30:33:e1:cc:11,4,5,47,6,74.125.68.102,192.168.1.189,443, 44687 , 3407751356 , 813242287 , 8</div></td></tr><tr><td><div>08:3e:8e:d9:6a:1d,2c:30:33:e1:cc:11,4,5,42,6,54.198.236.163,192.168.1.189,443, 56080 , 2993368515 , 2367822281 , 8</div></td></tr><tr><td><div>08:3e:8e:d9:6a:1d,2c:30:33:e1:cc:11,4,5,42,6,54.198.236.163,192.168.1.189,443, 56081 , 2510321635 , 966127225 , 8</div></td></tr><tr><td><div>2c:30:33:e1:cc:11,08:3e:8e:d9:6a:1d,4,5,64,6,192.168.1.189,54.198.236.163,56081, 443 , 966127225 , 2510321636 , 8</div></td></tr><tr><td><div>08:3e:8e:d9:6a:1d,2c:30:33:e1:cc:11,4,5,47,17,74.125.68.102,192.168.1.189, 443,56768,267,50606</div></td></tr><tr><td><div>08:3e:8e:d9:6a:1d,2c:30:33:e1:cc:11,4,5,47,17,74.125.68.102,192.168.1.189, 443,56768,34,65534</div></td></tr><tr><td><div>2c:30:33:e1:cc:11,08:3e:8e:d9:6a:1d,4,5,64,17,192.168.1.189,74.125.68.102, 56768,443,46,21421</div></td></tr><tr><td><div>08:3e:8e:d9:6a:1d,2c:30:33:e1:cc:11,4,5,47,17,74.125.68.102,192.168.1.189, 443,56768,50,57058</div></td></tr><tr><td><div>2c:30:33:e1:cc:11,08:3e:8e:d9:6a:1d,4,5,64,17,192.168.1.189,74.125.68.102, 56768,443,43,38996</div></td></tr><tr><td><div>2c:30:33:e1:cc:11,08:3e:8e:d9:6a:1d,4,5,64,17,192.168.1.189,192.168.1.1, 58457,53,41,51414</div></td></tr><tr><td><div>08:3e:8e:d9:6a:1d,2c:30:33:e1:cc:11,4,5,64,17,192.168.1.1,192.168.1.189, 53,58457,297,3354</div></td></tr><tr><td><div>2c:30:33:e1:cc:11,08:3e:8e:d9:6a:1d,4,5,64,17,192.168.1.189,216.58.212.131, 55375,443,1358,41038</div></td></tr><tr><td><div>2c:30:33:e1:cc:11,08:3e:8e:d9:6a:1d,4,5,64,17,192.168.1.189,216.58.212.131, 55375,443,485,2529</div></td></tr><tr><td><div>08:3e:8e:d9:6a:1d,2c:30:33:e1:cc:11,4,5,46,17,216.58.212.131,192.168.1.189, 443,55375,1358,43529</div></td></tr><tr><td><div>08:3e:8e:d9:6a:1d,2c:30:33:e1:cc:11,4,5,46,17,216.58.212.131,192.168.1.189, 443,55375,38,4666</div></td></tr><tr><td><div>08:3e:8e:d9:6a:1d,2c:30:33:e1:cc:11,4,5,46,17,216.58.212.131,192.168.1.189, 443,55375,212,5007</div></td></tr><tr><td><div>2c:30:33:e1:cc:11,08:3e:8e:d9:6a:1d,4,5,64,17,192.168.1.189,216.58.212.131, 55375,443,49,6061</div></td></tr><tr><td><div>2c:30:33:e1:cc:11,08:3e:8e:d9:6a:1d,4,5,64,6,192.168.1.189,216.58.212.131,48867, 443 , 1956605754 , 0 , 10</div></td></tr><tr><td><div>2c:30:33:e1:cc:11,08:3e:8e:d9:6a:1d,4,5,64,6,192.168.1.189,216.58.212.131,48868, 443 , 3673518311 , 0 , 10</div></td></tr><tr><td><div>08:3e:8e:d9:6a:1d,2c:30:33:e1:cc:11,4,5,46,6,216.58.212.131,192.168.1.189,443, 48867 , 2488334643 , 1956605755 , 10</div></td></tr><tr><td><div>2c:30:33:e1:cc:11,08:3e:8e:d9:6a:1d,4,5,64,6,192.168.1.189,216.58.212.131,48867, 443 , 1956605755 , 2488334644 , 8</div></td></tr><tr><td><div>2c:30:33:e1:cc:11,08:3e:8e:d9:6a:1d,4,5,64,6,192.168.1.189,216.58.212.131,48867, 443 , 1956605755 , 2488334644 , 8</div></td></tr><tr><td><div>08:3e:8e:d9:6a:1d,2c:30:33:e1:cc:11,4,5,46,6,216.58.212.131,192.168.1.189,443, 48868 , 1544810704 , 3673518312 , 10</div></td></tr><tr><td><div>2c:30:33:e1:cc:11,08:3e:8e:d9:6a:1d,4,5,64,6,192.168.1.189,216.58.212.131,48868, 443 , 3673518312 , 1544810705 , 8</div></td></tr><tr><td><div>08:3e:8e:d9:6a:1d,2c:30:33:e1:cc:11,4,5,46,6,216.58.212.131,192.168.1.189,443, 48867 , 2488334643 , 1956605755 , 10</div></td></tr></table></div></td></tr><tr><td style="font-weight:bold;vertical-align:top;">b</td><td style="vertical-align:top;">:</td><td><div><table><tr><td><div><table><tr><td><div>1</div></td></tr><tr><td><div>0</div></td></tr><tr><td><div>0</div></td></tr><tr><td><div>0</div></td></tr></table></div></td></tr><tr><td><div><table><tr><td><div>2</div></td></tr><tr><td><div>0</div></td></tr><tr><td><div>0</div></td></tr><tr><td><div>0</div></td></tr></table></div></td></tr><tr><td><div><table><tr><td><div>3</div></td></tr><tr><td><div>0</div></td></tr><tr><td><div>0</div></td></tr><tr><td><div>0</div></td></tr></table></div></td></tr><tr><td><div><table><tr><td><div>4</div></td></tr><tr><td><div>0</div></td></tr><tr><td><div>0</div></td></tr><tr><td><div>0</div></td></tr></table></div></td></tr><tr><td><div><table><tr><td><div>5</div></td></tr><tr><td><div>0</div></td></tr><tr><td><div>3</div></td></tr><tr><td><div>0</div></td></tr></table></div></td></tr><tr><td><div><table><tr><td><div>6</div></td></tr><tr><td><div>0</div></td></tr><tr><td><div>1</div></td></tr><tr><td><div>0</div></td></tr></table></div></td></tr><tr><td><div><table><tr><td><div>7</div></td></tr><tr><td><div>4</div></td></tr><tr><td><div>1</div></td></tr><tr><td><div>0</div></td></tr></table></div></td></tr><tr><td><div><table><tr><td><div>8</div></td></tr><tr><td><div>0</div></td></tr><tr><td><div>0</div></td></tr><tr><td><div>0</div></td></tr></table></div></td></tr><tr><td><div><table><tr><td><div>9</div></td></tr><tr><td><div>0</div></td></tr><tr><td><div>4</div></td></tr><tr><td><div>0</div></td></tr></table></div></td></tr><tr><td><div><table><tr><td><div>10</div></td></tr><tr><td><div>6</div></td></tr><tr><td><div>1</div></td></tr><tr><td><div>0</div></td></tr></table></div></td></tr><tr><td><div><table><tr><td><div>11</div></td></tr><tr><td><div>0</div></td></tr><tr><td><div>1</div></td></tr><tr><td><div>0</div></td></tr></table></div></td></tr><tr><td><div><table><tr><td><div>12</div></td></tr><tr><td><div>5</div></td></tr><tr><td><div>1</div></td></tr><tr><td><div>0</div></td></tr></table></div></td></tr><tr><td><div><table><tr><td><div>13</div></td></tr><tr><td><div>0</div></td></tr><tr><td><div>0</div></td></tr><tr><td><div>0</div></td></tr></table></div></td></tr><tr><td><div><table><tr><td><div>14</div></td></tr><tr><td><div>0</div></td></tr><tr><td><div>3</div></td></tr><tr><td><div>0</div></td></tr></table></div></td></tr><tr><td><div><table><tr><td><div>15</div></td></tr><tr><td><div>0</div></td></tr><tr><td><div>0</div></td></tr><tr><td><div>0</div></td></tr></table></div></td></tr><tr><td><div><table><tr><td><div>16</div></td></tr><tr><td><div>0</div></td></tr><tr><td><div>0</div></td></tr><tr><td><div>0</div></td></tr></table></div></td></tr><tr><td><div><table><tr><td><div>17</div></td></tr><tr><td><div>0</div></td></tr><tr><td><div>1</div></td></tr><tr><td><div>0</div></td></tr></table></div></td></tr><tr><td><div><table><tr><td><div>18</div></td></tr><tr><td><div>0</div></td></tr><tr><td><div>0</div></td></tr><tr><td><div>0</div></td></tr></table></div></td></tr><tr><td><div><table><tr><td><div>19</div></td></tr><tr><td><div>0</div></td></tr><tr><td><div>0</div></td></tr><tr><td><div>0</div></td></tr></table></div></td></tr><tr><td><div><table><tr><td><div>20</div></td></tr><tr><td><div>0</div></td></tr><tr><td><div>1</div></td></tr><tr><td><div>0</div></td></tr></table></div></td></tr><tr><td><div><table><tr><td><div>21</div></td></tr><tr><td><div>2</div></td></tr><tr><td><div>1</div></td></tr><tr><td><div>0</div></td></tr></table></div></td></tr><tr><td><div><table><tr><td><div>22</div></td></tr><tr><td><div>0</div></td></tr><tr><td><div>1</div></td></tr><tr><td><div>0</div></td></tr></table></div></td></tr><tr><td><div><table><tr><td><div>23</div></td></tr><tr><td><div>0</div></td></tr><tr><td><div>1</div></td></tr><tr><td><div>0</div></td></tr></table></div></td></tr><tr><td><div><table><tr><td><div>24</div></td></tr><tr><td><div>0</div></td></tr><tr><td><div>1</div></td></tr><tr><td><div>0</div></td></tr></table></div></td></tr><tr><td><div><table><tr><td><div>25</div></td></tr><tr><td><div>17</div></td></tr><tr><td><div>23</div></td></tr><tr><td><div>0</div></td></tr></table></div></td></tr><tr><td><div><table><tr><td><div>26</div></td></tr><tr><td><div>0</div></td></tr><tr><td><div>0</div></td></tr><tr><td><div>0</div></td></tr></table></div></td></tr><tr><td><div><table><tr><td><div>27</div></td></tr><tr><td><div>0</div></td></tr><tr><td><div>0</div></td></tr><tr><td><div>0</div></td></tr></table></div></td></tr><tr><td><div><table><tr><td><div>28</div></td></tr><tr><td><div>0</div></td></tr><tr><td><div>0</div></td></tr><tr><td><div>0</div></td></tr></table></div></td></tr><tr><td><div><table><tr><td><div>29</div></td></tr><tr><td><div>0</div></td></tr><tr><td><div>0</div></td></tr><tr><td><div>0</div></td></tr></table></div></td></tr><tr><td><div><table><tr><td><div>30</div></td></tr><tr><td><div>0</div></td></tr><tr><td><div>0</div></td></tr><tr><td><div>0</div></td></tr></table></div></td></tr><tr><td><div><table><tr><td><div>31</div></td></tr><tr><td><div>0</div></td></tr><tr><td><div>0</div></td></tr><tr><td><div>0</div></td></tr></table></div></td></tr><tr><td><div><table><tr><td><div>32</div></td></tr><tr><td><div>0</div></td></tr><tr><td><div>2</div></td></tr><tr><td><div>0</div></td></tr></table></div></td></tr><tr><td><div><table><tr><td><div>33</div></td></tr><tr><td><div>0</div></td></tr><tr><td><div>2</div></td></tr><tr><td><div>0</div></td></tr></table></div></td></tr><tr><td><div><table><tr><td><div>34</div></td></tr><tr><td><div>0</div></td></tr><tr><td><div>0</div></td></tr><tr><td><div>0</div></td></tr></table></div></td></tr><tr><td><div><table><tr><td><div>35</div></td></tr><tr><td><div>2</div></td></tr><tr><td><div>0</div></td></tr><tr><td><div>0</div></td></tr></table></div></td></tr><tr><td><div><table><tr><td><div>36</div></td></tr><tr><td><div>0</div></td></tr><tr><td><div>0</div></td></tr><tr><td><div>0</div></td></tr></table></div></td></tr><tr><td><div><table><tr><td><div>37</div></td></tr><tr><td><div>0</div></td></tr><tr><td><div>0</div></td></tr><tr><td><div>0</div></td></tr></table></div></td></tr><tr><td><div><table><tr><td><div>38</div></td></tr><tr><td><div>0</div></td></tr><tr><td><div>0</div></td></tr><tr><td><div>0</div></td></tr></table></div></td></tr><tr><td><div><table><tr><td><div>39</div></td></tr><tr><td><div>0</div></td></tr><tr><td><div>0</div></td></tr><tr><td><div>0</div></td></tr></table></div></td></tr><tr><td><div><table><tr><td><div>40</div></td></tr><tr><td><div>0</div></td></tr><tr><td><div>0</div></td></tr><tr><td><div>0</div></td></tr></table></div></td></tr><tr><td><div><table><tr><td><div>41</div></td></tr><tr><td><div>0</div></td></tr><tr><td><div>0</div></td></tr><tr><td><div>0</div></td></tr></table></div></td></tr><tr><td><div><table><tr><td><div>42</div></td></tr><tr><td><div>0</div></td></tr><tr><td><div>0</div></td></tr><tr><td><div>0</div></td></tr></table></div></td></tr><tr><td><div><table><tr><td><div>43</div></td></tr><tr><td><div>0</div></td></tr><tr><td><div>0</div></td></tr><tr><td><div>0</div></td></tr></table></div></td></tr><tr><td><div><table><tr><td><div>44</div></td></tr><tr><td><div>0</div></td></tr><tr><td><div>0</div></td></tr><tr><td><div>0</div></td></tr></table></div></td></tr><tr><td><div><table><tr><td><div>45</div></td></tr><tr><td><div>0</div></td></tr><tr><td><div>0</div></td></tr><tr><td><div>0</div></td></tr></table></div></td></tr><tr><td><div><table><tr><td><div>46</div></td></tr><tr><td><div>0</div></td></tr><tr><td><div>0</div></td></tr><tr><td><div>0</div></td></tr></table></div></td></tr><tr><td><div><table><tr><td><div>47</div></td></tr><tr><td><div>0</div></td></tr><tr><td><div>0</div></td></tr><tr><td><div>0</div></td></tr></table></div></td></tr><tr><td><div><table><tr><td><div>48</div></td></tr><tr><td><div>0</div></td></tr><tr><td><div>0</div></td></tr><tr><td><div>0</div></td></tr></table></div></td></tr><tr><td><div><table><tr><td><div>49</div></td></tr><tr><td><div>0</div></td></tr><tr><td><div>0</div></td></tr><tr><td><div>0</div></td></tr></table></div></td></tr><tr><td><div><table><tr><td><div>50</div></td></tr><tr><td><div>0</div></td></tr><tr><td><div>0</div></td></tr><tr><td><div>0</div></td></tr></table></div></td></tr><tr><td><div><table><tr><td><div>51</div></td></tr><tr><td><div>2</div></td></tr><tr><td><div>3</div></td></tr><tr><td><div>0</div></td></tr></table></div></td></tr><tr><td><div><table><tr><td><div>52</div></td></tr><tr><td><div>13</div></td></tr><tr><td><div>0</div></td></tr><tr><td><div>0</div></td></tr></table></div></td></tr><tr><td><div><table><tr><td><div>53</div></td></tr><tr><td><div>0</div></td></tr><tr><td><div>1</div></td></tr><tr><td><div>0</div></td></tr></table></div></td></tr><tr><td><div><table><tr><td><div>54</div></td></tr><tr><td><div>0</div></td></tr><tr><td><div>0</div></td></tr><tr><td><div>0</div></td></tr></table></div></td></tr><tr><td><div><table><tr><td><div>55</div></td></tr><tr><td><div>0</div></td></tr><tr><td><div>0</div></td></tr><tr><td><div>0</div></td></tr></table></div></td></tr><tr><td><div><table><tr><td><div>56</div></td></tr><tr><td><div>0</div></td></tr><tr><td><div>0</div></td></tr><tr><td><div>0</div></td></tr></table></div></td></tr><tr><td><div><table><tr><td><div>57</div></td></tr><tr><td><div>0</div></td></tr><tr><td><div>1</div></td></tr><tr><td><div>0</div></td></tr></table></div></td></tr><tr><td><div><table><tr><td><div>58</div></td></tr><tr><td><div>0</div></td></tr><tr><td><div>0</div></td></tr><tr><td><div>0</div></td></tr></table></div></td></tr><tr><td><div><table><tr><td><div>59</div></td></tr><tr><td><div>0</div></td></tr><tr><td><div>0</div></td></tr><tr><td><div>0</div></td></tr></table></div></td></tr><tr><td><div><table><tr><td><div>60</div></td></tr><tr><td><div>0</div></td></tr><tr><td><div>4</div></td></tr><tr><td><div>0</div></td></tr></table></div></td></tr><tr><td><div><table><tr><td><div>61</div></td></tr><tr><td><div>0</div></td></tr><tr><td><div>3</div></td></tr><tr><td><div>0</div></td></tr></table></div></td></tr><tr><td><div><table><tr><td><div>62</div></td></tr><tr><td><div>4</div></td></tr><tr><td><div>1</div></td></tr><tr><td><div>0</div></td></tr></table></div></td></tr><tr><td><div><table><tr><td><div>63</div></td></tr><tr><td><div>0</div></td></tr><tr><td><div>1</div></td></tr><tr><td><div>0</div></td></tr></table></div></td></tr><tr><td><div><table><tr><td><div>64</div></td></tr><tr><td><div>0</div></td></tr><tr><td><div>0</div></td></tr><tr><td><div>0</div></td></tr></table></div></td></tr><tr><td><div><table><tr><td><div>65</div></td></tr><tr><td><div>0</div></td></tr><tr><td><div>0</div></td></tr><tr><td><div>0</div></td></tr></table></div></td></tr><tr><td><div><table><tr><td><div>66</div></td></tr><tr><td><div>1</div></td></tr><tr><td><div>0</div></td></tr><tr><td><div>0</div></td></tr></table></div></td></tr><tr><td><div><table><tr><td><div>67</div></td></tr><tr><td><div>1</div></td></tr><tr><td><div>0</div></td></tr><tr><td><div>0</div></td></tr></table></div></td></tr><tr><td><div><table><tr><td><div>68</div></td></tr><tr><td><div>0</div></td></tr><tr><td><div>0</div></td></tr><tr><td><div>0</div></td></tr></table></div></td></tr><tr><td><div><table><tr><td><div>69</div></td></tr><tr><td><div>0</div></td></tr><tr><td><div>0</div></td></tr><tr><td><div>0</div></td></tr></table></div></td></tr><tr><td><div><table><tr><td><div>70</div></td></tr><tr><td><div>2</div></td></tr><tr><td><div>0</div></td></tr><tr><td><div>0</div></td></tr></table></div></td></tr><tr><td><div><table><tr><td><div>71</div></td></tr><tr><td><div>0</div></td></tr><tr><td><div>0</div></td></tr><tr><td><div>0</div></td></tr></table></div></td></tr><tr><td><div><table><tr><td><div>72</div></td></tr><tr><td><div>0</div></td></tr><tr><td><div>0</div></td></tr><tr><td><div>0</div></td></tr></table></div></td></tr><tr><td><div><table><tr><td><div>73</div></td></tr><tr><td><div>0</div></td></tr><tr><td><div>0</div></td></tr><tr><td><div>0</div></td></tr></table></div></td></tr><tr><td><div><table><tr><td><div>74</div></td></tr><tr><td><div>0</div></td></tr><tr><td><div>0</div></td></tr><tr><td><div>0</div></td></tr></table></div></td></tr><tr><td><div><table><tr><td><div>75</div></td></tr><tr><td><div>22</div></td></tr><tr><td><div>11</div></td></tr><tr><td><div>0</div></td></tr></table></div></td></tr><tr><td><div><table><tr><td><div>76</div></td></tr><tr><td><div>0</div></td></tr><tr><td><div>1</div></td></tr><tr><td><div>0</div></td></tr></table></div></td></tr><tr><td><div><table><tr><td><div>77</div></td></tr><tr><td><div>5</div></td></tr><tr><td><div>12</div></td></tr><tr><td><div>0</div></td></tr></table></div></td></tr></table></div></td></tr><tr><td style="font-weight:bold;vertical-align:top;">c</td><td style="vertical-align:top;">:</td><td><div>0</div></td></tr></table></div>'
tRp139
sS'etype'
p140
S"<type 'exceptions.TypeError'>"
p141
sS'date'
p142
S'Sat Nov 26 05:34:42 2016'
p143
sS'response'
p144
g57
(S's\x90\x1d\x00\x00<div><table><tr><td style="font-weight:bold;vertical-align:top;">body</td><td style="vertical-align:top;">:</td><td><div>&lt;cStringIO.StringO object at 0x7f16aeb611f0&gt;</div></td></tr><tr><td style="font-weight:bold;vertical-align:top;">cookies</td><td style="vertical-align:top;">:</td><td><div><table><tr><td style="font-weight:bold;vertical-align:top;">session_id_sniffer</td><td style="vertical-align:top;">:</td><td><div>127.0.0.1-ff44cfb1-a268-4381-8576-ff9dfa264a2d<table><tr><td style="font-weight:bold;vertical-align:top;">comment</td><td style="vertical-align:top;">:</td><td><div></div></td></tr><tr><td style="font-weight:bold;vertical-align:top;">domain</td><td style="vertical-align:top;">:</td><td><div></div></td></tr><tr><td style="font-weight:bold;vertical-align:top;">expires</td><td style="vertical-align:top;">:</td><td><div></div></td></tr><tr><td style="font-weight:bold;vertical-align:top;">httponly</td><td style="vertical-align:top;">:</td><td><div></div></td></tr><tr><td style="font-weight:bold;vertical-align:top;">max-age</td><td style="vertical-align:top;">:</td><td><div></div></td></tr><tr><td style="font-weight:bold;vertical-align:top;">path</td><td style="vertical-align:top;">:</td><td><div>/</div></td></tr><tr><td style="font-weight:bold;vertical-align:top;">secure</td><td style="vertical-align:top;">:</td><td><div></div></td></tr><tr><td style="font-weight:bold;vertical-align:top;">version</td><td style="vertical-align:top;">:</td><td><div></div></td></tr></table></div></td></tr></table></div></td></tr><tr><td style="font-weight:bold;vertical-align:top;">delimiters</td><td style="vertical-align:top;">:</td><td><div><table><tr><td><div>{{</div></td></tr><tr><td><div>}}</div></td></tr></table></div></td></tr><tr><td style="font-weight:bold;vertical-align:top;">files</td><td style="vertical-align:top;">:</td><td><div><table></table></div></td></tr><tr><td style="font-weight:bold;vertical-align:top;">flash</td><td style="vertical-align:top;">:</td><td><div></div></td></tr><tr><td style="font-weight:bold;vertical-align:top;">form_label_separator</td><td style="vertical-align:top;">:</td><td><div></div></td></tr><tr><td style="font-weight:bold;vertical-align:top;">formstyle</td><td style="vertical-align:top;">:</td><td><div>bootstrap3_inline</div></td></tr><tr><td style="font-weight:bold;vertical-align:top;">generic_patterns</td><td style="vertical-align:top;">:</td><td><div><table><tr><td><div>*</div></td></tr></table></div></td></tr><tr><td style="font-weight:bold;vertical-align:top;">google_analytics_id</td><td style="vertical-align:top;">:</td><td><div>None</div></td></tr><tr><td style="font-weight:bold;vertical-align:top;">headers</td><td style="vertical-align:top;">:</td><td><div><table><tr><td style="font-weight:bold;vertical-align:top;">X-Powered-By</td><td style="vertical-align:top;">:</td><td><div>web2py</div></td></tr></table></div></td></tr><tr><td style="font-weight:bold;vertical-align:top;">logo</td><td style="vertical-align:top;">:</td><td><div><a class="navbar-brand" href="http://www.web2py.com/" id="web2py-logo"><b>web<span>2</span>py</b>&trade;&nbsp;</a></div></td></tr><tr><td style="font-weight:bold;vertical-align:top;">menu</td><td style="vertical-align:top;">:</td><td><div><table><tr><td><div><table><tr><td><div>Sniff</div></td></tr><tr><td><div>False</div></td></tr><tr><td><div>/sniffer/default/index</div></td></tr><tr><td><div><table></table></div></td></tr></table></div></td></tr></table></div></td></tr><tr><td style="font-weight:bold;vertical-align:top;">meta</td><td style="vertical-align:top;">:</td><td><div><table><tr><td style="font-weight:bold;vertical-align:top;">author</td><td style="vertical-align:top;">:</td><td><div>Your Name &lt;you@example.com&gt;</div></td></tr><tr><td style="font-weight:bold;vertical-align:top;">description</td><td style="vertical-align:top;">:</td><td><div>a cool new app</div></td></tr><tr><td style="font-weight:bold;vertical-align:top;">generator</td><td style="vertical-align:top;">:</td><td><div>Web2py Web Framework</div></td></tr><tr><td style="font-weight:bold;vertical-align:top;">keywords</td><td style="vertical-align:top;">:</td><td><div><table><tr><td><div>web2py</div></td></tr><tr><td><div>python</div></td></tr><tr><td><div>framework</div></td></tr></table></div></td></tr></table></div></td></tr><tr><td style="font-weight:bold;vertical-align:top;">models_to_run</td><td style="vertical-align:top;">:</td><td><div><table><tr><td><div>^\\w+\\.py$</div></td></tr><tr><td><div>^default/\\w+\\.py$</div></td></tr><tr><td><div>^default/snif/\\w+\\.py$</div></td></tr></table></div></td></tr><tr><td style="font-weight:bold;vertical-align:top;">postprocessing</td><td style="vertical-align:top;">:</td><td><div><table></table></div></td></tr><tr><td style="font-weight:bold;vertical-align:top;">session_client</td><td style="vertical-align:top;">:</td><td><div>127.0.0.1</div></td></tr><tr><td style="font-weight:bold;vertical-align:top;">session_cookie_compression_level</td><td style="vertical-align:top;">:</td><td><div>None</div></td></tr><tr><td style="font-weight:bold;vertical-align:top;">session_cookie_expires</td><td style="vertical-align:top;">:</td><td><div>None</div></td></tr><tr><td style="font-weight:bold;vertical-align:top;">session_data_name</td><td style="vertical-align:top;">:</td><td><div>session_data_sniffer</div></td></tr><tr><td style="font-weight:bold;vertical-align:top;">session_file</td><td style="vertical-align:top;">:</td><td><div>&lt;open file &#x27;/home/preethi/Downloads/web2py/applications/sniffer/sessions/060/08e/127.0.0.1-ff44cfb1-a268-4381-8576-ff9dfa264a2d&#x27;, mode &#x27;rb+&#x27; at 0x7f16bd191f60&gt;</div></td></tr><tr><td style="font-weight:bold;vertical-align:top;">session_filename</td><td style="vertical-align:top;">:</td><td><div>/home/preethi/Downloads/web2py/applications/sniffer/sessions/127.0.0.1-ff44cfb1-a268-4381-8576-ff9dfa264a2d</div></td></tr><tr><td style="font-weight:bold;vertical-align:top;">session_hash</td><td style="vertical-align:top;">:</td><td><div>3c2e37ab3005bf83b6b470a77cbfade1</div></td></tr><tr><td style="font-weight:bold;vertical-align:top;">session_id</td><td style="vertical-align:top;">:</td><td><div>127.0.0.1-ff44cfb1-a268-4381-8576-ff9dfa264a2d</div></td></tr><tr><td style="font-weight:bold;vertical-align:top;">session_id_name</td><td style="vertical-align:top;">:</td><td><div>session_id_sniffer</div></td></tr><tr><td style="font-weight:bold;vertical-align:top;">session_locked</td><td style="vertical-align:top;">:</td><td><div>True</div></td></tr><tr><td style="font-weight:bold;vertical-align:top;">session_masterapp</td><td style="vertical-align:top;">:</td><td><div>sniffer</div></td></tr><tr><td style="font-weight:bold;vertical-align:top;">session_new</td><td style="vertical-align:top;">:</td><td><div>False</div></td></tr><tr><td style="font-weight:bold;vertical-align:top;">session_storage_type</td><td style="vertical-align:top;">:</td><td><div>file</div></td></tr><tr><td style="font-weight:bold;vertical-align:top;">status</td><td style="vertical-align:top;">:</td><td><div>200</div></td></tr><tr><td style="font-weight:bold;vertical-align:top;">subtitle</td><td style="vertical-align:top;">:</td><td><div></div></td></tr><tr><td style="font-weight:bold;vertical-align:top;">title</td><td style="vertical-align:top;">:</td><td><div>Sniffer</div></td></tr><tr><td style="font-weight:bold;vertical-align:top;">view</td><td style="vertical-align:top;">:</td><td><div>default/snif.html</div></td></tr></table></div>'
tRp145
sS'locals'
p146
(dp147
S'json'
p148
S"<module 'json' from '/usr/lib/python2.7/json/__init__.pyc'>"
p149
sS'd'
S"'qwe'"
p150
sssS'traceback'
p151
S'Traceback (most recent call last):\n  File "/home/preethi/Downloads/web2py/gluon/restricted.py", line 227, in restricted\n    exec ccode in environment\n  File "/home/preethi/Downloads/web2py/applications/sniffer/controllers/default.py", line 257, in <module>\n  File "/home/preethi/Downloads/web2py/gluon/globals.py", line 417, in <lambda>\n    self._caller = lambda f: f()\n  File "/home/preethi/Downloads/web2py/applications/sniffer/controllers/default.py", line 239, in snif\n    if ([]) in d :\nTypeError: \'in <string>\' requires string as left operand, not list\n'
p152
s.