(dp1
S'output'
p2
S"<type 'exceptions.NameError'> name 'd' is not defined"
p3
sS'layer'
p4
S'/home/preethi/Downloads/web2py/applications/sniffer/views/default/snif.html'
p5
sS'code'
p6
S'response.write(\'<html>\\n  <head>\\n  <script src="//ajax.googleapis.com/ajax/libs/jquery/1.9.1/jquery.min.js"></script>\\n\\n\\n\\n<script type="text/javascript" src="https://www.gstatic.com/charts/loader.js"></script>\\n <script type="text/javascript">\\n     google.charts.load(\\\'current\\\', {packages: [\\\'corechart\\\', \\\'line\\\']});\\ngoogle.charts.setOnLoadCallback(drawLineColors);\\n\\n      var data;\\nfunction drawLineColors() {\\n    if (typeof(data) == "undefined") {\\n        data = new google.visualization.DataTable();\\n    }\\n      data.addColumn(\\\'number\\\', \\\'X\\\');\\n      data.addColumn(\\\'number\\\', \\\'tcp\\\');\\n      data.addColumn(\\\'number\\\', \\\'udp\\\');\\n      data.addColumn(\\\'number\\\', \\\'icmp\\\');\\n}\\n     function draw(updated_data){\\n        n = data.getNumberOfRows();\\n        data.removeRows(0,n);\\ndata.addRows(updated_data);\\n      var options = {\\n        hAxis: {\\n          title: \\\'Time\\\'\\n        },\\n        vAxis: {\\n          title: \\\'No of packets\\\'\\n        },\\n        colors: [\\\'#DF2992\\\', \\\'#4CF511\\\', \\\'#24298E\\\']\\n      };\\n\\n      var chart = new google.visualization.LineChart(document.getElementById(\\\'chart_div\\\'));\\n      chart.draw(data, options);\\n    }\\n     \\nfunction putdata(updated_data) {\\n    updated_data = JSON.parse(updated_data);\\n    console.log(updated_data);\\n    draw(updated_data);\\n   \\n}\\n     \\nfunction startPolling() {\\n   \\n    id = setInterval(update, 200);\\n}\\n     \\nfunction update(){\\n    poll_xhr = $.ajax({\\n                url:  \\\'getdata\\\',\\n                type: \\\'POST\\\',\\n                data: {\\n                },\\n                success: function(result) {\\n                    \\n                    console.log("hi")\\n                    //console.log(result)\\n                    if (result) {\\n                        //console.log(result)\\n                        putdata(result)\\n                    }\\n                }\\n            });\\n}\\n //    drawLineColors();\\n     startPolling();\\n      \\n     \\n </script>\\n\\n      </head>\\n  <body>\\n     \\n  <div id="chart_div" style = "margin-top : 150px"></div>\\n       \', escape=False)\nresponse.write(d)\nresponse.write("\\n      <a href = \'", escape=False)\nresponse.write(URL("snif"))\nresponse.write("\'><button >graph</button></a>\\n\\n      </body>\\n</html>\\n", escape=False)'
p7
sS'snapshot'
p8
(dp9
S'exception'
p10
(dp11
S'__hash__'
p12
S"<method-wrapper '__hash__' of exceptions.NameError object>"
p13
sS'__setattr__'
p14
S"<method-wrapper '__setattr__' of exceptions.NameError object>"
p15
sS'__reduce_ex__'
p16
S'<built-in method __reduce_ex__ of exceptions.NameError object>'
p17
sS'__getslice__'
p18
S"<method-wrapper '__getslice__' of exceptions.NameError object>"
p19
sS'__getitem__'
p20
S"<method-wrapper '__getitem__' of exceptions.NameError object>"
p21
sS'__setstate__'
p22
S'<built-in method __setstate__ of exceptions.NameError object>'
p23
sS'args'
p24
S'("name \'d\' is not defined",)'
p25
sS'__reduce__'
p26
S'<built-in method __reduce__ of exceptions.NameError object>'
p27
sS'__str__'
p28
S"<method-wrapper '__str__' of exceptions.NameError object>"
p29
sS'__format__'
p30
S'<built-in method __format__ of exceptions.NameError object>'
p31
sS'__getattribute__'
p32
S"<method-wrapper '__getattribute__' of exceptions.NameError object>"
p33
sS'__class__'
p34
S"<type 'exceptions.NameError'>"
p35
sS'__unicode__'
p36
S'<built-in method __unicode__ of exceptions.NameError object>'
p37
sS'__delattr__'
p38
S"<method-wrapper '__delattr__' of exceptions.NameError object>"
p39
sS'__subclasshook__'
p40
S'<built-in method __subclasshook__ of type object>'
p41
sS'__repr__'
p42
S"<method-wrapper '__repr__' of exceptions.NameError object>"
p43
sS'__dict__'
p44
S'{}'
p45
sS'__sizeof__'
p46
S'<built-in method __sizeof__ of exceptions.NameError object>'
p47
sS'__doc__'
p48
S"'Name not found globally.'"
p49
sS'__init__'
p50
S"<method-wrapper '__init__' of exceptions.NameError object>"
p51
sS'__new__'
p52
S'<built-in method __new__ of type object>'
p53
ssS'evalue'
p54
S"name 'd' is not defined"
p55
sS'request'
p56
cgluon.html
XML_unpickle
p57
(S'sUW\x00\x00<div><table><tr><td style="font-weight:bold;vertical-align:top;">ajax</td><td style="vertical-align:top;">:</td><td><div>False</div></td></tr><tr><td style="font-weight:bold;vertical-align:top;">application</td><td style="vertical-align:top;">:</td><td><div>sniffer</div></td></tr><tr><td style="font-weight:bold;vertical-align:top;">args</td><td style="vertical-align:top;">:</td><td><div><table></table></div></td></tr><tr><td style="font-weight:bold;vertical-align:top;">cid</td><td style="vertical-align:top;">:</td><td><div>None</div></td></tr><tr><td style="font-weight:bold;vertical-align:top;">client</td><td style="vertical-align:top;">:</td><td><div>127.0.0.1</div></td></tr><tr><td style="font-weight:bold;vertical-align:top;">controller</td><td style="vertical-align:top;">:</td><td><div>default</div></td></tr><tr><td style="font-weight:bold;vertical-align:top;">cookies</td><td style="vertical-align:top;">:</td><td><div><table><tr><td style="font-weight:bold;vertical-align:top;">session_id_admin</td><td style="vertical-align:top;">:</td><td><div>127.0.0.1-263809c3-25ef-4265-855c-8af27dce9f0d<table><tr><td style="font-weight:bold;vertical-align:top;">comment</td><td style="vertical-align:top;">:</td><td><div></div></td></tr><tr><td style="font-weight:bold;vertical-align:top;">domain</td><td style="vertical-align:top;">:</td><td><div></div></td></tr><tr><td style="font-weight:bold;vertical-align:top;">expires</td><td style="vertical-align:top;">:</td><td><div></div></td></tr><tr><td style="font-weight:bold;vertical-align:top;">httponly</td><td style="vertical-align:top;">:</td><td><div></div></td></tr><tr><td style="font-weight:bold;vertical-align:top;">max-age</td><td style="vertical-align:top;">:</td><td><div></div></td></tr><tr><td style="font-weight:bold;vertical-align:top;">path</td><td style="vertical-align:top;">:</td><td><div></div></td></tr><tr><td style="font-weight:bold;vertical-align:top;">secure</td><td style="vertical-align:top;">:</td><td><div></div></td></tr><tr><td style="font-weight:bold;vertical-align:top;">version</td><td style="vertical-align:top;">:</td><td><div></div></td></tr></table></div></td></tr><tr><td style="font-weight:bold;vertical-align:top;">session_id_sniffer</td><td style="vertical-align:top;">:</td><td><div>127.0.0.1-888372bd-25a6-450b-b682-cd53cc2c25d5<table><tr><td style="font-weight:bold;vertical-align:top;">comment</td><td style="vertical-align:top;">:</td><td><div></div></td></tr><tr><td style="font-weight:bold;vertical-align:top;">domain</td><td style="vertical-align:top;">:</td><td><div></div></td></tr><tr><td style="font-weight:bold;vertical-align:top;">expires</td><td style="vertical-align:top;">:</td><td><div></div></td></tr><tr><td style="font-weight:bold;vertical-align:top;">httponly</td><td style="vertical-align:top;">:</td><td><div></div></td></tr><tr><td style="font-weight:bold;vertical-align:top;">max-age</td><td style="vertical-align:top;">:</td><td><div></div></td></tr><tr><td style="font-weight:bold;vertical-align:top;">path</td><td style="vertical-align:top;">:</td><td><div></div></td></tr><tr><td style="font-weight:bold;vertical-align:top;">secure</td><td style="vertical-align:top;">:</td><td><div></div></td></tr><tr><td style="font-weight:bold;vertical-align:top;">version</td><td style="vertical-align:top;">:</td><td><div></div></td></tr></table></div></td></tr></table></div></td></tr><tr><td style="font-weight:bold;vertical-align:top;">env</td><td style="vertical-align:top;">:</td><td><div><table><tr><td style="font-weight:bold;vertical-align:top;">HTTP_ACCEPT</td><td style="vertical-align:top;">:</td><td><div>text/html,application/xhtml+xml,application/xml;q=0.9,image/webp,*/*;q=0.8</div></td></tr><tr><td style="font-weight:bold;vertical-align:top;">HTTP_ACCEPT_ENCODING</td><td style="vertical-align:top;">:</td><td><div>gzip, deflate, sdch</div></td></tr><tr><td style="font-weight:bold;vertical-align:top;">HTTP_ACCEPT_LANGUAGE</td><td style="vertical-align:top;">:</td><td><div>en-US,en;q=0.8</div></td></tr><tr><td style="font-weight:bold;vertical-align:top;">HTTP_CACHE_CONTROL</td><td style="vertical-align:top;">:</td><td><div>max-age=0</div></td></tr><tr><td style="font-weight:bold;vertical-align:top;">HTTP_CONNECTION</td><td style="vertical-align:top;">:</td><td><div>keep-alive</div></td></tr><tr><td style="font-weight:bold;vertical-align:top;">HTTP_COOKIE</td><td style="vertical-align:top;">:</td><td><div>session_id_sniffer=127.0.0.1-888372bd-25a6-450b-b682-cd53cc2c25d5; session_id_admin=127.0.0.1-263809c3-25ef-4265-855c-8af27dce9f0d</div></td></tr><tr><td style="font-weight:bold;vertical-align:top;">HTTP_HOST</td><td style="vertical-align:top;">:</td><td><div>127.0.0.1:8000</div></td></tr><tr><td style="font-weight:bold;vertical-align:top;">HTTP_REFERER</td><td style="vertical-align:top;">:</td><td><div>http://127.0.0.1:8000/sniffer/default/index</div></td></tr><tr><td style="font-weight:bold;vertical-align:top;">HTTP_UPGRADE_INSECURE_REQUESTS</td><td style="vertical-align:top;">:</td><td><div>1</div></td></tr><tr><td style="font-weight:bold;vertical-align:top;">HTTP_USER_AGENT</td><td style="vertical-align:top;">:</td><td><div>Mozilla/5.0 (X11; Linux x86_64) AppleWebKit/537.36 (KHTML, like Gecko) Chrome/53.0.2785.143 Safari/537.36</div></td></tr><tr><td style="font-weight:bold;vertical-align:top;">PATH_INFO</td><td style="vertical-align:top;">:</td><td><div>/sniffer/default/snif</div></td></tr><tr><td style="font-weight:bold;vertical-align:top;">QUERY_STRING</td><td style="vertical-align:top;">:</td><td><div>interface=wlan0</div></td></tr><tr><td style="font-weight:bold;vertical-align:top;">REMOTE_ADDR</td><td style="vertical-align:top;">:</td><td><div>127.0.0.1</div></td></tr><tr><td style="font-weight:bold;vertical-align:top;">REMOTE_PORT</td><td style="vertical-align:top;">:</td><td><div>51572</div></td></tr><tr><td style="font-weight:bold;vertical-align:top;">REQUEST_METHOD</td><td style="vertical-align:top;">:</td><td><div>GET</div></td></tr><tr><td style="font-weight:bold;vertical-align:top;">SCRIPT_NAME</td><td style="vertical-align:top;">:</td><td><div></div></td></tr><tr><td style="font-weight:bold;vertical-align:top;">SERVER_NAME</td><td style="vertical-align:top;">:</td><td><div>preethi-SVE1512J6EB</div></td></tr><tr><td style="font-weight:bold;vertical-align:top;">SERVER_PORT</td><td style="vertical-align:top;">:</td><td><div>8000</div></td></tr><tr><td style="font-weight:bold;vertical-align:top;">SERVER_PROTOCOL</td><td style="vertical-align:top;">:</td><td><div>HTTP/1.1</div></td></tr><tr><td style="font-weight:bold;vertical-align:top;">SERVER_SOFTWARE</td><td style="vertical-align:top;">:</td><td><div>Rocket 1.2.6</div></td></tr><tr><td style="font-weight:bold;vertical-align:top;">app_folders</td><td style="vertical-align:top;">:</td><td><div>set([&#x27;/home/preethi/Downloads/web2py/applications/admin/&#x27;, &#x27;/home/preethi/Downloads/web2py/applications/sniffer/&#x27;])</div></td></tr><tr><td style="font-weight:bold;vertical-align:top;">applications_parent</td><td style="vertical-align:top;">:</td><td><div>/home/preethi/Downloads/web2py</div></td></tr><tr><td style="font-weight:bold;vertical-align:top;">cmd_args</td><td style="vertical-align:top;">:</td><td><div><table></table></div></td></tr><tr><td style="font-weight:bold;vertical-align:top;">cmd_options</td><td style="vertical-align:top;">:</td><td><div>&lt;Values at 0x7f0e02768cb0: {&#x27;verbose&#x27;: False, &#x27;ip&#x27;: &#x27;127.0.0.1&#x27;, &#x27;debuglevel&#x27;: 30, &#x27;with_scheduler&#x27;: False, &#x27;shutdown_timeout&#x27;: 5, &#x27;taskbar&#x27;: False, &#x27;with_coverage&#x27;: False, &#x27;pid_filename&#x27;: &#x27;httpserver.pid&#x27;, &#x27;maxthreads&#x27;: None, &#x27;softcron&#x27;: False, &#x27;server_name&#x27;: &#x27;preethi-SVE1512J6EB&#x27;, &#x27;bpython&#x27;: False, &#x27;nogui&#x27;: False, &#x27;port&#x27;: 8000, &#x27;print_errors&#x27;: False, &#x27;extcron&#x27;: False, &#x27;runcron&#x27;: False, &#x27;run_system_tests&#x27;: False, &#x27;test&#x27;: None, &#x27;folder&#x27;: &#x27;/home/preethi/Downloads/web2py&#x27;, &#x27;config&#x27;: &#x27;&#x27;, &#x27;minthreads&#x27;: None, &#x27;shell&#x27;: None, &#x27;run&#x27;: &#x27;&#x27;, &#x27;log_filename&#x27;: &#x27;httpserver.log&#x27;, &#x27;profiler_dir&#x27;: None, &#x27;args&#x27;: [&#x27;&#x27;], &#x27;socket_timeout&#x27;: 5, &#x27;ssl_ca_certificate&#x27;: None, &#x27;scheduler&#x27;: None, &#x27;interfaces&#x27;: None, &#x27;ssl_private_key&#x27;: &#x27;&#x27;, &#x27;gae&#x27;: None, &#x27;password&#x27;: &#x27;******&#x27;, &#x27;request_queue_size&#x27;: 5, &#x27;ssl_certificate&#x27;: &#x27;&#x27;, &#x27;cronjob&#x27;: False, &#x27;numthreads&#x27;: None, &#x27;quiet&#x27;: False, &#x27;import_models&#x27;: False, &#x27;timeout&#x27;: 10, &#x27;plain&#x27;: False, &#x27;nobanner&#x27;: False}&gt;</div></td></tr><tr><td style="font-weight:bold;vertical-align:top;">db_sessions</td><td style="vertical-align:top;">:</td><td><div>set([])</div></td></tr><tr><td style="font-weight:bold;vertical-align:top;">debugging</td><td style="vertical-align:top;">:</td><td><div>True</div></td></tr><tr><td style="font-weight:bold;vertical-align:top;">gluon_parent</td><td style="vertical-align:top;">:</td><td><div>/home/preethi/Downloads/web2py</div></td></tr><tr><td style="font-weight:bold;vertical-align:top;">http_accept</td><td style="vertical-align:top;">:</td><td><div>text/html,application/xhtml+xml,application/xml;q=0.9,image/webp,*/*;q=0.8</div></td></tr><tr><td style="font-weight:bold;vertical-align:top;">http_accept_encoding</td><td style="vertical-align:top;">:</td><td><div>gzip, deflate, sdch</div></td></tr><tr><td style="font-weight:bold;vertical-align:top;">http_accept_language</td><td style="vertical-align:top;">:</td><td><div>en-US,en;q=0.8</div></td></tr><tr><td style="font-weight:bold;vertical-align:top;">http_cache_control</td><td style="vertical-align:top;">:</td><td><div>max-age=0</div></td></tr><tr><td style="font-weight:bold;vertical-align:top;">http_connection</td><td style="vertical-align:top;">:</td><td><div>keep-alive</div></td></tr><tr><td style="font-weight:bold;vertical-align:top;">http_cookie</td><td style="vertical-align:top;">:</td><td><div>session_id_sniffer=127.0.0.1-888372bd-25a6-450b-b682-cd53cc2c25d5; session_id_admin=127.0.0.1-263809c3-25ef-4265-855c-8af27dce9f0d</div></td></tr><tr><td style="font-weight:bold;vertical-align:top;">http_host</td><td style="vertical-align:top;">:</td><td><div>127.0.0.1:8000</div></td></tr><tr><td style="font-weight:bold;vertical-align:top;">http_referer</td><td style="vertical-align:top;">:</td><td><div>http://127.0.0.1:8000/sniffer/default/index</div></td></tr><tr><td style="font-weight:bold;vertical-align:top;">http_upgrade_insecure_requests</td><td style="vertical-align:top;">:</td><td><div>1</div></td></tr><tr><td style="font-weight:bold;vertical-align:top;">http_user_agent</td><td style="vertical-align:top;">:</td><td><div>Mozilla/5.0 (X11; Linux x86_64) AppleWebKit/537.36 (KHTML, like Gecko) Chrome/53.0.2785.143 Safari/537.36</div></td></tr><tr><td style="font-weight:bold;vertical-align:top;">is_jython</td><td style="vertical-align:top;">:</td><td><div>False</div></td></tr><tr><td style="font-weight:bold;vertical-align:top;">is_pypy</td><td style="vertical-align:top;">:</td><td><div>False</div></td></tr><tr><td style="font-weight:bold;vertical-align:top;">is_source</td><td style="vertical-align:top;">:</td><td><div>True</div></td></tr><tr><td style="font-weight:bold;vertical-align:top;">local_hosts</td><td style="vertical-align:top;">:</td><td><div><table><tr><td><div>::1</div></td></tr><tr><td><div>127.0.1.1</div></td></tr><tr><td><div>::ffff:127.0.0.1</div></td></tr><tr><td><div>127.0.0.1</div></td></tr><tr><td><div>preethi-SVE1512J6EB</div></td></tr></table></div></td></tr><tr><td style="font-weight:bold;vertical-align:top;">path_info</td><td style="vertical-align:top;">:</td><td><div>/sniffer/default/snif</div></td></tr><tr><td style="font-weight:bold;vertical-align:top;">query_string</td><td style="vertical-align:top;">:</td><td><div>interface=wlan0</div></td></tr><tr><td style="font-weight:bold;vertical-align:top;">remote_addr</td><td style="vertical-align:top;">:</td><td><div>127.0.0.1</div></td></tr><tr><td style="font-weight:bold;vertical-align:top;">remote_port</td><td style="vertical-align:top;">:</td><td><div>51572</div></td></tr><tr><td style="font-weight:bold;vertical-align:top;">request_method</td><td style="vertical-align:top;">:</td><td><div>GET</div></td></tr><tr><td style="font-weight:bold;vertical-align:top;">request_uri</td><td style="vertical-align:top;">:</td><td><div>/sniffer/default/snif?interface=wlan0</div></td></tr><tr><td style="font-weight:bold;vertical-align:top;">script_name</td><td style="vertical-align:top;">:</td><td><div></div></td></tr><tr><td style="font-weight:bold;vertical-align:top;">server_name</td><td style="vertical-align:top;">:</td><td><div>preethi-SVE1512J6EB</div></td></tr><tr><td style="font-weight:bold;vertical-align:top;">server_port</td><td style="vertical-align:top;">:</td><td><div>8000</div></td></tr><tr><td style="font-weight:bold;vertical-align:top;">server_protocol</td><td style="vertical-align:top;">:</td><td><div>HTTP/1.1</div></td></tr><tr><td style="font-weight:bold;vertical-align:top;">server_software</td><td style="vertical-align:top;">:</td><td><div>Rocket 1.2.6</div></td></tr><tr><td style="font-weight:bold;vertical-align:top;">web2py_path</td><td style="vertical-align:top;">:</td><td><div>/home/preethi/Downloads/web2py</div></td></tr><tr><td style="font-weight:bold;vertical-align:top;">web2py_version</td><td style="vertical-align:top;">:</td><td><div>2.14.6-stable+timestamp.2016.05.10.00.21.47</div></td></tr><tr><td style="font-weight:bold;vertical-align:top;">wsgi.errors</td><td style="vertical-align:top;">:</td><td><div>&lt;open file &#x27;&lt;stderr&gt;&#x27;, mode &#x27;w&#x27; at 0x7f0e09be51e0&gt;</div></td></tr><tr><td style="font-weight:bold;vertical-align:top;">wsgi.file_wrapper</td><td style="vertical-align:top;">:</td><td><div>&lt;class wsgiref.util.FileWrapper at 0x7f0e028088d8&gt;</div></td></tr><tr><td style="font-weight:bold;vertical-align:top;">wsgi.input</td><td style="vertical-align:top;">:</td><td><div>&lt;socket._fileobject object at 0x7f0dd0b57ad0&gt;</div></td></tr><tr><td style="font-weight:bold;vertical-align:top;">wsgi.multiprocess</td><td style="vertical-align:top;">:</td><td><div>False</div></td></tr><tr><td style="font-weight:bold;vertical-align:top;">wsgi.multithread</td><td style="vertical-align:top;">:</td><td><div>True</div></td></tr><tr><td style="font-weight:bold;vertical-align:top;">wsgi.run_once</td><td style="vertical-align:top;">:</td><td><div>False</div></td></tr><tr><td style="font-weight:bold;vertical-align:top;">wsgi.url_scheme</td><td style="vertical-align:top;">:</td><td><div>http</div></td></tr><tr><td style="font-weight:bold;vertical-align:top;">wsgi.version</td><td style="vertical-align:top;">:</td><td><div><table><tr><td><div>1</div></td></tr><tr><td><div>0</div></td></tr></table></div></td></tr><tr><td style="font-weight:bold;vertical-align:top;">wsgi_errors</td><td style="vertical-align:top;">:</td><td><div>&lt;open file &#x27;&lt;stderr&gt;&#x27;, mode &#x27;w&#x27; at 0x7f0e09be51e0&gt;</div></td></tr><tr><td style="font-weight:bold;vertical-align:top;">wsgi_file_wrapper</td><td style="vertical-align:top;">:</td><td><div>&lt;class wsgiref.util.FileWrapper at 0x7f0e028088d8&gt;</div></td></tr><tr><td style="font-weight:bold;vertical-align:top;">wsgi_input</td><td style="vertical-align:top;">:</td><td><div>&lt;socket._fileobject object at 0x7f0dd0b57ad0&gt;</div></td></tr><tr><td style="font-weight:bold;vertical-align:top;">wsgi_multiprocess</td><td style="vertical-align:top;">:</td><td><div>False</div></td></tr><tr><td style="font-weight:bold;vertical-align:top;">wsgi_multithread</td><td style="vertical-align:top;">:</td><td><div>True</div></td></tr><tr><td style="font-weight:bold;vertical-align:top;">wsgi_run_once</td><td style="vertical-align:top;">:</td><td><div>False</div></td></tr><tr><td style="font-weight:bold;vertical-align:top;">wsgi_url_scheme</td><td style="vertical-align:top;">:</td><td><div>http</div></td></tr><tr><td style="font-weight:bold;vertical-align:top;">wsgi_version</td><td style="vertical-align:top;">:</td><td><div><table><tr><td><div>1</div></td></tr><tr><td><div>0</div></td></tr></table></div></td></tr></table></div></td></tr><tr><td style="font-weight:bold;vertical-align:top;">extension</td><td style="vertical-align:top;">:</td><td><div>html</div></td></tr><tr><td style="font-weight:bold;vertical-align:top;">folder</td><td style="vertical-align:top;">:</td><td><div>/home/preethi/Downloads/web2py/applications/sniffer/</div></td></tr><tr><td style="font-weight:bold;vertical-align:top;">function</td><td style="vertical-align:top;">:</td><td><div>snif</div></td></tr><tr><td style="font-weight:bold;vertical-align:top;">global_settings</td><td style="vertical-align:top;">:</td><td><div><table><tr><td style="font-weight:bold;vertical-align:top;">app_folders</td><td style="vertical-align:top;">:</td><td><div>set([&#x27;/home/preethi/Downloads/web2py/applications/admin/&#x27;, &#x27;/home/preethi/Downloads/web2py/applications/sniffer/&#x27;])</div></td></tr><tr><td style="font-weight:bold;vertical-align:top;">applications_parent</td><td style="vertical-align:top;">:</td><td><div>/home/preethi/Downloads/web2py</div></td></tr><tr><td style="font-weight:bold;vertical-align:top;">cmd_args</td><td style="vertical-align:top;">:</td><td><div><table></table></div></td></tr><tr><td style="font-weight:bold;vertical-align:top;">cmd_options</td><td style="vertical-align:top;">:</td><td><div>&lt;Values at 0x7f0e02768cb0: {&#x27;verbose&#x27;: False, &#x27;ip&#x27;: &#x27;127.0.0.1&#x27;, &#x27;debuglevel&#x27;: 30, &#x27;with_scheduler&#x27;: False, &#x27;shutdown_timeout&#x27;: 5, &#x27;taskbar&#x27;: False, &#x27;with_coverage&#x27;: False, &#x27;pid_filename&#x27;: &#x27;httpserver.pid&#x27;, &#x27;maxthreads&#x27;: None, &#x27;softcron&#x27;: False, &#x27;server_name&#x27;: &#x27;preethi-SVE1512J6EB&#x27;, &#x27;bpython&#x27;: False, &#x27;nogui&#x27;: False, &#x27;port&#x27;: 8000, &#x27;print_errors&#x27;: False, &#x27;extcron&#x27;: False, &#x27;runcron&#x27;: False, &#x27;run_system_tests&#x27;: False, &#x27;test&#x27;: None, &#x27;folder&#x27;: &#x27;/home/preethi/Downloads/web2py&#x27;, &#x27;config&#x27;: &#x27;&#x27;, &#x27;minthreads&#x27;: None, &#x27;shell&#x27;: None, &#x27;run&#x27;: &#x27;&#x27;, &#x27;log_filename&#x27;: &#x27;httpserver.log&#x27;, &#x27;profiler_dir&#x27;: None, &#x27;args&#x27;: [&#x27;&#x27;], &#x27;socket_timeout&#x27;: 5, &#x27;ssl_ca_certificate&#x27;: None, &#x27;scheduler&#x27;: None, &#x27;interfaces&#x27;: None, &#x27;ssl_private_key&#x27;: &#x27;&#x27;, &#x27;gae&#x27;: None, &#x27;password&#x27;: &#x27;******&#x27;, &#x27;request_queue_size&#x27;: 5, &#x27;ssl_certificate&#x27;: &#x27;&#x27;, &#x27;cronjob&#x27;: False, &#x27;numthreads&#x27;: None, &#x27;quiet&#x27;: False, &#x27;import_models&#x27;: False, &#x27;timeout&#x27;: 10, &#x27;plain&#x27;: False, &#x27;nobanner&#x27;: False}&gt;</div></td></tr><tr><td style="font-weight:bold;vertical-align:top;">db_sessions</td><td style="vertical-align:top;">:</td><td><div>set([])</div></td></tr><tr><td style="font-weight:bold;vertical-align:top;">debugging</td><td style="vertical-align:top;">:</td><td><div>True</div></td></tr><tr><td style="font-weight:bold;vertical-align:top;">gluon_parent</td><td style="vertical-align:top;">:</td><td><div>/home/preethi/Downloads/web2py</div></td></tr><tr><td style="font-weight:bold;vertical-align:top;">is_jython</td><td style="vertical-align:top;">:</td><td><div>False</div></td></tr><tr><td style="font-weight:bold;vertical-align:top;">is_pypy</td><td style="vertical-align:top;">:</td><td><div>False</div></td></tr><tr><td style="font-weight:bold;vertical-align:top;">is_source</td><td style="vertical-align:top;">:</td><td><div>True</div></td></tr><tr><td style="font-weight:bold;vertical-align:top;">local_hosts</td><td style="vertical-align:top;">:</td><td><div><table><tr><td><div>::1</div></td></tr><tr><td><div>127.0.1.1</div></td></tr><tr><td><div>::ffff:127.0.0.1</div></td></tr><tr><td><div>127.0.0.1</div></td></tr><tr><td><div>preethi-SVE1512J6EB</div></td></tr></table></div></td></tr><tr><td style="font-weight:bold;vertical-align:top;">web2py_version</td><td style="vertical-align:top;">:</td><td><div>2.14.6-stable+timestamp.2016.05.10.00.21.47</div></td></tr></table></div></td></tr><tr><td style="font-weight:bold;vertical-align:top;">is_https</td><td style="vertical-align:top;">:</td><td><div>False</div></td></tr><tr><td style="font-weight:bold;vertical-align:top;">is_local</td><td style="vertical-align:top;">:</td><td><div>True</div></td></tr><tr><td style="font-weight:bold;vertical-align:top;">is_restful</td><td style="vertical-align:top;">:</td><td><div>False</div></td></tr><tr><td style="font-weight:bold;vertical-align:top;">is_scheduler</td><td style="vertical-align:top;">:</td><td><div>False</div></td></tr><tr><td style="font-weight:bold;vertical-align:top;">is_shell</td><td style="vertical-align:top;">:</td><td><div>False</div></td></tr><tr><td style="font-weight:bold;vertical-align:top;">now</td><td style="vertical-align:top;">:</td><td><div>datetime.datetime(2016, 11, 26, 10, 54, 38, 874587)</div></td></tr><tr><td style="font-weight:bold;vertical-align:top;">raw_args</td><td style="vertical-align:top;">:</td><td><div></div></td></tr><tr><td style="font-weight:bold;vertical-align:top;">raw_extension</td><td style="vertical-align:top;">:</td><td><div>None</div></td></tr><tr><td style="font-weight:bold;vertical-align:top;">url</td><td style="vertical-align:top;">:</td><td><div>/sniffer/default/snif</div></td></tr><tr><td style="font-weight:bold;vertical-align:top;">utcnow</td><td style="vertical-align:top;">:</td><td><div>datetime.datetime(2016, 11, 26, 5, 24, 38, 874614)</div></td></tr><tr><td style="font-weight:bold;vertical-align:top;">wsgi</td><td style="vertical-align:top;">:</td><td><div>&lt;gluon.main.LazyWSGI object at 0x7f0dd0888890&gt;</div></td></tr></table></div>'
tRp58
sS'frames'
p59
(lp60
(dp61
S'file'
p62
S'/home/preethi/Downloads/web2py/gluon/restricted.py'
p63
sS'dump'
p64
(dp65
S'environment'
p66
S"{'A': <class 'gluon.html.A'>, 'ANY_OF': <class 'gluon.validators.ANY_OF'>, 'ASSIGNJS': <function ASSIGNJS>, 'AppConfig': <function AppConfig>, 'Auth': <class 'gluon.tools.Auth'>, 'B': <class 'gluon.html.B'>, 'BEAUTIFY': <class 'gluon.html.BEAUTIFY'>, 'BODY': <class 'gluon.html.BODY'>, 'BR': <class 'gluon.html.BR'>, 'BUTTON': <class 'gluon.html.BUTTON'>, ...}"
p67
sS'ccode'
p68
S'<code object <module> at 0x7f0dd0b59d30, file "/...cations/sniffer/views/default/snif.html", line 1>'
p69
ssS'lnum'
p70
I227
sS'lines'
p71
(dp72
I224
S'            ccode = code'
p73
sI225
S'        else:'
p74
sI226
S'            ccode = compile2(code, layer)'
p75
sI227
S'        exec ccode in environment'
p76
sI228
S'    except HTTP:'
p77
sI229
S'        raise'
p78
sI230
S'    except RestrictedError:'
p79
sI231
S'        # do not encapsulate (obfuscate) the original RestrictedError'
p80
sI222
S'    try:'
p81
sI223
S'        if isinstance(code, types.CodeType):'
p82
ssS'call'
p83
S'(code=\'response.write(\\\'<html>\\\\n  <head>\\\\n  <script src=...></a>\\\\n\\\\n      </body>\\\\n</html>\\\\n", escape=False)\', environment={\'A\': <class \'gluon.html.A\'>, \'ANY_OF\': <class \'gluon.validators.ANY_OF\'>, \'ASSIGNJS\': <function ASSIGNJS>, \'AppConfig\': <function AppConfig>, \'Auth\': <class \'gluon.tools.Auth\'>, \'B\': <class \'gluon.html.B\'>, \'BEAUTIFY\': <class \'gluon.html.BEAUTIFY\'>, \'BODY\': <class \'gluon.html.BODY\'>, \'BR\': <class \'gluon.html.BR\'>, \'BUTTON\': <class \'gluon.html.BUTTON\'>, ...}, layer=\'/home/preethi/Downloads/web2py/applications/sniffer/views/default/snif.html\')'
p84
sS'func'
p85
S'restricted'
p86
sa(dp87
g62
S'/home/preethi/Downloads/web2py/applications/sniffer/views/default/snif.html'
p88
sg64
(dp89
S'head'
p90
S'undefined'
p91
ssg70
I2
sg71
(dp92
I1
S'response.write(\'<html>\\n  <head>\\n  <script src="//ajax.googleapis.com/ajax/libs/jquery/1.9.1/jquery.min.js"></script>\\n\\n\\n\\n<script type="text/javascript" src="https://www.gstatic.com/charts/loader.js"></script>\\n <script type="text/javascript">\\n     google.charts.load(\\\'current\\\', {packages: [\\\'corechart\\\', \\\'line\\\']});\\ngoogle.charts.setOnLoadCallback(drawLineColors);\\n\\n      var data;\\nfunction drawLineColors() {\\n    if (typeof(data) == "undefined") {\\n        data = new google.visualization.DataTable();\\n    }\\n      data.addColumn(\\\'number\\\', \\\'X\\\');\\n      data.addColumn(\\\'number\\\', \\\'tcp\\\');\\n      data.addColumn(\\\'number\\\', \\\'udp\\\');\\n      data.addColumn(\\\'number\\\', \\\'icmp\\\');\\n}\\n     function draw(updated_data){\\n        n = data.getNumberOfRows();\\n        data.removeRows(0,n);\\ndata.addRows(updated_data);\\n      var options = {\\n        hAxis: {\\n          title: \\\'Time\\\'\\n        },\\n        vAxis: {\\n          title: \\\'No of packets\\\'\\n        },\\n        colors: [\\\'#DF2992\\\', \\\'#4CF511\\\', \\\'#24298E\\\']\\n      };\\n\\n      var chart = new google.visualization.LineChart(document.getElementById(\\\'chart_div\\\'));\\n      chart.draw(data, options);\\n    }\\n     \\nfunction putdata(updated_data) {\\n    updated_data = JSON.parse(updated_data);\\n    console.log(updated_data);\\n    draw(updated_data);\\n   \\n}\\n     \\nfunction startPolling() {\\n   \\n    id = setInterval(update, 200);\\n}\\n     \\nfunction update(){\\n    poll_xhr = $.ajax({\\n                url:  \\\'getdata\\\',\\n                type: \\\'POST\\\',\\n                data: {\\n                },\\n                success: function(result) {\\n                    \\n                    console.log("hi")\\n                    //console.log(result)\\n                    if (result) {\\n                        //console.log(result)\\n                        putdata(result)\\n                    }\\n                }\\n            });\\n}\\n //    drawLineColors();\\n     startPolling();\\n      \\n     \\n </script>\\n\\n      </head>\\n  <body>\\n     \\n  <div id="chart_div" style = "margin-top : 150px"></div>\\n       \', escape=False)'
p93
sI2
S'response.write(d)'
p94
sI3
S'response.write("\\n      <a href = \'", escape=False)'
p95
sI4
S'response.write(URL("snif"))'
p96
sI5
S'response.write("\'><button >graph</button></a>\\n\\n      </body>\\n</html>\\n", escape=False)'
p97
ssg83
S'()'
p98
sg85
S'<module>'
p99
sasS'pyver'
p100
S'Python 2.7.6: /usr/bin/python (prefix: /usr)'
p101
sS'session'
p102
g57
(S's\xdbV\x00\x00<div><table><tr><td style="font-weight:bold;vertical-align:top;">a</td><td style="vertical-align:top;">:</td><td><div><table><tr><td><div>2c:30:33:e1:cc:11,08:3e:8e:d9:6a:1d,4,5,64,6,192.168.1.189,54.221.3.35,40736, 443 , 1019058649 , 0 , 10</div></td></tr><tr><td><div>2c:30:33:e1:cc:11,08:3e:8e:d9:6a:1d,4,5,64,17,192.168.1.189,172.217.26.195, 46874,443,77,60529</div></td></tr><tr><td><div>08:3e:8e:d9:6a:1d,2c:30:33:e1:cc:11,4,5,56,17,172.217.26.195,192.168.1.189, 443,46874,35,85</div></td></tr><tr><td><div>08:3e:8e:d9:6a:1d,2c:30:33:e1:cc:11,4,5,56,17,172.217.26.195,192.168.1.189, 443,46874,73,33000</div></td></tr><tr><td><div>2c:30:33:e1:cc:11,08:3e:8e:d9:6a:1d,4,5,64,17,192.168.1.189,172.217.26.195, 46874,443,66,8444</div></td></tr><tr><td><div>08:3e:8e:d9:6a:1d,2c:30:33:e1:cc:11,4,5,56,17,172.217.26.195,192.168.1.189, 443,46874,35,31236</div></td></tr><tr><td><div>2c:30:33:e1:cc:11,08:3e:8e:d9:6a:1d,4,5,64,6,192.168.1.189,54.221.3.35,40737, 443 , 1823121541 , 0 , 10</div></td></tr><tr><td><div>08:3e:8e:d9:6a:1d,2c:30:33:e1:cc:11,4,5,42,6,54.221.3.35,192.168.1.189,443, 40736 , 3333191998 , 1019058650 , 10</div></td></tr><tr><td><div>2c:30:33:e1:cc:11,08:3e:8e:d9:6a:1d,4,5,64,6,192.168.1.189,54.221.3.35,40736, 443 , 1019058650 , 3333191999 , 8</div></td></tr><tr><td><div>2c:30:33:e1:cc:11,08:3e:8e:d9:6a:1d,4,5,64,6,192.168.1.189,54.221.3.35,40736, 443 , 1019058650 , 3333191999 , 8</div></td></tr><tr><td><div>08:3e:8e:d9:6a:1d,2c:30:33:e1:cc:11,4,5,43,6,54.221.3.35,192.168.1.189,443, 40737 , 3424927411 , 1823121542 , 10</div></td></tr><tr><td><div>2c:30:33:e1:cc:11,08:3e:8e:d9:6a:1d,4,5,64,6,192.168.1.189,54.221.3.35,40737, 443 , 1823121542 , 3424927412 , 8</div></td></tr><tr><td><div>08:3e:8e:d9:6a:1d,2c:30:33:e1:cc:11,4,5,42,6,54.221.3.35,192.168.1.189,443, 40736 , 3333191999 , 1019059167 , 8</div></td></tr><tr><td><div>08:3e:8e:d9:6a:1d,2c:30:33:e1:cc:11,4,5,42,6,54.221.3.35,192.168.1.189,443, 40736 , 3333191999 , 1019059167 , 8</div></td></tr><tr><td><div>2c:30:33:e1:cc:11,08:3e:8e:d9:6a:1d,4,5,64,6,192.168.1.189,54.221.3.35,40736, 443 , 1019059167 , 3333192136 , 8</div></td></tr><tr><td><div>2c:30:33:e1:cc:11,08:3e:8e:d9:6a:1d,4,5,64,6,192.168.1.189,54.221.3.35,40736, 443 , 1019059167 , 3333192136 , 8</div></td></tr><tr><td><div>2c:30:33:e1:cc:11,08:3e:8e:d9:6a:1d,4,5,64,6,192.168.1.189,54.221.3.35,40736, 443 , 1019059218 , 3333192136 , 8</div></td></tr><tr><td><div>2c:30:33:e1:cc:11,08:3e:8e:d9:6a:1d,4,5,64,6,192.168.1.189,54.221.3.35,40736, 443 , 1019060606 , 3333192136 , 8</div></td></tr><tr><td><div>2c:30:33:e1:cc:11,08:3e:8e:d9:6a:1d,4,5,64,6,192.168.1.189,172.217.26.202,42742, 80 , 1765338106 , 2651695730 , 8</div></td></tr><tr><td><div>08:3e:8e:d9:6a:1d,2c:30:33:e1:cc:11,4,5,56,6,172.217.26.202,192.168.1.189,80, 42742 , 2651695730 , 1765338107 , 8</div></td></tr><tr><td><div>2c:30:33:e1:cc:11,08:3e:8e:d9:6a:1d,4,5,64,6,192.168.1.189,172.217.26.202,42742, 80 , 1765338107 , 2651695731 , 8</div></td></tr><tr><td><div>08:3e:8e:d9:6a:1d,2c:30:33:e1:cc:11,4,5,42,6,54.221.3.35,192.168.1.189,443, 40736 , 3333192136 , 1019060704 , 8</div></td></tr><tr><td><div>08:3e:8e:d9:6a:1d,2c:30:33:e1:cc:11,4,5,42,6,54.221.3.35,192.168.1.189,443, 40736 , 3333192136 , 1019060704 , 8</div></td></tr><tr><td><div>2c:30:33:e1:cc:11,08:3e:8e:d9:6a:1d,4,5,64,6,192.168.1.189,54.221.3.35,40736, 443 , 1019060704 , 3333192325 , 8</div></td></tr><tr><td><div>2c:30:33:e1:cc:11,08:3e:8e:d9:6a:1d,4,5,64,17,192.168.1.189,172.217.26.197, 50192,443,31,50661</div></td></tr><tr><td><div>08:3e:8e:d9:6a:1d,2c:30:33:e1:cc:11,4,5,56,17,172.217.26.197,192.168.1.189, 443,50192,40,33132</div></td></tr><tr><td><div>2c:30:33:e1:cc:11,08:3e:8e:d9:6a:1d,4,5,64,6,192.168.1.189,172.217.26.199,37935, 443 , 1799340296 , 1863776235 , 8</div></td></tr><tr><td><div>08:3e:8e:d9:6a:1d,2c:30:33:e1:cc:11,4,5,56,6,172.217.26.199,192.168.1.189,443, 37935 , 1863776235 , 1799340297 , 8</div></td></tr><tr><td><div>2c:30:33:e1:cc:11,08:3e:8e:d9:6a:1d,4,5,64,17,192.168.1.189,172.217.26.195, 46874,443,77,57225</div></td></tr><tr><td><div>08:3e:8e:d9:6a:1d,2c:30:33:e1:cc:11,4,5,56,17,172.217.26.195,192.168.1.189, 443,46874,35,17197</div></td></tr><tr><td><div>08:3e:8e:d9:6a:1d,2c:30:33:e1:cc:11,4,5,56,17,172.217.26.195,192.168.1.189, 443,46874,73,21475</div></td></tr><tr><td><div>2c:30:33:e1:cc:11,08:3e:8e:d9:6a:1d,4,5,64,17,192.168.1.189,172.217.26.195, 46874,443,66,60325</div></td></tr><tr><td><div>08:3e:8e:d9:6a:1d,2c:30:33:e1:cc:11,4,5,56,17,172.217.26.195,192.168.1.189, 443,46874,35,42270</div></td></tr><tr><td><div>ff:ff:ff:ff:ff:ff,b8:76:3f:ef:ed:97,4,5,128,17,0.0.0.0,255.255.255.255, 68,67,308,49941</div></td></tr><tr><td><div>2c:30:33:e1:cc:11,08:3e:8e:d9:6a:1d,4,5,64,17,192.168.1.189,172.217.26.197, 50192,443,186,6832</div></td></tr><tr><td><div>2c:30:33:e1:cc:11,08:3e:8e:d9:6a:1d,4,5,64,17,192.168.1.189,172.217.26.197, 50192,443,107,30572</div></td></tr><tr><td><div>08:3e:8e:d9:6a:1d,2c:30:33:e1:cc:11,4,5,56,17,172.217.26.197,192.168.1.189, 443,50192,40,23883</div></td></tr><tr><td><div>2c:30:33:e1:cc:11,08:3e:8e:d9:6a:1d,4,5,64,17,192.168.1.189,172.217.26.206, 58400,443,31,32538</div></td></tr><tr><td><div>08:3e:8e:d9:6a:1d,2c:30:33:e1:cc:11,4,5,56,17,172.217.26.206,192.168.1.189, 443,58400,38,31314</div></td></tr><tr><td><div>08:3e:8e:d9:6a:1d,2c:30:33:e1:cc:11,4,5,56,17,172.217.26.197,192.168.1.189, 443,50192,70,60329</div></td></tr><tr><td><div>08:3e:8e:d9:6a:1d,2c:30:33:e1:cc:11,4,5,56,17,172.217.26.197,192.168.1.189, 443,50192,35,10622</div></td></tr><tr><td><div>2c:30:33:e1:cc:11,08:3e:8e:d9:6a:1d,4,5,64,17,192.168.1.189,172.217.26.197, 50192,443,53,14040</div></td></tr><tr><td><div>08:3e:8e:d9:6a:1d,2c:30:33:e1:cc:11,4,5,56,17,172.217.26.197,192.168.1.189, 443,50192,48,29446</div></td></tr><tr><td><div>2c:30:33:e1:cc:11,08:3e:8e:d9:6a:1d,4,5,64,17,192.168.1.189,172.217.26.197, 50192,443,44,10508</div></td></tr><tr><td><div>ff:ff:ff:ff:ff:ff,b8:76:3f:ef:ed:97,4,5,128,17,0.0.0.0,255.255.255.255, 68,67,308,4894</div></td></tr><tr><td><div>01:00:5e:00:00:16,b8:76:3f:ef:ed:97,4,6,1,2,192.168.1.66,224.0.0.22</div></td></tr><tr><td><div>01:00:5e:00:00:fb,b8:76:3f:ef:ed:97,4,5,255,17,192.168.1.66,224.0.0.251, 5353,5353,53,12625</div></td></tr><tr><td><div>01:00:5e:00:00:fb,b8:76:3f:ef:ed:97,4,5,255,17,192.168.1.66,224.0.0.251, 5353,5353,354,31859</div></td></tr><tr><td><div>01:00:5e:00:00:fb,b8:76:3f:ef:ed:97,4,5,255,17,192.168.1.66,224.0.0.251, 5353,5353,136,52959</div></td></tr><tr><td><div>01:00:5e:00:00:16,b8:76:3f:ef:ed:97,4,6,1,2,192.168.1.66,224.0.0.22</div></td></tr><tr><td><div>01:00:5e:00:00:fb,b8:76:3f:ef:ed:97,4,5,255,17,192.168.1.66,224.0.0.251, 5353,5353,354,31859</div></td></tr><tr><td><div>01:00:5e:00:00:fb,b8:76:3f:ef:ed:97,4,5,255,17,192.168.1.66,224.0.0.251, 5353,5353,354,31859</div></td></tr><tr><td><div>01:00:5e:00:00:fb,b8:76:3f:ef:ed:97,4,5,255,17,192.168.1.66,224.0.0.251, 5353,5353,330,46961</div></td></tr><tr><td><div>01:00:5e:00:00:fb,b8:76:3f:ef:ed:97,4,5,255,17,192.168.1.66,224.0.0.251, 5353,5353,53,12625</div></td></tr><tr><td><div>01:00:5e:00:00:fb,b8:76:3f:ef:ed:97,4,5,255,17,192.168.1.66,224.0.0.251, 5353,5353,136,52959</div></td></tr><tr><td><div>01:00:5e:00:00:fb,b8:76:3f:ef:ed:97,4,5,255,17,192.168.1.66,224.0.0.251, 5353,5353,330,46961</div></td></tr><tr><td><div>01:00:5e:00:00:fb,b8:76:3f:ef:ed:97,4,5,255,17,192.168.1.66,224.0.0.251, 5353,5353,53,12625</div></td></tr><tr><td><div>01:00:5e:00:00:fb,b8:76:3f:ef:ed:97,4,5,255,17,192.168.1.66,224.0.0.251, 5353,5353,235,52417</div></td></tr><tr><td><div>2c:30:33:e1:cc:11,08:3e:8e:d9:6a:1d,4,5,64,6,192.168.1.189,172.217.26.206,40239, 443 , 198311949 , 3897855532 , 8</div></td></tr><tr><td><div>08:3e:8e:d9:6a:1d,2c:30:33:e1:cc:11,4,5,56,6,172.217.26.206,192.168.1.189,443, 40239 , 3897855532 , 198311950 , 8</div></td></tr><tr><td><div>ff:ff:ff:ff:ff:ff,b8:76:3f:ef:ed:97,4,5,64,17,192.168.1.66,192.168.1.255, 137,137,76,53962</div></td></tr><tr><td><div>ff:ff:ff:ff:ff:ff,b8:76:3f:ef:ed:97,4,5,64,17,192.168.1.66,192.168.1.255, 137,137,76,53195</div></td></tr><tr><td><div>ff:ff:ff:ff:ff:ff,b8:76:3f:ef:ed:97,4,5,64,17,192.168.1.66,192.168.1.255, 137,137,76,53962</div></td></tr><tr><td><div>ff:ff:ff:ff:ff:ff,b8:76:3f:ef:ed:97,4,5,64,17,192.168.1.66,192.168.1.255, 137,137,76,23505</div></td></tr><tr><td><div>ff:ff:ff:ff:ff:ff,b8:76:3f:ef:ed:97,4,5,64,17,192.168.1.66,192.168.1.255, 137,137,76,19919</div></td></tr><tr><td><div>ff:ff:ff:ff:ff:ff,b8:76:3f:ef:ed:97,4,5,64,17,192.168.1.66,192.168.1.255, 138,138,253,63588</div></td></tr><tr><td><div>ff:ff:ff:ff:ff:ff,b8:76:3f:ef:ed:97,4,5,64,17,192.168.1.66,192.168.1.255, 137,137,58,30993</div></td></tr><tr><td><div>01:00:5e:00:00:fb,b8:76:3f:ef:ed:97,4,5,255,17,192.168.1.66,224.0.0.251, 5353,5353,330,46961</div></td></tr><tr><td><div>2c:30:33:e1:cc:11,08:3e:8e:d9:6a:1d,4,5,64,6,192.168.1.189,74.125.130.155,52821, 443 , 336133114 , 960476039 , 8</div></td></tr><tr><td><div>08:3e:8e:d9:6a:1d,2c:30:33:e1:cc:11,4,5,47,6,74.125.130.155,192.168.1.189,443, 52821 , 960476039 , 336133115 , 8</div></td></tr><tr><td><div>2c:30:33:e1:cc:11,08:3e:8e:d9:6a:1d,4,5,64,6,192.168.1.189,54.221.3.35,40737, 443 , 1823121542 , 3424927412 , 8</div></td></tr><tr><td><div>08:3e:8e:d9:6a:1d,2c:30:33:e1:cc:11,4,5,42,6,54.221.3.35,192.168.1.189,443, 40736 , 3333192325 , 1019060704 , 8</div></td></tr><tr><td><div>2c:30:33:e1:cc:11,08:3e:8e:d9:6a:1d,4,5,64,6,192.168.1.189,54.221.3.35,40736, 443 , 1019060704 , 3333192356 , 8</div></td></tr><tr><td><div>08:3e:8e:d9:6a:1d,2c:30:33:e1:cc:11,4,5,42,6,54.221.3.35,192.168.1.189,443, 40736 , 3333192356 , 1019060704 , 8</div></td></tr><tr><td><div>2c:30:33:e1:cc:11,08:3e:8e:d9:6a:1d,4,5,64,6,192.168.1.189,54.221.3.35,40736, 443 , 1019060704 , 3333192357 , 8</div></td></tr><tr><td><div>08:3e:8e:d9:6a:1d,2c:30:33:e1:cc:11,4,5,43,6,54.221.3.35,192.168.1.189,443, 40737 , 3424927412 , 1823121543 , 8</div></td></tr><tr><td><div>08:3e:8e:d9:6a:1d,2c:30:33:e1:cc:11,4,5,43,6,54.221.3.35,192.168.1.189,443, 40737 , 3424927412 , 1823121543 , 8</div></td></tr><tr><td><div>2c:30:33:e1:cc:11,08:3e:8e:d9:6a:1d,4,5,64,6,192.168.1.189,54.221.3.35,40737, 443 , 1823121543 , 3424927413 , 8</div></td></tr><tr><td><div>ff:ff:ff:ff:ff:ff,b8:76:3f:ef:ed:97,4,5,64,17,192.168.1.66,192.168.1.255, 137,137,76,53962</div></td></tr><tr><td><div>ff:ff:ff:ff:ff:ff,b8:76:3f:ef:ed:97,4,5,64,17,192.168.1.66,192.168.1.255, 137,137,76,53195</div></td></tr><tr><td><div>ff:ff:ff:ff:ff:ff,b8:76:3f:ef:ed:97,4,5,64,17,192.168.1.66,192.168.1.255, 137,137,76,53962</div></td></tr><tr><td><div>ff:ff:ff:ff:ff:ff,b8:76:3f:ef:ed:97,4,5,64,17,192.168.1.66,192.168.1.255, 137,137,76,23505</div></td></tr><tr><td><div>ff:ff:ff:ff:ff:ff,b8:76:3f:ef:ed:97,4,5,64,17,192.168.1.66,192.168.1.255, 137,137,76,19919</div></td></tr><tr><td><div>ff:ff:ff:ff:ff:ff,b8:76:3f:ef:ed:97,4,5,64,17,192.168.1.66,192.168.1.255, 137,137,76,53962</div></td></tr><tr><td><div>ff:ff:ff:ff:ff:ff,b8:76:3f:ef:ed:97,4,5,64,17,192.168.1.66,192.168.1.255, 137,137,76,53195</div></td></tr><tr><td><div>ff:ff:ff:ff:ff:ff,b8:76:3f:ef:ed:97,4,5,64,17,192.168.1.66,192.168.1.255, 137,137,76,53962</div></td></tr><tr><td><div>ff:ff:ff:ff:ff:ff,b8:76:3f:ef:ed:97,4,5,64,17,192.168.1.66,192.168.1.255, 137,137,76,23505</div></td></tr><tr><td><div>ff:ff:ff:ff:ff:ff,b8:76:3f:ef:ed:97,4,5,64,17,192.168.1.66,192.168.1.255, 137,137,76,19919</div></td></tr><tr><td><div>2c:30:33:e1:cc:11,08:3e:8e:d9:6a:1d,4,5,64,6,192.168.1.189,172.217.26.206,40247, 443 , 863051964 , 3923397988 , 8</div></td></tr><tr><td><div>08:3e:8e:d9:6a:1d,2c:30:33:e1:cc:11,4,5,56,6,172.217.26.206,192.168.1.189,443, 40247 , 3923397988 , 863051965 , 8</div></td></tr><tr><td><div>01:00:5e:00:00:fb,b8:76:3f:ef:ed:97,4,5,255,17,192.168.1.66,224.0.0.251, 5353,5353,53,12625</div></td></tr><tr><td><div>2c:30:33:e1:cc:11,08:3e:8e:d9:6a:1d,4,5,64,6,192.168.1.189,172.217.26.206,40248, 443 , 4191308152 , 350202113 , 8</div></td></tr><tr><td><div>08:3e:8e:d9:6a:1d,2c:30:33:e1:cc:11,4,5,56,6,172.217.26.206,192.168.1.189,443, 40248 , 350202113 , 4191308153 , 8</div></td></tr><tr><td><div>08:3e:8e:d9:6a:1d,2c:30:33:e1:cc:11,4,5,56,17,172.217.26.197,192.168.1.189, 443,50192,66,61967</div></td></tr><tr><td><div>2c:30:33:e1:cc:11,08:3e:8e:d9:6a:1d,4,5,64,17,192.168.1.189,172.217.26.197, 50192,443,44,45751</div></td></tr><tr><td><div>01:00:5e:00:00:fb,ac:c1:ee:6a:5c:d9,4,5,255,17,192.168.1.14,224.0.0.251, 5353,5353,69,12986</div></td></tr><tr><td><div>ff:ff:ff:ff:ff:ff,b8:76:3f:ef:ed:97,4,5,64,17,192.168.1.66,192.168.1.255, 137,137,76,53962</div></td></tr><tr><td><div>ff:ff:ff:ff:ff:ff,b8:76:3f:ef:ed:97,4,5,64,17,192.168.1.66,192.168.1.255, 137,137,76,53195</div></td></tr><tr><td><div>ff:ff:ff:ff:ff:ff,b8:76:3f:ef:ed:97,4,5,64,17,192.168.1.66,192.168.1.255, 137,137,76,53962</div></td></tr><tr><td><div>ff:ff:ff:ff:ff:ff,b8:76:3f:ef:ed:97,4,5,64,17,192.168.1.66,192.168.1.255, 137,137,76,23505</div></td></tr><tr><td><div>ff:ff:ff:ff:ff:ff,b8:76:3f:ef:ed:97,4,5,64,17,192.168.1.66,192.168.1.255, 137,137,76,19919</div></td></tr><tr><td><div>2c:30:33:e1:cc:11,08:3e:8e:d9:6a:1d,4,5,64,6,192.168.1.189,216.58.197.42,39850, 443 , 1465892314 , 2244052271 , 8</div></td></tr><tr><td><div>08:3e:8e:d9:6a:1d,2c:30:33:e1:cc:11,4,5,56,6,216.58.197.42,192.168.1.189,443, 39850 , 2244052271 , 1465892315 , 8</div></td></tr><tr><td><div>2c:30:33:e1:cc:11,08:3e:8e:d9:6a:1d,4,5,64,6,192.168.1.189,54.230.175.145,38576, 443 , 493922149 , 2926788958 , 8</div></td></tr><tr><td><div>08:3e:8e:d9:6a:1d,2c:30:33:e1:cc:11,4,5,247,6,54.230.175.145,192.168.1.189,443, 38576 , 2926788958 , 493922150 , 8</div></td></tr><tr><td><div>2c:30:33:e1:cc:11,08:3e:8e:d9:6a:1d,4,5,64,6,192.168.1.189,216.58.220.4,49624, 443 , 3131175554 , 2297545218 , 8</div></td></tr><tr><td><div>08:3e:8e:d9:6a:1d,2c:30:33:e1:cc:11,4,5,54,6,216.58.220.4,192.168.1.189,443, 49624 , 2297545218 , 3131175555 , 8</div></td></tr><tr><td><div>01:00:5e:7f:ff:fa,b8:76:3f:ef:ed:97,4,5,1,17,192.168.1.66,239.255.255.250, 48827,1900,180,62010</div></td></tr><tr><td><div>01:00:5e:00:00:fb,b8:76:3f:ef:ed:97,4,5,1,17,192.168.1.66,224.0.0.251, 5353,5353,48,59581</div></td></tr><tr><td><div>01:00:5e:7f:ff:fa,ac:b5:7d:fb:5d:c3,4,5,1,17,192.168.1.220,239.255.255.250, 56342,1900,180,54093</div></td></tr><tr><td><div>01:00:5e:7f:ff:fa,b8:76:3f:ef:ed:97,4,5,1,17,192.168.1.66,239.255.255.250, 48827,1900,180,62010</div></td></tr><tr><td><div>01:00:5e:00:00:fb,b8:76:3f:ef:ed:97,4,5,1,17,192.168.1.66,224.0.0.251, 5353,5353,48,59581</div></td></tr><tr><td><div>01:00:5e:7f:ff:fa,ac:b5:7d:fb:5d:c3,4,5,1,17,192.168.1.220,239.255.255.250, 56342,1900,180,54093</div></td></tr><tr><td><div>2c:30:33:e1:cc:11,08:3e:8e:d9:6a:1d,4,5,64,6,192.168.1.189,172.217.26.197,34864, 443 , 714393141 , 1566298547 , 8</div></td></tr><tr><td><div>2c:30:33:e1:cc:11,08:3e:8e:d9:6a:1d,4,5,64,6,192.168.1.189,172.217.26.195,34987, 443 , 4060320537 , 4045444962 , 8</div></td></tr><tr><td><div>2c:30:33:e1:cc:11,08:3e:8e:d9:6a:1d,4,5,64,6,192.168.1.189,172.217.26.193,56397, 443 , 4200797930 , 174200872 , 8</div></td></tr><tr><td><div>08:3e:8e:d9:6a:1d,2c:30:33:e1:cc:11,4,5,56,6,172.217.26.197,192.168.1.189,443, 34864 , 1566298547 , 714393142 , 8</div></td></tr><tr><td><div>08:3e:8e:d9:6a:1d,2c:30:33:e1:cc:11,4,5,56,6,172.217.26.193,192.168.1.189,443, 56397 , 174200872 , 4200797931 , 8</div></td></tr><tr><td><div>08:3e:8e:d9:6a:1d,2c:30:33:e1:cc:11,4,5,56,6,172.217.26.195,192.168.1.189,443, 34987 , 4045444962 , 4060320538 , 8</div></td></tr><tr><td><div>01:00:5e:7f:ff:fa,b8:76:3f:ef:ed:97,4,5,1,17,192.168.1.66,239.255.255.250, 48827,1900,180,62010</div></td></tr><tr><td><div>01:00:5e:7f:ff:fa,ac:b5:7d:fb:5d:c3,4,5,1,17,192.168.1.220,239.255.255.250, 56342,1900,180,54093</div></td></tr><tr><td><div>01:00:5e:7f:ff:fa,b8:76:3f:ef:ed:97,4,5,1,17,192.168.1.66,239.255.255.250, 48827,1900,180,62010</div></td></tr><tr><td><div>01:00:5e:00:00:fb,b8:76:3f:ef:ed:97,4,5,1,17,192.168.1.66,224.0.0.251, 5353,5353,48,59581</div></td></tr><tr><td><div>01:00:5e:7f:ff:fa,ac:b5:7d:fb:5d:c3,4,5,1,17,192.168.1.220,239.255.255.250, 56342,1900,180,54093</div></td></tr><tr><td><div>01:00:5e:00:00:fb,ac:b5:7d:fb:5d:c3,4,5,255,17,192.168.1.220,224.0.0.251, 5353,5353,53,12471</div></td></tr><tr><td><div>01:00:5e:00:00:fb,b8:76:3f:ef:ed:97,4,5,255,17,192.168.1.66,224.0.0.251, 5353,5353,53,12625</div></td></tr><tr><td><div>01:00:5e:7f:ff:fa,e4:f8:9c:37:6c:1b,4,5,1,17,192.168.1.11,239.255.255.250, 52012,1900,181,14582</div></td></tr><tr><td><div>2c:30:33:e1:cc:11,08:3e:8e:d9:6a:1d,4,5,64,17,192.168.1.189,172.217.26.197, 50192,443,31,15003</div></td></tr><tr><td><div>08:3e:8e:d9:6a:1d,2c:30:33:e1:cc:11,4,5,56,17,172.217.26.197,192.168.1.189, 443,50192,40,48242</div></td></tr><tr><td><div>01:00:5e:7f:ff:fa,e4:f8:9c:37:6c:1b,4,5,1,17,192.168.1.11,239.255.255.250, 52012,1900,181,14582</div></td></tr><tr><td><div>08:3e:8e:d9:6a:1d,2c:30:33:e1:cc:11,4,5,56,6,216.58.197.42,192.168.1.189,443, 39850 , 2244052271 , 1465892315 , 8</div></td></tr><tr><td><div>2c:30:33:e1:cc:11,08:3e:8e:d9:6a:1d,4,5,64,6,192.168.1.189,216.58.197.42,39850, 443 , 1465892315 , 2244052326 , 8</div></td></tr><tr><td><div>2c:30:33:e1:cc:11,08:3e:8e:d9:6a:1d,4,5,64,6,192.168.1.189,216.58.197.42,39850, 443 , 1465892315 , 2244052326 , 8</div></td></tr><tr><td><div>08:3e:8e:d9:6a:1d,2c:30:33:e1:cc:11,4,5,56,6,216.58.197.42,192.168.1.189,443, 39850 , 2244052326 , 1465892315 , 8</div></td></tr><tr><td><div>2c:30:33:e1:cc:11,08:3e:8e:d9:6a:1d,4,5,64,6,192.168.1.189,216.58.197.42,39850, 443 , 1465892316 , 2244052327 , 8</div></td></tr><tr><td><div>08:3e:8e:d9:6a:1d,2c:30:33:e1:cc:11,4,5,56,6,216.58.197.42,192.168.1.189,443, 39850 , 2244052327 , 1465892316 , 8</div></td></tr><tr><td><div>01:00:5e:7f:ff:fa,e4:f8:9c:37:6c:1b,4,5,1,17,192.168.1.11,239.255.255.250, 52012,1900,181,14582</div></td></tr><tr><td><div>01:00:5e:7f:ff:fa,08:3e:8e:d9:6a:1d,4,5,1,17,192.168.1.189,239.255.255.250, 57483,1900,180,51184</div></td></tr><tr><td><div>08:3e:8e:d9:6a:1d,2c:30:33:e1:cc:11,4,5,54,6,216.58.220.4,192.168.1.189,443, 49624 , 2297545218 , 3131175555 , 8</div></td></tr><tr><td><div>2c:30:33:e1:cc:11,08:3e:8e:d9:6a:1d,4,5,64,6,192.168.1.189,216.58.220.4,49624, 443 , 3131175555 , 2297545273 , 8</div></td></tr><tr><td><div>08:3e:8e:d9:6a:1d,2c:30:33:e1:cc:11,4,5,54,6,216.58.220.4,192.168.1.189,443, 49624 , 2297545273 , 3131175555 , 8</div></td></tr><tr><td><div>2c:30:33:e1:cc:11,08:3e:8e:d9:6a:1d,4,5,64,6,192.168.1.189,216.58.220.4,49624, 443 , 3131175555 , 2297545274 , 8</div></td></tr><tr><td><div>08:3e:8e:d9:6a:1d,2c:30:33:e1:cc:11,4,5,54,6,216.58.220.4,192.168.1.189,443, 49624 , 2297545274 , 3131175556 , 8</div></td></tr><tr><td><div>2c:30:33:e1:cc:11,08:3e:8e:d9:6a:1d,4,5,64,6,192.168.1.189,172.217.26.206,40204, 443 , 1115555589 , 2359844824 , 8</div></td></tr><tr><td><div>08:3e:8e:d9:6a:1d,2c:30:33:e1:cc:11,4,5,56,6,172.217.26.206,192.168.1.189,443, 40204 , 2359844824 , 1115555590 , 8</div></td></tr><tr><td><div>2c:30:33:e1:cc:11,08:3e:8e:d9:6a:1d,4,5,64,6,192.168.1.189,172.217.26.206,40205, 443 , 1982579398 , 239175093 , 8</div></td></tr><tr><td><div>08:3e:8e:d9:6a:1d,2c:30:33:e1:cc:11,4,5,56,6,172.217.26.206,192.168.1.189,443, 40205 , 239175093 , 1982579399 , 8</div></td></tr><tr><td><div>01:00:5e:7f:ff:fa,e4:f8:9c:37:6c:1b,4,5,1,17,192.168.1.11,239.255.255.250, 52012,1900,181,14582</div></td></tr><tr><td><div>01:00:5e:7f:ff:fa,08:3e:8e:d9:6a:1d,4,5,1,17,192.168.1.189,239.255.255.250, 57483,1900,180,51184</div></td></tr><tr><td><div>2c:30:33:e1:cc:11,08:3e:8e:d9:6a:1d,4,5,64,6,192.168.1.189,54.209.102.57,43285, 443 , 3673288103 , 2038235862 , 8</div></td></tr><tr><td><div>2c:30:33:e1:cc:11,08:3e:8e:d9:6a:1d,4,5,64,6,192.168.1.189,52.202.122.113,33039, 443 , 2348265800 , 518128414 , 8</div></td></tr><tr><td><div>08:3e:8e:d9:6a:1d,2c:30:33:e1:cc:11,4,5,43,6,54.209.102.57,192.168.1.189,443, 43285 , 2038235862 , 3673288104 , 8</div></td></tr><tr><td><div>08:3e:8e:d9:6a:1d,2c:30:33:e1:cc:11,4,5,43,6,52.202.122.113,192.168.1.189,443, 33039 , 518128414 , 2348265801 , 8</div></td></tr><tr><td><div>01:00:5e:7f:ff:fa,08:3e:8e:d9:6a:1d,4,5,1,17,192.168.1.189,239.255.255.250, 57483,1900,180,51184</div></td></tr><tr><td><div>01:00:5e:7f:ff:fa,08:3e:8e:d9:6a:1d,4,5,1,17,192.168.1.189,239.255.255.250, 57483,1900,180,51184</div></td></tr><tr><td><div>01:00:5e:00:00:fb,ac:c1:ee:6a:5c:d9,4,5,255,17,192.168.1.14,224.0.0.251, 5353,5353,69,12986</div></td></tr><tr><td><div>08:3e:8e:d9:6a:1d,2c:30:33:e1:cc:11,4,5,56,6,172.217.26.197,192.168.1.189,443, 34864 , 1566298547 , 714393142 , 8</div></td></tr><tr><td><div>2c:30:33:e1:cc:11,08:3e:8e:d9:6a:1d,4,5,64,6,192.168.1.189,172.217.26.197,34864, 443 , 714393142 , 1566298602 , 8</div></td></tr><tr><td><div>08:3e:8e:d9:6a:1d,2c:30:33:e1:cc:11,4,5,56,6,172.217.26.197,192.168.1.189,443, 34864 , 1566298602 , 714393142 , 8</div></td></tr><tr><td><div>2c:30:33:e1:cc:11,08:3e:8e:d9:6a:1d,4,5,64,6,192.168.1.189,172.217.26.197,34864, 443 , 714393143 , 1566298603 , 8</div></td></tr><tr><td><div>08:3e:8e:d9:6a:1d,2c:30:33:e1:cc:11,4,5,56,6,172.217.26.197,192.168.1.189,443, 34864 , 1566298603 , 714393143 , 8</div></td></tr><tr><td><div>08:3e:8e:d9:6a:1d,2c:30:33:e1:cc:11,4,5,56,6,172.217.26.195,192.168.1.189,443, 34987 , 4045444962 , 4060320538 , 8</div></td></tr><tr><td><div>2c:30:33:e1:cc:11,08:3e:8e:d9:6a:1d,4,5,64,6,192.168.1.189,172.217.26.195,34987, 443 , 4060320538 , 4045445017 , 8</div></td></tr><tr><td><div>2c:30:33:e1:cc:11,08:3e:8e:d9:6a:1d,4,5,64,6,192.168.1.189,172.217.26.195,34987, 443 , 4060320538 , 4045445017 , 8</div></td></tr><tr><td><div>08:3e:8e:d9:6a:1d,2c:30:33:e1:cc:11,4,5,56,6,172.217.26.195,192.168.1.189,443, 34987 , 4045445017 , 4060320538 , 8</div></td></tr><tr><td><div>2c:30:33:e1:cc:11,08:3e:8e:d9:6a:1d,4,5,64,6,192.168.1.189,172.217.26.195,34987, 443 , 4060320539 , 4045445018 , 8</div></td></tr><tr><td><div>08:3e:8e:d9:6a:1d,2c:30:33:e1:cc:11,4,5,56,6,172.217.26.195,192.168.1.189,443, 34987 , 4045445018 , 4060320539 , 8</div></td></tr><tr><td><div>08:3e:8e:d9:6a:1d,2c:30:33:e1:cc:11,4,5,56,6,172.217.26.193,192.168.1.189,443, 56397 , 174200872 , 4200797931 , 8</div></td></tr></table></div></td></tr><tr><td style="font-weight:bold;vertical-align:top;">b</td><td style="vertical-align:top;">:</td><td><div><table></table></div></td></tr></table></div>'
tRp103
sS'etype'
p104
S"<type 'exceptions.NameError'>"
p105
sS'date'
p106
S'Sat Nov 26 10:54:38 2016'
p107
sS'response'
p108
g57
(S's\x91\x1d\x00\x00<div><table><tr><td style="font-weight:bold;vertical-align:top;">body</td><td style="vertical-align:top;">:</td><td><div>&lt;cStringIO.StringO object at 0x7f0e0787cb58&gt;</div></td></tr><tr><td style="font-weight:bold;vertical-align:top;">cookies</td><td style="vertical-align:top;">:</td><td><div><table><tr><td style="font-weight:bold;vertical-align:top;">session_id_sniffer</td><td style="vertical-align:top;">:</td><td><div>127.0.0.1-888372bd-25a6-450b-b682-cd53cc2c25d5<table><tr><td style="font-weight:bold;vertical-align:top;">comment</td><td style="vertical-align:top;">:</td><td><div></div></td></tr><tr><td style="font-weight:bold;vertical-align:top;">domain</td><td style="vertical-align:top;">:</td><td><div></div></td></tr><tr><td style="font-weight:bold;vertical-align:top;">expires</td><td style="vertical-align:top;">:</td><td><div></div></td></tr><tr><td style="font-weight:bold;vertical-align:top;">httponly</td><td style="vertical-align:top;">:</td><td><div></div></td></tr><tr><td style="font-weight:bold;vertical-align:top;">max-age</td><td style="vertical-align:top;">:</td><td><div></div></td></tr><tr><td style="font-weight:bold;vertical-align:top;">path</td><td style="vertical-align:top;">:</td><td><div>/</div></td></tr><tr><td style="font-weight:bold;vertical-align:top;">secure</td><td style="vertical-align:top;">:</td><td><div></div></td></tr><tr><td style="font-weight:bold;vertical-align:top;">version</td><td style="vertical-align:top;">:</td><td><div></div></td></tr></table></div></td></tr></table></div></td></tr><tr><td style="font-weight:bold;vertical-align:top;">delimiters</td><td style="vertical-align:top;">:</td><td><div><table><tr><td><div>{{</div></td></tr><tr><td><div>}}</div></td></tr></table></div></td></tr><tr><td style="font-weight:bold;vertical-align:top;">files</td><td style="vertical-align:top;">:</td><td><div><table></table></div></td></tr><tr><td style="font-weight:bold;vertical-align:top;">flash</td><td style="vertical-align:top;">:</td><td><div></div></td></tr><tr><td style="font-weight:bold;vertical-align:top;">form_label_separator</td><td style="vertical-align:top;">:</td><td><div></div></td></tr><tr><td style="font-weight:bold;vertical-align:top;">formstyle</td><td style="vertical-align:top;">:</td><td><div>bootstrap3_inline</div></td></tr><tr><td style="font-weight:bold;vertical-align:top;">generic_patterns</td><td style="vertical-align:top;">:</td><td><div><table><tr><td><div>*</div></td></tr></table></div></td></tr><tr><td style="font-weight:bold;vertical-align:top;">google_analytics_id</td><td style="vertical-align:top;">:</td><td><div>None</div></td></tr><tr><td style="font-weight:bold;vertical-align:top;">headers</td><td style="vertical-align:top;">:</td><td><div><table><tr><td style="font-weight:bold;vertical-align:top;">X-Powered-By</td><td style="vertical-align:top;">:</td><td><div>web2py</div></td></tr></table></div></td></tr><tr><td style="font-weight:bold;vertical-align:top;">logo</td><td style="vertical-align:top;">:</td><td><div><a class="navbar-brand" href="http://www.web2py.com/" id="web2py-logo"><b>web<span>2</span>py</b>&trade;&nbsp;</a></div></td></tr><tr><td style="font-weight:bold;vertical-align:top;">menu</td><td style="vertical-align:top;">:</td><td><div><table><tr><td><div><table><tr><td><div>Sniff</div></td></tr><tr><td><div>False</div></td></tr><tr><td><div>/sniffer/default/index</div></td></tr><tr><td><div><table></table></div></td></tr></table></div></td></tr></table></div></td></tr><tr><td style="font-weight:bold;vertical-align:top;">meta</td><td style="vertical-align:top;">:</td><td><div><table><tr><td style="font-weight:bold;vertical-align:top;">author</td><td style="vertical-align:top;">:</td><td><div>Your Name &lt;you@example.com&gt;</div></td></tr><tr><td style="font-weight:bold;vertical-align:top;">description</td><td style="vertical-align:top;">:</td><td><div>a cool new app</div></td></tr><tr><td style="font-weight:bold;vertical-align:top;">generator</td><td style="vertical-align:top;">:</td><td><div>Web2py Web Framework</div></td></tr><tr><td style="font-weight:bold;vertical-align:top;">keywords</td><td style="vertical-align:top;">:</td><td><div><table><tr><td><div>web2py</div></td></tr><tr><td><div>python</div></td></tr><tr><td><div>framework</div></td></tr></table></div></td></tr></table></div></td></tr><tr><td style="font-weight:bold;vertical-align:top;">models_to_run</td><td style="vertical-align:top;">:</td><td><div><table><tr><td><div>^\\w+\\.py$</div></td></tr><tr><td><div>^default/\\w+\\.py$</div></td></tr><tr><td><div>^default/snif/\\w+\\.py$</div></td></tr></table></div></td></tr><tr><td style="font-weight:bold;vertical-align:top;">postprocessing</td><td style="vertical-align:top;">:</td><td><div><table></table></div></td></tr><tr><td style="font-weight:bold;vertical-align:top;">session_client</td><td style="vertical-align:top;">:</td><td><div>127.0.0.1</div></td></tr><tr><td style="font-weight:bold;vertical-align:top;">session_cookie_compression_level</td><td style="vertical-align:top;">:</td><td><div>None</div></td></tr><tr><td style="font-weight:bold;vertical-align:top;">session_cookie_expires</td><td style="vertical-align:top;">:</td><td><div>None</div></td></tr><tr><td style="font-weight:bold;vertical-align:top;">session_data_name</td><td style="vertical-align:top;">:</td><td><div>session_data_sniffer</div></td></tr><tr><td style="font-weight:bold;vertical-align:top;">session_file</td><td style="vertical-align:top;">:</td><td><div>&lt;open file &#x27;/home/preethi/Downloads/web2py/applications/sniffer/sessions/10b/0bf/127.0.0.1-888372bd-25a6-450b-b682-cd53cc2c25d5&#x27;, mode &#x27;rb+&#x27; at 0x7f0df0099150&gt;</div></td></tr><tr><td style="font-weight:bold;vertical-align:top;">session_filename</td><td style="vertical-align:top;">:</td><td><div>/home/preethi/Downloads/web2py/applications/sniffer/sessions/127.0.0.1-888372bd-25a6-450b-b682-cd53cc2c25d5</div></td></tr><tr><td style="font-weight:bold;vertical-align:top;">session_hash</td><td style="vertical-align:top;">:</td><td><div>270d8c0d6e8469e25ed3bac84782112a</div></td></tr><tr><td style="font-weight:bold;vertical-align:top;">session_id</td><td style="vertical-align:top;">:</td><td><div>127.0.0.1-888372bd-25a6-450b-b682-cd53cc2c25d5</div></td></tr><tr><td style="font-weight:bold;vertical-align:top;">session_id_name</td><td style="vertical-align:top;">:</td><td><div>session_id_sniffer</div></td></tr><tr><td style="font-weight:bold;vertical-align:top;">session_locked</td><td style="vertical-align:top;">:</td><td><div>False</div></td></tr><tr><td style="font-weight:bold;vertical-align:top;">session_masterapp</td><td style="vertical-align:top;">:</td><td><div>sniffer</div></td></tr><tr><td style="font-weight:bold;vertical-align:top;">session_new</td><td style="vertical-align:top;">:</td><td><div>False</div></td></tr><tr><td style="font-weight:bold;vertical-align:top;">session_storage_type</td><td style="vertical-align:top;">:</td><td><div>file</div></td></tr><tr><td style="font-weight:bold;vertical-align:top;">status</td><td style="vertical-align:top;">:</td><td><div>200</div></td></tr><tr><td style="font-weight:bold;vertical-align:top;">subtitle</td><td style="vertical-align:top;">:</td><td><div></div></td></tr><tr><td style="font-weight:bold;vertical-align:top;">title</td><td style="vertical-align:top;">:</td><td><div>Sniffer</div></td></tr><tr><td style="font-weight:bold;vertical-align:top;">view</td><td style="vertical-align:top;">:</td><td><div>default/snif.html</div></td></tr></table></div>'
tRp109
sS'locals'
p110
(dp111
S'Service'
p112
S"<class 'gluon.tools.Service'>"
p113
sS'OBJECT'
p114
S"<class 'gluon.html.OBJECT'>"
p115
sS'SQLDB'
p116
S"<class 'pydal.base.DAL'>"
p117
sg102
S"<Storage {'a': ['2c:30:33:e1:cc:11,08:3e:8e:d9:6...30bd8', '3f2c08b3-03eb-4fd7-a999-88d8f26a6958']}>"
p118
sS'LINK'
p119
S"<class 'gluon.html.LINK'>"
p120
sS'BR'
p121
S"<class 'gluon.html.BR'>"
p122
sS'local_import'
p123
S'<function <lambda>>'
p124
sS'OPTGROUP'
p125
S"<class 'gluon.html.OPTGROUP'>"
p126
sS'__package__'
p127
S'None'
p128
sS'PRE'
p129
S"<class 'gluon.html.PRE'>"
p130
sS'IS_INT_IN_RANGE'
p131
S"<class 'gluon.validators.IS_INT_IN_RANGE'>"
p132
sS'IS_LOWER'
p133
S"<class 'gluon.validators.IS_LOWER'>"
p134
sS'IS_STRONG'
p135
S"<class 'gluon.validators.IS_STRONG'>"
p136
sS'cache'
p137
S'<gluon.cache.Cache object>'
p138
sS'IS_IN_DB'
p139
S"<class 'gluon.validators.IS_IN_DB'>"
p140
sS'TAG'
p141
S'<gluon.html.__TAG__ object>'
p142
sS'SQLField'
p143
S"<class 'pydal.objects.Field'>"
p144
sS'mail'
p145
S'<gluon.tools.Mail object>'
p146
sS'BODY'
p147
S"<class 'gluon.html.BODY'>"
p148
sS'IS_DATE_IN_RANGE'
p149
S"<class 'gluon.validators.IS_DATE_IN_RANGE'>"
p150
sS'IFRAME'
p151
S"<class 'gluon.html.IFRAME'>"
p152
sS'URL'
p153
S'<function URL>'
p154
sS'__file__'
p155
S"'/home/preethi/Downloads/web2py/applications/sniffer/views/default/snif.html'"
p156
sS'db'
p157
S'<DAL uri="sqlite://storage.sqlite">'
p158
sS'auth'
p159
S'<gluon.tools.Auth object>'
p160
sS'P'
S"<class 'gluon.html.P'>"
p161
sS'TFOOT'
p162
S"<class 'gluon.html.TFOOT'>"
p163
sS'XHTML'
p164
S"<class 'gluon.html.XHTML'>"
p165
sS'ON'
p166
S'True'
p167
sS'OL'
p168
S"<class 'gluon.html.OL'>"
p169
sS'TEXTAREA'
p170
S"<class 'gluon.html.TEXTAREA'>"
p171
sS'MENU'
p172
S"<class 'gluon.html.MENU'>"
p173
sS't1'
p174
S'<Thread(Thread-17, started daemon 139698123847424)>'
p175
sS'IS_IMAGE'
p176
S"<class 'gluon.validators.IS_IMAGE'>"
p177
sS'EM'
p178
S"<class 'gluon.html.EM'>"
p179
sS'CODE'
p180
S"<class 'gluon.html.CODE'>"
p181
sS'HTTP'
p182
S"<class 'gluon.http.HTTP'>"
p183
sS'HR'
p184
S"<class 'gluon.html.HR'>"
p185
sS'IS_DATETIME'
p186
S"<class 'gluon.validators.IS_DATETIME'>"
p187
sS'STYLE'
p188
S"<class 'gluon.html.STYLE'>"
p189
sS'LABEL'
p190
S"<class 'gluon.html.LABEL'>"
p191
sS'CLEANUP'
p192
S"<class 'gluon.validators.CLEANUP'>"
p193
sS'plugins'
p194
S'<gluon.tools.PluginManager object>'
p195
sS'SELECT'
p196
S"<class 'gluon.html.SELECT'>"
p197
sS'CENTER'
p198
S"<class 'gluon.html.CENTER'>"
p199
sS'Auth'
p200
S"<class 'gluon.tools.Auth'>"
p201
sS'DEVELOPMENT_MENU'
p202
g167
sS'__builtins__'
p203
S"{'ArithmeticError': <type 'exceptions.ArithmeticError'>, 'AssertionError': <type 'exceptions.AssertionError'>, 'AttributeError': <type 'exceptions.AttributeError'>, 'BaseException': <type 'exceptions.BaseException'>, 'BufferError': <type 'exceptions.BufferError'>, 'BytesWarning': <type 'exceptions.BytesWarning'>, 'DeprecationWarning': <type 'exceptions.DeprecationWarning'>, 'EOFError': <type 'exceptions.EOFError'>, 'Ellipsis': Ellipsis, 'EnvironmentError': <type 'exceptions.EnvironmentError'>, ...}"
p204
sS'HTML'
p205
S"<class 'gluon.html.HTML'>"
p206
sS'SQLFORM'
p207
S"<class 'gluon.sqlhtml.SQLFORM'>"
p208
sS'LOAD'
p209
S'<function LOAD>'
p210
sS'redirect'
p211
S'<function redirect>'
p212
sS'FIELDSET'
p213
S"<class 'gluon.html.FIELDSET'>"
p214
sS'IS_EQUAL_TO'
p215
S"<class 'gluon.validators.IS_EQUAL_TO'>"
p216
sS'embed64'
p217
S'<function embed64>'
p218
sS'IS_LIST_OF'
p219
S"<class 'gluon.validators.IS_LIST_OF'>"
p220
sS'interface'
p221
S"'wlan0'"
p222
sS'INPUT'
p223
S"<class 'gluon.html.INPUT'>"
p224
sS'EMBED'
p225
S"<class 'gluon.html.EMBED'>"
p226
sS'myconf'
p227
S"{'forms': {'formstyle': 'bootstrap3_inline', 'se...': {'names': 'localhost:*, 127.0.0.1:*, *:*, *'}}"
p228
sS'H2'
p229
S"<class 'gluon.html.H2'>"
p230
sS'H3'
p231
S"<class 'gluon.html.H3'>"
p232
sS'AppConfig'
p233
S'<function AppConfig>'
p234
sS'H1'
p235
S"<class 'gluon.html.H1'>"
p236
sS'H6'
p237
S"<class 'gluon.html.H6'>"
p238
sS'H4'
p239
S"<class 'gluon.html.H4'>"
p240
sS'H5'
p241
S"<class 'gluon.html.H5'>"
p242
sS'UL'
p243
S"<class 'gluon.html.UL'>"
p244
sS'IS_UPPER'
p245
S"<class 'gluon.validators.IS_UPPER'>"
p246
sS'xmlescape'
p247
S'<function xmlescape>'
p248
sS'IS_TIME'
p249
S"<class 'gluon.validators.IS_TIME'>"
p250
sS'OPTION'
p251
S"<class 'gluon.html.OPTION'>"
p252
sS'TITLE'
p253
S"<class 'gluon.html.TITLE'>"
p254
sS'CRYPT'
p255
S"<class 'gluon.validators.CRYPT'>"
p256
sS'IS_EMPTY_OR'
p257
S"<class 'gluon.validators.IS_EMPTY_OR'>"
p258
sS'MARKMIN'
p259
S"<class 'gluon.html.MARKMIN'>"
p260
sS'__name__'
p261
S"'__restricted__'"
p262
sS'STRONG'
p263
S"<class 'gluon.html.STRONG'>"
p264
sS'COL'
p265
S"<class 'gluon.html.COL'>"
p266
sS'service'
p267
S'<gluon.tools.Service object>'
p268
sS'SCRIPT'
p269
S"<class 'gluon.html.SCRIPT'>"
p270
sS'TABLE'
p271
S"<class 'gluon.html.TABLE'>"
p272
sS'IS_IPV4'
p273
S"<class 'gluon.validators.IS_IPV4'>"
p274
sS'IS_LENGTH'
p275
S"<class 'gluon.validators.IS_LENGTH'>"
p276
sS'IS_IPV6'
p277
S"<class 'gluon.validators.IS_IPV6'>"
p278
sS'XML'
p279
S"<class 'gluon.html.XML'>"
p280
sS'B'
S"<class 'gluon.html.B'>"
p281
sS'IMG'
p282
S"<class 'gluon.html.IMG'>"
p283
sS'SQLTABLE'
p284
S"<class 'gluon.sqlhtml.SQLTABLE'>"
p285
sS'IS_MATCH'
p286
S"<class 'gluon.validators.IS_MATCH'>"
p287
sS'IS_ALPHANUMERIC'
p288
S"<class 'gluon.validators.IS_ALPHANUMERIC'>"
p289
sS'SPAN'
p290
S"<class 'gluon.html.SPAN'>"
p291
sS'IS_JSON'
p292
S"<class 'gluon.validators.IS_JSON'>"
p293
sS'IS_IPADDRESS'
p294
S"<class 'gluon.validators.IS_IPADDRESS'>"
p295
sS'IS_SLUG'
p296
S"<class 'gluon.validators.IS_SLUG'>"
p297
sS'BEAUTIFY'
p298
S"<class 'gluon.html.BEAUTIFY'>"
p299
sS'META'
p300
S"<class 'gluon.html.META'>"
p301
sS'BUTTON'
p302
S"<class 'gluon.html.BUTTON'>"
p303
sS'IS_DATE'
p304
S"<class 'gluon.validators.IS_DATE'>"
p305
sS'IS_EMAIL'
p306
S"<class 'gluon.validators.IS_EMAIL'>"
p307
sS'IS_NOT_EMPTY'
p308
S"<class 'gluon.validators.IS_NOT_EMPTY'>"
p309
sS'IS_FLOAT_IN_RANGE'
p310
S"<class 'gluon.validators.IS_FLOAT_IN_RANGE'>"
p311
sS'TBODY'
p312
S"<class 'gluon.html.TBODY'>"
p313
sS'CAT'
p314
S"<class 'gluon.html.CAT'>"
p315
sS'Field'
p316
S"<class 'pydal.objects.Field'>"
p317
sS'IS_LIST_OF_EMAILS'
p318
S"<class 'gluon.validators.IS_LIST_OF_EMAILS'>"
p319
sS'DIV'
p320
S"<class 'gluon.html.DIV'>"
p321
sS'LEGEND'
p322
S"<class 'gluon.html.LEGEND'>"
p323
sS'COLGROUP'
p324
S"<class 'gluon.html.COLGROUP'>"
p325
sS'DAL'
p326
S"<class 'pydal.base.DAL'>"
p327
sS'ASSIGNJS'
p328
S'<function ASSIGNJS>'
p329
sS'TR'
p330
S"<class 'gluon.html.TR'>"
p331
sS'LI'
p332
S"<class 'gluon.html.LI'>"
p333
sS'TH'
p334
S"<class 'gluon.html.TH'>"
p335
sS'TD'
p336
S"<class 'gluon.html.TD'>"
p337
sS'PluginManager'
p338
S"<class 'gluon.tools.PluginManager'>"
p339
sS'IS_URL'
p340
S"<class 'gluon.validators.IS_URL'>"
p341
sS'A'
S"<class 'gluon.html.A'>"
p342
sS'HEAD'
p343
S"<class 'gluon.html.HEAD'>"
p344
sS'IS_DATETIME_IN_RANGE'
p345
S"<class 'gluon.validators.IS_DATETIME_IN_RANGE'>"
p346
sS'FORM'
p347
S"<class 'gluon.html.FORM'>"
p348
sS'I'
S"<class 'gluon.html.I'>"
p349
sS'IS_NOT_IN_DB'
p350
S"<class 'gluon.validators.IS_NOT_IN_DB'>"
p351
sg108
S"<Storage {'body': <cStringIO.StringO object at 0...at 0x7f0dd0b5bed8>, 'view': 'default/snif.html'}>"
p352
sS'THEAD'
p353
S"<class 'gluon.html.THEAD'>"
p354
sS'ANY_OF'
p355
S"<class 'gluon.validators.ANY_OF'>"
p356
sS'IS_NULL_OR'
p357
S"<class 'gluon.validators.IS_EMPTY_OR'>"
p358
sg56
S"<Storage {'_vars': <Storage {'interface': 'wlan0...preethi/Downloads/web2py/applications/sniffer/'}>"
p359
sS'IS_EXPR'
p360
S"<class 'gluon.validators.IS_EXPR'>"
p361
sS'T'
S'<gluon.languages.translator object>'
p362
sS'IS_IN_SET'
p363
S"<class 'gluon.validators.IS_IN_SET'>"
p364
sS'IS_UPLOAD_FILENAME'
p365
S"<class 'gluon.validators.IS_UPLOAD_FILENAME'>"
p366
sS'TT'
p367
S"<class 'gluon.html.TT'>"
p368
sS'IS_DECIMAL_IN_RANGE'
p369
S"<class 'gluon.validators.IS_DECIMAL_IN_RANGE'>"
p370
sssS'traceback'
p371
S'Traceback (most recent call last):\n  File "/home/preethi/Downloads/web2py/gluon/restricted.py", line 227, in restricted\n    exec ccode in environment\n  File "/home/preethi/Downloads/web2py/applications/sniffer/views/default/snif.html", line 2, in <module>\n    <head>\nNameError: name \'d\' is not defined\n'
p372
s.