(dp1
S'output'
p2
S"<type 'exceptions.IndexError'> list index out of range"
p3
sS'layer'
p4
S'/home/hima/web2py/applications/sniffer_pr/views/default/table.html'
p5
sS'code'
p6
S'response.write(\'<!DOCTYPE html>\\n<!--[if (gt IE 9)|!(IE)]><!--> <html class="no-js" lang="\', escape=False)\nresponse.write(T.accepted_language or \'en\')\nresponse.write(\'"> <!--<![endif]-->\\n  <head>\\n    <meta charset="utf-8">\\n    <!-- www.phpied.com/conditional-comments-block-downloads/ -->\\n    <!-- Always force latest IE rendering engine\\n         (even in intranet) & Chrome Frame\\n         Remove this if you use the .htaccess -->\\n    <meta http-equiv="X-UA-Compatible" content="IE=edge\', escape=False)\nresponse.write(not request.is_local and \',chrome=1\' or \'\')\nresponse.write(\'">\\n    <!--  Mobile Viewport Fix\\n          j.mp/mobileviewport & davidbcalhoun.com/2010/viewport-metatag\\n          device-width: Occupy full width of the screen in its current orientation\\n          initial-scale = 1.0 retains dimensions instead of zooming out if page height > device height\\n          user-scalable = yes allows the user to zoom in -->\\n    <meta name="viewport" content="width=device-width, initial-scale=1.0">\\n    <title>\', escape=False)\nresponse.write(response.title or request.application)\nresponse.write(\'</title>\\n    <!-- http://dev.w3.org/html5/markup/meta.name.html -->\\n    <meta name="application-name" content="\', escape=False)\nresponse.write(request.application)\nresponse.write(\'">\\n    <!-- Speaking of Google, don\\\'t forget to set your site up:\\n         http://google.com/webmasters -->\\n    <meta name="google-site-verification" content="">\\n    <!-- include stylesheets -->\\n    <link rel="stylesheet" href="\', escape=False)\nresponse.write(URL(\'static\',\'css/bootstrap.min.css\'))\nresponse.write(\'"/>\\n    <link rel="stylesheet" href="\', escape=False)\nresponse.write(URL(\'static\',\'css/web2py-bootstrap3.css\'))\nresponse.write(\'"/>\\n    <link rel="shortcut icon" href="\', escape=False)\nresponse.write(URL(\'static\',\'images/favicon.ico\'))\nresponse.write(\'" type="image/x-icon">\\n    <link rel="apple-touch-icon" href="\', escape=False)\nresponse.write(URL(\'static\',\'images/favicon.png\'))\nresponse.write(\'">\\n    <!-- All JavaScript at the bottom, except for Modernizr which enables\\n         HTML5 elements & feature detects -->\\n    <script src="\', escape=False)\nresponse.write(URL(\'static\',\'js/modernizr-2.8.3.min.js\'))\nresponse.write(\'"></script>\\n    <!--[if lt IE 9]>\\n        <script src="\', escape=False)\nresponse.write(URL(\'static\',\'js/respond-1.4.2.min.js\'))\nresponse.write(\'"></script>\\n        <![endif]-->\\n    <!-- Favicons -->\\n    \', escape=False)\nresponse.write(\'<script type="text/javascript"><!--\\n    // These variables are used by the web2py_ajax_init function in web2py_ajax.js (which is loaded below).\\n    var w2p_ajax_confirm_message = "\', escape=False)\nresponse.write(T(\'Are you sure you want to delete this object?\'))\nresponse.write(\'";\\n    var w2p_ajax_disable_with_message = "\', escape=False)\nresponse.write(T(\'Working...\'))\nresponse.write(\'";\\n    var w2p_ajax_date_format = "\', escape=False)\nresponse.write(T(\'%Y-%m-%d\'))\nresponse.write(\'";\\n    var w2p_ajax_datetime_format = "\', escape=False)\nresponse.write(T(\'%Y-%m-%d %H:%M:%S\'))\nresponse.write(\'";\\n    var ajax_error_500 = \\\'\', escape=False)\nresponse.write(T.M(\'An error occured, please [[reload %s]] the page\') % URL(args=request.args, vars=request.get_vars))\nresponse.write("\'\\n    //--></script>\\n", escape=False)\nresponse.files.insert(0,URL(\'static\',\'js/jquery.js\'))\nresponse.files.insert(1,URL(\'static\',\'css/calendar.css\'))\nresponse.files.insert(2,URL(\'static\',\'js/calendar.js\'))\nresponse.files.insert(3,URL(\'static\',\'js/web2py.js\'))\nresponse.include_meta()\nresponse.include_files()\nresponse.write(\'\\n\', escape=False)\nresponse.write(\' <!-- this includes jquery.js, calendar.js/.css and web2py.js -->\\n    \', escape=False)\nresponse.write(\'\\n    \', escape=False)\n# using sidebars need to know what sidebar you want to use\nmc0 = \'col-md-12\'\nmc1 = \'col-md-9\'\nmc2 = \'col-md-6\'\nleft_sidebar_enabled = globals().get(\'left_sidebar_enabled\', False)\nright_sidebar_enabled = globals().get(\'right_sidebar_enabled\', False)\nmiddle_column = {0: mc0, 1: mc1, 2: mc2}[\n(left_sidebar_enabled and 1 or 0)+(right_sidebar_enabled and 1 or 0)]\nresponse.write(\'\\n  </head>\\n  <body>\\n    <!--[if lt IE 8]><p class="browserupgrade">You are using an <strong>outdated</strong> browser. Please <a href="http://browsehappy.com/">upgrade your browser</a> to improve your experience.</p><![endif]-->\\n    <div class="w2p_flash alert alert-dismissable">\', escape=False)\nresponse.write(response.flash or \'\')\nresponse.write(\'</div>\\n    <!-- Navbar ======================================= -->\\n    <nav class="navbar navbar-default navbar-fixed-top" role="navigation">\\n      <div class="container-fluid">\\n        <div class="navbar-header">\\n          <button type="button" class="navbar-toggle" data-toggle="collapse" data-target=".navbar-collapse">\\n            <span class="sr-only">Toggle navigation</span>\\n            <span class="icon-bar"></span>\\n            <span class="icon-bar"></span>\\n            <span class="icon-bar"></span>\\n          </button>\\n          \', escape=False)\nresponse.write(response.logo or \'\')\nresponse.write(\'\\n        </div>\\n        <div class="collapse navbar-collapse navbar-ex1-collapse">\\n          <ul class="nav navbar-nav navbar-right">\\n            \', escape=False)\nresponse.write(\'auth\' in globals() and auth.navbar(\'Welcome\',mode=\'dropdown\') or \'\')\nresponse.write(\'\\n          </ul>\\n          \', escape=False)\nif response.menu:\n    response.write(\'\\n          \', escape=False)\n    response.write(MENU(response.menu, _class=\'nav navbar-nav\',li_class=\'dropdown\',ul_class=\'dropdown-menu\'))\n    response.write(\'\\n          \', escape=False)\n    pass\nresponse.write(\'\\n        </div>\\n      </div>\\n    </nav>\\n    <!-- Masthead ===================================== -->    \\n    \', escape=False)\nresponse.write(\'\\n    \', escape=False)\nresponse.write(\'\\n    <!-- Main ========================================= -->\\n    <!-- Begin page content -->\\n    <div class="container-fluid main-container">\\n      \', escape=False)\nif left_sidebar_enabled:\n    response.write(\'\\n        <div class="col-md-3 left-sidebar">\\n            \', escape=False)\n    response.write(\'\\n            <h3>Left Sidebar</h3>\\n            <p></p>\\n            \', escape=False)\n    response.write(\'\\n        </div>\\n      \', escape=False)\n    pass\nresponse.write(\'\\n\\n      <div class="\', escape=False)\nresponse.write(middle_column)\nresponse.write(\'">\\n        \', escape=False)\nresponse.write(\'\\n        \', escape=False)\nresponse.write(\'\\n\\n\\n<html>\\n  <head>\\n      <!--\\n    <script type="text/javascript" src="https://www.gstatic.com/charts/loader.js"></script>\\n    <script type="text/javascript">\\n      google.charts.load(\\\'current\\\', {\\\'packages\\\':[\\\'table\\\']});\\n      google.charts.setOnLoadCallback(drawTable);\\n\\n      function drawTable() {\\n        var data = new google.visualization.DataTable();\\n        data.addColumn(\\\'number\\\', \\\'X\\\');\\n        data.addColumn(\\\'string\\\', \\\'source Mac\\\');\\n        data.addColumn(\\\'string\\\', \\\'Dest Mac\\\');\\n        data.addColumn(\\\'string\\\', \\\'source IP\\\');\\n        data.addColumn(\\\'string\\\', \\\'Dest IP\\\');\\n        data.addColumn(\\\'string\\\', \\\'Protocol\\\');\\n        data.addColumn(\\\'string\\\', \\\'info\\\');\\n\\n        data.addRows(\', escape=False)\nresponse.write(k)\nresponse.write(\');\\n        var table = new google.visualization.Table(document.getElementById(\\\'table_div\\\'));\\n\\n        table.draw(data, {showRowNumber: true, width: \\\'100%\\\', height: \\\'100%\\\'});\\n      }\\n    </script>\\n      -->\\n  </head>\\n  <body>\\n    <div id="table_div"><table class="table table-bordered">\\n      <tr>\\n        <th>Dest. MAC</th>\\n        <th>Src. Mac</th>\\n        <th>Protocol</th>\\n        <th>Src. IP</th>\\n        <th>Dest. IP</th>\\n        <th>Info</th>\\n      </tr><br>\\n    \', escape=False)\nfor item in l:\n    response.write(\'\\n      <tr>\\n          <td>\', escape=False)\n    response.write(item[0])\n    response.write(\'</td>\\n          <td>\', escape=False)\n    response.write(item[1])\n    response.write(\'</td>\\n          <td>\', escape=False)\n    response.write(item[2])\n    response.write(\'</td>\\n          <td>\', escape=False)\n    response.write(item[3])\n    response.write(\'</td>\\n          <td>\', escape=False)\n    response.write(item[4])\n    response.write(\'</td>\\n          <td>\', escape=False)\n    response.write(item[5])\n    response.write(\'</td>\\n      </tr><br>\\n    \', escape=False)\n    pass\nresponse.write(\'\\n      </table></div>\\n      \\n      <!--  -->\\n  </body>\\n</html>\\n\', escape=False)\nresponse.write(\'\\n        \', escape=False)\nresponse.write(\'\\n      </div>\\n\\n      \', escape=False)\nif right_sidebar_enabled:\n    response.write(\'\\n        <div class="col-md-3">\\n            \', escape=False)\n    response.write(\'\\n            <h3>Right Sidebar</h3>\\n            <p></p>\\n            \', escape=False)\n    response.write(\'\\n        </div>\\n      \', escape=False)\n    pass\nresponse.write(\'\\n\\n    </div>\\n\\n    \', escape=False)\nresponse.write(\' <!-- this is default footer -->      \\n    <footer class="footer">\\n      <div class="container-fluid">\\n        <div class="copyright pull-left">\', escape=False)\nresponse.write(T(\'Copyright\'))\nresponse.write(\' &#169; \', escape=False)\nresponse.write(request.now.year)\nresponse.write(\'</div>\\n          <div id="poweredBy" class="pull-right">\\n            \', escape=False)\nresponse.write(T(\'Powered by\'))\nresponse.write(\'\\n            <a href="http://www.web2py.com/">web2py</a>\\n          </div>\\n      </div>\\n    </footer>\\n    \', escape=False)\nresponse.write(\'\\n    <!-- The javascript =============================== -->\\n    <script src="\', escape=False)\nresponse.write(URL(\'static\',\'js/bootstrap.min.js\'))\nresponse.write(\'"></script>\\n    <script src="\', escape=False)\nresponse.write(URL(\'static\',\'js/web2py-bootstrap3.js\'))\nresponse.write(\'"></script>\\n    \', escape=False)\nresponse.write(\'\\n    \', escape=False)\nif response.google_analytics_id:\n    response.write(\'\\n    <!-- Analytics ==================================== -->\\n    <script src="\', escape=False)\n    response.write(URL(\'static\',\'js/analytics.min.js\'))\n    response.write(\'"></script>\\n    <script type="text/javascript">\\n      analytics.initialize({\\n      \\\'Google Analytics\\\':{trackingId:\\\'\', escape=False)\n    response.write(response.google_analytics_id)\n    response.write("\'}\\n      });\\n    </script>\\n    ", escape=False)\n    pass\nresponse.write(\'\\n    <!-- Share ============================y============ -->\\n    <script src="\', escape=False)\nresponse.write(URL(\'static\',\'js/share.js\',vars=dict(static=URL(\'static\',\'images\'))))\nresponse.write(\'"></script>\\n  </body>\\n</html>\\n\', escape=False)'
p7
sS'snapshot'
p8
(dp9
S'exception'
p10
(dp11
S'__hash__'
p12
S"<method-wrapper '__hash__' of exceptions.IndexError object>"
p13
sS'__setattr__'
p14
S"<method-wrapper '__setattr__' of exceptions.IndexError object>"
p15
sS'__reduce_ex__'
p16
S'<built-in method __reduce_ex__ of exceptions.IndexError object>'
p17
sS'__getslice__'
p18
S"<method-wrapper '__getslice__' of exceptions.IndexError object>"
p19
sS'__getitem__'
p20
S"<method-wrapper '__getitem__' of exceptions.IndexError object>"
p21
sS'__setstate__'
p22
S'<built-in method __setstate__ of exceptions.IndexError object>'
p23
sS'args'
p24
S"('list index out of range',)"
p25
sS'__reduce__'
p26
S'<built-in method __reduce__ of exceptions.IndexError object>'
p27
sS'__str__'
p28
S"<method-wrapper '__str__' of exceptions.IndexError object>"
p29
sS'__format__'
p30
S'<built-in method __format__ of exceptions.IndexError object>'
p31
sS'__getattribute__'
p32
S"<method-wrapper '__getattribute__' of exceptions.IndexError object>"
p33
sS'__class__'
p34
S"<type 'exceptions.IndexError'>"
p35
sS'__unicode__'
p36
S'<built-in method __unicode__ of exceptions.IndexError object>'
p37
sS'__delattr__'
p38
S"<method-wrapper '__delattr__' of exceptions.IndexError object>"
p39
sS'__subclasshook__'
p40
S'<built-in method __subclasshook__ of type object>'
p41
sS'__repr__'
p42
S"<method-wrapper '__repr__' of exceptions.IndexError object>"
p43
sS'__dict__'
p44
S'{}'
p45
sS'__sizeof__'
p46
S'<built-in method __sizeof__ of exceptions.IndexError object>'
p47
sS'__doc__'
p48
S"'Sequence index out of range.'"
p49
sS'__init__'
p50
S"<method-wrapper '__init__' of exceptions.IndexError object>"
p51
sS'__new__'
p52
S'<built-in method __new__ of type object>'
p53
ssS'evalue'
p54
S'list index out of range'
p55
sS'request'
p56
cgluon.html
XML_unpickle
p57
(S's\x7fl\x00\x00<div><table><tr><td style="font-weight:bold;vertical-align:top;">ajax</td><td style="vertical-align:top;">:</td><td><div>False</div></td></tr><tr><td style="font-weight:bold;vertical-align:top;">application</td><td style="vertical-align:top;">:</td><td><div>sniffer_pr</div></td></tr><tr><td style="font-weight:bold;vertical-align:top;">args</td><td style="vertical-align:top;">:</td><td><div><table></table></div></td></tr><tr><td style="font-weight:bold;vertical-align:top;">cid</td><td style="vertical-align:top;">:</td><td><div>None</div></td></tr><tr><td style="font-weight:bold;vertical-align:top;">client</td><td style="vertical-align:top;">:</td><td><div>127.0.0.1</div></td></tr><tr><td style="font-weight:bold;vertical-align:top;">controller</td><td style="vertical-align:top;">:</td><td><div>default</div></td></tr><tr><td style="font-weight:bold;vertical-align:top;">cookies</td><td style="vertical-align:top;">:</td><td><div><table><tr><td style="font-weight:bold;vertical-align:top;">session_id_admin</td><td style="vertical-align:top;">:</td><td><div>127.0.0.1-daf5b9e3-7c58-470a-a754-67da50b2e6fc<table><tr><td style="font-weight:bold;vertical-align:top;">comment</td><td style="vertical-align:top;">:</td><td><div></div></td></tr><tr><td style="font-weight:bold;vertical-align:top;">domain</td><td style="vertical-align:top;">:</td><td><div></div></td></tr><tr><td style="font-weight:bold;vertical-align:top;">expires</td><td style="vertical-align:top;">:</td><td><div></div></td></tr><tr><td style="font-weight:bold;vertical-align:top;">httponly</td><td style="vertical-align:top;">:</td><td><div></div></td></tr><tr><td style="font-weight:bold;vertical-align:top;">max-age</td><td style="vertical-align:top;">:</td><td><div></div></td></tr><tr><td style="font-weight:bold;vertical-align:top;">path</td><td style="vertical-align:top;">:</td><td><div></div></td></tr><tr><td style="font-weight:bold;vertical-align:top;">secure</td><td style="vertical-align:top;">:</td><td><div></div></td></tr><tr><td style="font-weight:bold;vertical-align:top;">version</td><td style="vertical-align:top;">:</td><td><div></div></td></tr></table></div></td></tr><tr><td style="font-weight:bold;vertical-align:top;">session_id_chart</td><td style="vertical-align:top;">:</td><td><div>127.0.0.1-f5890ea4-786a-451b-b933-80d00582ad15<table><tr><td style="font-weight:bold;vertical-align:top;">comment</td><td style="vertical-align:top;">:</td><td><div></div></td></tr><tr><td style="font-weight:bold;vertical-align:top;">domain</td><td style="vertical-align:top;">:</td><td><div></div></td></tr><tr><td style="font-weight:bold;vertical-align:top;">expires</td><td style="vertical-align:top;">:</td><td><div></div></td></tr><tr><td style="font-weight:bold;vertical-align:top;">httponly</td><td style="vertical-align:top;">:</td><td><div></div></td></tr><tr><td style="font-weight:bold;vertical-align:top;">max-age</td><td style="vertical-align:top;">:</td><td><div></div></td></tr><tr><td style="font-weight:bold;vertical-align:top;">path</td><td style="vertical-align:top;">:</td><td><div></div></td></tr><tr><td style="font-weight:bold;vertical-align:top;">secure</td><td style="vertical-align:top;">:</td><td><div></div></td></tr><tr><td style="font-weight:bold;vertical-align:top;">version</td><td style="vertical-align:top;">:</td><td><div></div></td></tr></table></div></td></tr><tr><td style="font-weight:bold;vertical-align:top;">session_id_sniffer1</td><td style="vertical-align:top;">:</td><td><div>127.0.0.1-d9fb0bc2-145a-4612-a20f-db05b983cf52<table><tr><td style="font-weight:bold;vertical-align:top;">comment</td><td style="vertical-align:top;">:</td><td><div></div></td></tr><tr><td style="font-weight:bold;vertical-align:top;">domain</td><td style="vertical-align:top;">:</td><td><div></div></td></tr><tr><td style="font-weight:bold;vertical-align:top;">expires</td><td style="vertical-align:top;">:</td><td><div></div></td></tr><tr><td style="font-weight:bold;vertical-align:top;">httponly</td><td style="vertical-align:top;">:</td><td><div></div></td></tr><tr><td style="font-weight:bold;vertical-align:top;">max-age</td><td style="vertical-align:top;">:</td><td><div></div></td></tr><tr><td style="font-weight:bold;vertical-align:top;">path</td><td style="vertical-align:top;">:</td><td><div></div></td></tr><tr><td style="font-weight:bold;vertical-align:top;">secure</td><td style="vertical-align:top;">:</td><td><div></div></td></tr><tr><td style="font-weight:bold;vertical-align:top;">version</td><td style="vertical-align:top;">:</td><td><div></div></td></tr></table></div></td></tr><tr><td style="font-weight:bold;vertical-align:top;">session_id_sniffer_new</td><td style="vertical-align:top;">:</td><td><div>127.0.0.1-c6781e7a-150a-4575-a4ba-624511b72679<table><tr><td style="font-weight:bold;vertical-align:top;">comment</td><td style="vertical-align:top;">:</td><td><div></div></td></tr><tr><td style="font-weight:bold;vertical-align:top;">domain</td><td style="vertical-align:top;">:</td><td><div></div></td></tr><tr><td style="font-weight:bold;vertical-align:top;">expires</td><td style="vertical-align:top;">:</td><td><div></div></td></tr><tr><td style="font-weight:bold;vertical-align:top;">httponly</td><td style="vertical-align:top;">:</td><td><div></div></td></tr><tr><td style="font-weight:bold;vertical-align:top;">max-age</td><td style="vertical-align:top;">:</td><td><div></div></td></tr><tr><td style="font-weight:bold;vertical-align:top;">path</td><td style="vertical-align:top;">:</td><td><div></div></td></tr><tr><td style="font-weight:bold;vertical-align:top;">secure</td><td style="vertical-align:top;">:</td><td><div></div></td></tr><tr><td style="font-weight:bold;vertical-align:top;">version</td><td style="vertical-align:top;">:</td><td><div></div></td></tr></table></div></td></tr><tr><td style="font-weight:bold;vertical-align:top;">session_id_sniffer_pr</td><td style="vertical-align:top;">:</td><td><div>127.0.0.1-eb04a049-3c4b-4c0d-a0a4-147ed30bc538<table><tr><td style="font-weight:bold;vertical-align:top;">comment</td><td style="vertical-align:top;">:</td><td><div></div></td></tr><tr><td style="font-weight:bold;vertical-align:top;">domain</td><td style="vertical-align:top;">:</td><td><div></div></td></tr><tr><td style="font-weight:bold;vertical-align:top;">expires</td><td style="vertical-align:top;">:</td><td><div></div></td></tr><tr><td style="font-weight:bold;vertical-align:top;">httponly</td><td style="vertical-align:top;">:</td><td><div></div></td></tr><tr><td style="font-weight:bold;vertical-align:top;">max-age</td><td style="vertical-align:top;">:</td><td><div></div></td></tr><tr><td style="font-weight:bold;vertical-align:top;">path</td><td style="vertical-align:top;">:</td><td><div></div></td></tr><tr><td style="font-weight:bold;vertical-align:top;">secure</td><td style="vertical-align:top;">:</td><td><div></div></td></tr><tr><td style="font-weight:bold;vertical-align:top;">version</td><td style="vertical-align:top;">:</td><td><div></div></td></tr></table></div></td></tr><tr><td style="font-weight:bold;vertical-align:top;">session_id_welcome</td><td style="vertical-align:top;">:</td><td><div>127.0.0.1-b2689ca8-6cb2-4203-b4a7-7ae5dfeeecaf<table><tr><td style="font-weight:bold;vertical-align:top;">comment</td><td style="vertical-align:top;">:</td><td><div></div></td></tr><tr><td style="font-weight:bold;vertical-align:top;">domain</td><td style="vertical-align:top;">:</td><td><div></div></td></tr><tr><td style="font-weight:bold;vertical-align:top;">expires</td><td style="vertical-align:top;">:</td><td><div></div></td></tr><tr><td style="font-weight:bold;vertical-align:top;">httponly</td><td style="vertical-align:top;">:</td><td><div></div></td></tr><tr><td style="font-weight:bold;vertical-align:top;">max-age</td><td style="vertical-align:top;">:</td><td><div></div></td></tr><tr><td style="font-weight:bold;vertical-align:top;">path</td><td style="vertical-align:top;">:</td><td><div></div></td></tr><tr><td style="font-weight:bold;vertical-align:top;">secure</td><td style="vertical-align:top;">:</td><td><div></div></td></tr><tr><td style="font-weight:bold;vertical-align:top;">version</td><td style="vertical-align:top;">:</td><td><div></div></td></tr></table></div></td></tr></table></div></td></tr><tr><td style="font-weight:bold;vertical-align:top;">env</td><td style="vertical-align:top;">:</td><td><div><table><tr><td style="font-weight:bold;vertical-align:top;">HTTP_ACCEPT</td><td style="vertical-align:top;">:</td><td><div>text/html,application/xhtml+xml,application/xml;q=0.9,*/*;q=0.8</div></td></tr><tr><td style="font-weight:bold;vertical-align:top;">HTTP_ACCEPT_ENCODING</td><td style="vertical-align:top;">:</td><td><div>gzip, deflate</div></td></tr><tr><td style="font-weight:bold;vertical-align:top;">HTTP_ACCEPT_LANGUAGE</td><td style="vertical-align:top;">:</td><td><div>en-US,en;q=0.5</div></td></tr><tr><td style="font-weight:bold;vertical-align:top;">HTTP_CACHE_CONTROL</td><td style="vertical-align:top;">:</td><td><div>max-age=0</div></td></tr><tr><td style="font-weight:bold;vertical-align:top;">HTTP_CONNECTION</td><td style="vertical-align:top;">:</td><td><div>keep-alive</div></td></tr><tr><td style="font-weight:bold;vertical-align:top;">HTTP_COOKIE</td><td style="vertical-align:top;">:</td><td><div>session_id_welcome=127.0.0.1-b2689ca8-6cb2-4203-b4a7-7ae5dfeeecaf; session_id_admin=127.0.0.1-daf5b9e3-7c58-470a-a754-67da50b2e6fc; session_id_sniffer_new=127.0.0.1-c6781e7a-150a-4575-a4ba-624511b72679; session_id_chart=127.0.0.1-f5890ea4-786a-451b-b933-80d00582ad15; session_id_sniffer1=127.0.0.1-d9fb0bc2-145a-4612-a20f-db05b983cf52; session_id_sniffer_pr=127.0.0.1-eb04a049-3c4b-4c0d-a0a4-147ed30bc538</div></td></tr><tr><td style="font-weight:bold;vertical-align:top;">HTTP_HOST</td><td style="vertical-align:top;">:</td><td><div>127.0.0.1:8000</div></td></tr><tr><td style="font-weight:bold;vertical-align:top;">HTTP_REFERER</td><td style="vertical-align:top;">:</td><td><div>http://127.0.0.1:8000/sniffer_pr/default/chart</div></td></tr><tr><td style="font-weight:bold;vertical-align:top;">HTTP_UPGRADE_INSECURE_REQUESTS</td><td style="vertical-align:top;">:</td><td><div>1</div></td></tr><tr><td style="font-weight:bold;vertical-align:top;">HTTP_USER_AGENT</td><td style="vertical-align:top;">:</td><td><div>Mozilla/5.0 (X11; Ubuntu; Linux x86_64; rv:48.0) Gecko/20100101 Firefox/48.0</div></td></tr><tr><td style="font-weight:bold;vertical-align:top;">PATH_INFO</td><td style="vertical-align:top;">:</td><td><div>/sniffer_pr/default/table</div></td></tr><tr><td style="font-weight:bold;vertical-align:top;">QUERY_STRING</td><td style="vertical-align:top;">:</td><td><div></div></td></tr><tr><td style="font-weight:bold;vertical-align:top;">REMOTE_ADDR</td><td style="vertical-align:top;">:</td><td><div>127.0.0.1</div></td></tr><tr><td style="font-weight:bold;vertical-align:top;">REMOTE_PORT</td><td style="vertical-align:top;">:</td><td><div>36460</div></td></tr><tr><td style="font-weight:bold;vertical-align:top;">REQUEST_METHOD</td><td style="vertical-align:top;">:</td><td><div>GET</div></td></tr><tr><td style="font-weight:bold;vertical-align:top;">SCRIPT_NAME</td><td style="vertical-align:top;">:</td><td><div></div></td></tr><tr><td style="font-weight:bold;vertical-align:top;">SERVER_NAME</td><td style="vertical-align:top;">:</td><td><div>honey</div></td></tr><tr><td style="font-weight:bold;vertical-align:top;">SERVER_PORT</td><td style="vertical-align:top;">:</td><td><div>8000</div></td></tr><tr><td style="font-weight:bold;vertical-align:top;">SERVER_PROTOCOL</td><td style="vertical-align:top;">:</td><td><div>HTTP/1.1</div></td></tr><tr><td style="font-weight:bold;vertical-align:top;">SERVER_SOFTWARE</td><td style="vertical-align:top;">:</td><td><div>Rocket 1.2.6</div></td></tr><tr><td style="font-weight:bold;vertical-align:top;">app_folders</td><td style="vertical-align:top;">:</td><td><div>set([&#x27;/home/hima/web2py/applications/admin/&#x27;, &#x27;/home/hima/web2py/applications/welcome/&#x27;, &#x27;/home/hima/web2py/applications/sniffer_pr/&#x27;, &#x27;/home/hima/web2py/applications/sniffer_new/&#x27;, &#x27;/home/hima/web2py/applications/sniffer1/&#x27;])</div></td></tr><tr><td style="font-weight:bold;vertical-align:top;">applications_parent</td><td style="vertical-align:top;">:</td><td><div>/home/hima/web2py</div></td></tr><tr><td style="font-weight:bold;vertical-align:top;">cmd_args</td><td style="vertical-align:top;">:</td><td><div><table></table></div></td></tr><tr><td style="font-weight:bold;vertical-align:top;">cmd_options</td><td style="vertical-align:top;">:</td><td><div>&lt;Values at 0x7f6501e83518: {&#x27;verbose&#x27;: False, &#x27;ip&#x27;: &#x27;127.0.0.1&#x27;, &#x27;debuglevel&#x27;: 30, &#x27;with_scheduler&#x27;: False, &#x27;shutdown_timeout&#x27;: 5, &#x27;taskbar&#x27;: False, &#x27;with_coverage&#x27;: False, &#x27;pid_filename&#x27;: &#x27;httpserver.pid&#x27;, &#x27;maxthreads&#x27;: None, &#x27;softcron&#x27;: False, &#x27;server_name&#x27;: &#x27;honey&#x27;, &#x27;bpython&#x27;: False, &#x27;nogui&#x27;: False, &#x27;port&#x27;: 8000, &#x27;print_errors&#x27;: False, &#x27;extcron&#x27;: False, &#x27;runcron&#x27;: False, &#x27;run_system_tests&#x27;: False, &#x27;test&#x27;: None, &#x27;folder&#x27;: &#x27;/home/hima/web2py&#x27;, &#x27;config&#x27;: &#x27;&#x27;, &#x27;minthreads&#x27;: None, &#x27;shell&#x27;: None, &#x27;run&#x27;: &#x27;&#x27;, &#x27;log_filename&#x27;: &#x27;httpserver.log&#x27;, &#x27;profiler_dir&#x27;: None, &#x27;args&#x27;: [&#x27;&#x27;], &#x27;socket_timeout&#x27;: 5, &#x27;ssl_ca_certificate&#x27;: None, &#x27;scheduler&#x27;: None, &#x27;interfaces&#x27;: None, &#x27;ssl_private_key&#x27;: &#x27;&#x27;, &#x27;gae&#x27;: None, &#x27;password&#x27;: &#x27;******&#x27;, &#x27;request_queue_size&#x27;: 5, &#x27;ssl_certificate&#x27;: &#x27;&#x27;, &#x27;cronjob&#x27;: False, &#x27;numthreads&#x27;: None, &#x27;quiet&#x27;: False, &#x27;import_models&#x27;: False, &#x27;timeout&#x27;: 10, &#x27;plain&#x27;: False, &#x27;nobanner&#x27;: False}&gt;</div></td></tr><tr><td style="font-weight:bold;vertical-align:top;">db_sessions</td><td style="vertical-align:top;">:</td><td><div>set([])</div></td></tr><tr><td style="font-weight:bold;vertical-align:top;">debugging</td><td style="vertical-align:top;">:</td><td><div>True</div></td></tr><tr><td style="font-weight:bold;vertical-align:top;">gluon_parent</td><td style="vertical-align:top;">:</td><td><div>/home/hima/web2py</div></td></tr><tr><td style="font-weight:bold;vertical-align:top;">http_accept</td><td style="vertical-align:top;">:</td><td><div>text/html,application/xhtml+xml,application/xml;q=0.9,*/*;q=0.8</div></td></tr><tr><td style="font-weight:bold;vertical-align:top;">http_accept_encoding</td><td style="vertical-align:top;">:</td><td><div>gzip, deflate</div></td></tr><tr><td style="font-weight:bold;vertical-align:top;">http_accept_language</td><td style="vertical-align:top;">:</td><td><div>en-US,en;q=0.5</div></td></tr><tr><td style="font-weight:bold;vertical-align:top;">http_cache_control</td><td style="vertical-align:top;">:</td><td><div>max-age=0</div></td></tr><tr><td style="font-weight:bold;vertical-align:top;">http_connection</td><td style="vertical-align:top;">:</td><td><div>keep-alive</div></td></tr><tr><td style="font-weight:bold;vertical-align:top;">http_cookie</td><td style="vertical-align:top;">:</td><td><div>session_id_welcome=127.0.0.1-b2689ca8-6cb2-4203-b4a7-7ae5dfeeecaf; session_id_admin=127.0.0.1-daf5b9e3-7c58-470a-a754-67da50b2e6fc; session_id_sniffer_new=127.0.0.1-c6781e7a-150a-4575-a4ba-624511b72679; session_id_chart=127.0.0.1-f5890ea4-786a-451b-b933-80d00582ad15; session_id_sniffer1=127.0.0.1-d9fb0bc2-145a-4612-a20f-db05b983cf52; session_id_sniffer_pr=127.0.0.1-eb04a049-3c4b-4c0d-a0a4-147ed30bc538</div></td></tr><tr><td style="font-weight:bold;vertical-align:top;">http_host</td><td style="vertical-align:top;">:</td><td><div>127.0.0.1:8000</div></td></tr><tr><td style="font-weight:bold;vertical-align:top;">http_referer</td><td style="vertical-align:top;">:</td><td><div>http://127.0.0.1:8000/sniffer_pr/default/chart</div></td></tr><tr><td style="font-weight:bold;vertical-align:top;">http_upgrade_insecure_requests</td><td style="vertical-align:top;">:</td><td><div>1</div></td></tr><tr><td style="font-weight:bold;vertical-align:top;">http_user_agent</td><td style="vertical-align:top;">:</td><td><div>Mozilla/5.0 (X11; Ubuntu; Linux x86_64; rv:48.0) Gecko/20100101 Firefox/48.0</div></td></tr><tr><td style="font-weight:bold;vertical-align:top;">is_jython</td><td style="vertical-align:top;">:</td><td><div>False</div></td></tr><tr><td style="font-weight:bold;vertical-align:top;">is_pypy</td><td style="vertical-align:top;">:</td><td><div>False</div></td></tr><tr><td style="font-weight:bold;vertical-align:top;">is_source</td><td style="vertical-align:top;">:</td><td><div>True</div></td></tr><tr><td style="font-weight:bold;vertical-align:top;">local_hosts</td><td style="vertical-align:top;">:</td><td><div><table><tr><td><div>honey</div></td></tr><tr><td><div>::1</div></td></tr><tr><td><div>127.0.1.1</div></td></tr><tr><td><div>::ffff:127.0.0.1</div></td></tr><tr><td><div>127.0.0.1</div></td></tr></table></div></td></tr><tr><td style="font-weight:bold;vertical-align:top;">path_info</td><td style="vertical-align:top;">:</td><td><div>/sniffer_pr/default/table</div></td></tr><tr><td style="font-weight:bold;vertical-align:top;">query_string</td><td style="vertical-align:top;">:</td><td><div></div></td></tr><tr><td style="font-weight:bold;vertical-align:top;">remote_addr</td><td style="vertical-align:top;">:</td><td><div>127.0.0.1</div></td></tr><tr><td style="font-weight:bold;vertical-align:top;">remote_port</td><td style="vertical-align:top;">:</td><td><div>36460</div></td></tr><tr><td style="font-weight:bold;vertical-align:top;">request_method</td><td style="vertical-align:top;">:</td><td><div>GET</div></td></tr><tr><td style="font-weight:bold;vertical-align:top;">request_uri</td><td style="vertical-align:top;">:</td><td><div>/sniffer_pr/default/table</div></td></tr><tr><td style="font-weight:bold;vertical-align:top;">script_name</td><td style="vertical-align:top;">:</td><td><div></div></td></tr><tr><td style="font-weight:bold;vertical-align:top;">server_name</td><td style="vertical-align:top;">:</td><td><div>honey</div></td></tr><tr><td style="font-weight:bold;vertical-align:top;">server_port</td><td style="vertical-align:top;">:</td><td><div>8000</div></td></tr><tr><td style="font-weight:bold;vertical-align:top;">server_protocol</td><td style="vertical-align:top;">:</td><td><div>HTTP/1.1</div></td></tr><tr><td style="font-weight:bold;vertical-align:top;">server_software</td><td style="vertical-align:top;">:</td><td><div>Rocket 1.2.6</div></td></tr><tr><td style="font-weight:bold;vertical-align:top;">web2py_path</td><td style="vertical-align:top;">:</td><td><div>/home/hima/web2py</div></td></tr><tr><td style="font-weight:bold;vertical-align:top;">web2py_version</td><td style="vertical-align:top;">:</td><td><div>2.14.6-stable+timestamp.2016.05.10.00.21.47</div></td></tr><tr><td style="font-weight:bold;vertical-align:top;">wsgi.errors</td><td style="vertical-align:top;">:</td><td><div>&lt;open file &#x27;&lt;stderr&gt;&#x27;, mode &#x27;w&#x27; at 0x7f6508e541e0&gt;</div></td></tr><tr><td style="font-weight:bold;vertical-align:top;">wsgi.file_wrapper</td><td style="vertical-align:top;">:</td><td><div>&lt;class wsgiref.util.FileWrapper at 0x7f6501f1ee88&gt;</div></td></tr><tr><td style="font-weight:bold;vertical-align:top;">wsgi.input</td><td style="vertical-align:top;">:</td><td><div>&lt;socket._fileobject object at 0x7f64f806c150&gt;</div></td></tr><tr><td style="font-weight:bold;vertical-align:top;">wsgi.multiprocess</td><td style="vertical-align:top;">:</td><td><div>False</div></td></tr><tr><td style="font-weight:bold;vertical-align:top;">wsgi.multithread</td><td style="vertical-align:top;">:</td><td><div>True</div></td></tr><tr><td style="font-weight:bold;vertical-align:top;">wsgi.run_once</td><td style="vertical-align:top;">:</td><td><div>False</div></td></tr><tr><td style="font-weight:bold;vertical-align:top;">wsgi.url_scheme</td><td style="vertical-align:top;">:</td><td><div>http</div></td></tr><tr><td style="font-weight:bold;vertical-align:top;">wsgi.version</td><td style="vertical-align:top;">:</td><td><div><table><tr><td><div>1</div></td></tr><tr><td><div>0</div></td></tr></table></div></td></tr><tr><td style="font-weight:bold;vertical-align:top;">wsgi_errors</td><td style="vertical-align:top;">:</td><td><div>&lt;open file &#x27;&lt;stderr&gt;&#x27;, mode &#x27;w&#x27; at 0x7f6508e541e0&gt;</div></td></tr><tr><td style="font-weight:bold;vertical-align:top;">wsgi_file_wrapper</td><td style="vertical-align:top;">:</td><td><div>&lt;class wsgiref.util.FileWrapper at 0x7f6501f1ee88&gt;</div></td></tr><tr><td style="font-weight:bold;vertical-align:top;">wsgi_input</td><td style="vertical-align:top;">:</td><td><div>&lt;socket._fileobject object at 0x7f64f806c150&gt;</div></td></tr><tr><td style="font-weight:bold;vertical-align:top;">wsgi_multiprocess</td><td style="vertical-align:top;">:</td><td><div>False</div></td></tr><tr><td style="font-weight:bold;vertical-align:top;">wsgi_multithread</td><td style="vertical-align:top;">:</td><td><div>True</div></td></tr><tr><td style="font-weight:bold;vertical-align:top;">wsgi_run_once</td><td style="vertical-align:top;">:</td><td><div>False</div></td></tr><tr><td style="font-weight:bold;vertical-align:top;">wsgi_url_scheme</td><td style="vertical-align:top;">:</td><td><div>http</div></td></tr><tr><td style="font-weight:bold;vertical-align:top;">wsgi_version</td><td style="vertical-align:top;">:</td><td><div><table><tr><td><div>1</div></td></tr><tr><td><div>0</div></td></tr></table></div></td></tr></table></div></td></tr><tr><td style="font-weight:bold;vertical-align:top;">extension</td><td style="vertical-align:top;">:</td><td><div>html</div></td></tr><tr><td style="font-weight:bold;vertical-align:top;">folder</td><td style="vertical-align:top;">:</td><td><div>/home/hima/web2py/applications/sniffer_pr/</div></td></tr><tr><td style="font-weight:bold;vertical-align:top;">function</td><td style="vertical-align:top;">:</td><td><div>table</div></td></tr><tr><td style="font-weight:bold;vertical-align:top;">global_settings</td><td style="vertical-align:top;">:</td><td><div><table><tr><td style="font-weight:bold;vertical-align:top;">app_folders</td><td style="vertical-align:top;">:</td><td><div>set([&#x27;/home/hima/web2py/applications/admin/&#x27;, &#x27;/home/hima/web2py/applications/welcome/&#x27;, &#x27;/home/hima/web2py/applications/sniffer_pr/&#x27;, &#x27;/home/hima/web2py/applications/sniffer_new/&#x27;, &#x27;/home/hima/web2py/applications/sniffer1/&#x27;])</div></td></tr><tr><td style="font-weight:bold;vertical-align:top;">applications_parent</td><td style="vertical-align:top;">:</td><td><div>/home/hima/web2py</div></td></tr><tr><td style="font-weight:bold;vertical-align:top;">cmd_args</td><td style="vertical-align:top;">:</td><td><div><table></table></div></td></tr><tr><td style="font-weight:bold;vertical-align:top;">cmd_options</td><td style="vertical-align:top;">:</td><td><div>&lt;Values at 0x7f6501e83518: {&#x27;verbose&#x27;: False, &#x27;ip&#x27;: &#x27;127.0.0.1&#x27;, &#x27;debuglevel&#x27;: 30, &#x27;with_scheduler&#x27;: False, &#x27;shutdown_timeout&#x27;: 5, &#x27;taskbar&#x27;: False, &#x27;with_coverage&#x27;: False, &#x27;pid_filename&#x27;: &#x27;httpserver.pid&#x27;, &#x27;maxthreads&#x27;: None, &#x27;softcron&#x27;: False, &#x27;server_name&#x27;: &#x27;honey&#x27;, &#x27;bpython&#x27;: False, &#x27;nogui&#x27;: False, &#x27;port&#x27;: 8000, &#x27;print_errors&#x27;: False, &#x27;extcron&#x27;: False, &#x27;runcron&#x27;: False, &#x27;run_system_tests&#x27;: False, &#x27;test&#x27;: None, &#x27;folder&#x27;: &#x27;/home/hima/web2py&#x27;, &#x27;config&#x27;: &#x27;&#x27;, &#x27;minthreads&#x27;: None, &#x27;shell&#x27;: None, &#x27;run&#x27;: &#x27;&#x27;, &#x27;log_filename&#x27;: &#x27;httpserver.log&#x27;, &#x27;profiler_dir&#x27;: None, &#x27;args&#x27;: [&#x27;&#x27;], &#x27;socket_timeout&#x27;: 5, &#x27;ssl_ca_certificate&#x27;: None, &#x27;scheduler&#x27;: None, &#x27;interfaces&#x27;: None, &#x27;ssl_private_key&#x27;: &#x27;&#x27;, &#x27;gae&#x27;: None, &#x27;password&#x27;: &#x27;******&#x27;, &#x27;request_queue_size&#x27;: 5, &#x27;ssl_certificate&#x27;: &#x27;&#x27;, &#x27;cronjob&#x27;: False, &#x27;numthreads&#x27;: None, &#x27;quiet&#x27;: False, &#x27;import_models&#x27;: False, &#x27;timeout&#x27;: 10, &#x27;plain&#x27;: False, &#x27;nobanner&#x27;: False}&gt;</div></td></tr><tr><td style="font-weight:bold;vertical-align:top;">db_sessions</td><td style="vertical-align:top;">:</td><td><div>set([])</div></td></tr><tr><td style="font-weight:bold;vertical-align:top;">debugging</td><td style="vertical-align:top;">:</td><td><div>True</div></td></tr><tr><td style="font-weight:bold;vertical-align:top;">gluon_parent</td><td style="vertical-align:top;">:</td><td><div>/home/hima/web2py</div></td></tr><tr><td style="font-weight:bold;vertical-align:top;">is_jython</td><td style="vertical-align:top;">:</td><td><div>False</div></td></tr><tr><td style="font-weight:bold;vertical-align:top;">is_pypy</td><td style="vertical-align:top;">:</td><td><div>False</div></td></tr><tr><td style="font-weight:bold;vertical-align:top;">is_source</td><td style="vertical-align:top;">:</td><td><div>True</div></td></tr><tr><td style="font-weight:bold;vertical-align:top;">local_hosts</td><td style="vertical-align:top;">:</td><td><div><table><tr><td><div>honey</div></td></tr><tr><td><div>::1</div></td></tr><tr><td><div>127.0.1.1</div></td></tr><tr><td><div>::ffff:127.0.0.1</div></td></tr><tr><td><div>127.0.0.1</div></td></tr></table></div></td></tr><tr><td style="font-weight:bold;vertical-align:top;">web2py_version</td><td style="vertical-align:top;">:</td><td><div>2.14.6-stable+timestamp.2016.05.10.00.21.47</div></td></tr></table></div></td></tr><tr><td style="font-weight:bold;vertical-align:top;">is_https</td><td style="vertical-align:top;">:</td><td><div>False</div></td></tr><tr><td style="font-weight:bold;vertical-align:top;">is_local</td><td style="vertical-align:top;">:</td><td><div>True</div></td></tr><tr><td style="font-weight:bold;vertical-align:top;">is_restful</td><td style="vertical-align:top;">:</td><td><div>False</div></td></tr><tr><td style="font-weight:bold;vertical-align:top;">is_scheduler</td><td style="vertical-align:top;">:</td><td><div>False</div></td></tr><tr><td style="font-weight:bold;vertical-align:top;">is_shell</td><td style="vertical-align:top;">:</td><td><div>False</div></td></tr><tr><td style="font-weight:bold;vertical-align:top;">now</td><td style="vertical-align:top;">:</td><td><div>datetime.datetime(2016, 11, 26, 14, 6, 34, 577944)</div></td></tr><tr><td style="font-weight:bold;vertical-align:top;">raw_args</td><td style="vertical-align:top;">:</td><td><div></div></td></tr><tr><td style="font-weight:bold;vertical-align:top;">raw_extension</td><td style="vertical-align:top;">:</td><td><div>None</div></td></tr><tr><td style="font-weight:bold;vertical-align:top;">url</td><td style="vertical-align:top;">:</td><td><div>/sniffer_pr/default/table</div></td></tr><tr><td style="font-weight:bold;vertical-align:top;">utcnow</td><td style="vertical-align:top;">:</td><td><div>datetime.datetime(2016, 11, 26, 8, 36, 34, 577967)</div></td></tr><tr><td style="font-weight:bold;vertical-align:top;">wsgi</td><td style="vertical-align:top;">:</td><td><div>&lt;gluon.main.LazyWSGI object at 0x7f64be65fa50&gt;</div></td></tr></table></div>'
tRp58
sS'frames'
p59
(lp60
(dp61
S'file'
p62
S'/home/hima/web2py/gluon/restricted.py'
p63
sS'dump'
p64
(dp65
S'environment'
p66
S"{'A': <class 'gluon.html.A'>, 'ANY_OF': <class 'gluon.validators.ANY_OF'>, 'ASSIGNJS': <function ASSIGNJS>, 'AppConfig': <function AppConfig>, 'Auth': <class 'gluon.tools.Auth'>, 'B': <class 'gluon.html.B'>, 'BEAUTIFY': <class 'gluon.html.BEAUTIFY'>, 'BODY': <class 'gluon.html.BODY'>, 'BR': <class 'gluon.html.BR'>, 'BUTTON': <class 'gluon.html.BUTTON'>, ...}"
p67
sS'ccode'
p68
S'<code object <module> at 0x7f64be161a30, file "/...ons/sniffer_pr/views/default/table.html", line 1>'
p69
ssS'lnum'
p70
I227
sS'lines'
p71
(dp72
I224
S'            ccode = code'
p73
sI225
S'        else:'
p74
sI226
S'            ccode = compile2(code, layer)'
p75
sI227
S'        exec ccode in environment'
p76
sI228
S'    except HTTP:'
p77
sI229
S'        raise'
p78
sI230
S'    except RestrictedError:'
p79
sI231
S'        # do not encapsulate (obfuscate) the original RestrictedError'
p80
sI222
S'    try:'
p81
sI223
S'        if isinstance(code, types.CodeType):'
p82
ssS'call'
p83
S'(code=\'response.write(\\\'<!DOCTYPE html>\\\\n<!--[if (gt IE ..."></script>\\\\n  </body>\\\\n</html>\\\\n\\\', escape=False)\', environment={\'A\': <class \'gluon.html.A\'>, \'ANY_OF\': <class \'gluon.validators.ANY_OF\'>, \'ASSIGNJS\': <function ASSIGNJS>, \'AppConfig\': <function AppConfig>, \'Auth\': <class \'gluon.tools.Auth\'>, \'B\': <class \'gluon.html.B\'>, \'BEAUTIFY\': <class \'gluon.html.BEAUTIFY\'>, \'BODY\': <class \'gluon.html.BODY\'>, \'BR\': <class \'gluon.html.BR\'>, \'BUTTON\': <class \'gluon.html.BUTTON\'>, ...}, layer=\'/home/hima/web2py/applications/sniffer_pr/views/default/table.html\')'
p84
sS'func'
p85
S'restricted'
p86
sa(dp87
g62
S'/home/hima/web2py/applications/sniffer_pr/views/default/table.html'
p88
sg64
(dp89
sg70
I89
sg71
(dp90
I96
S'    response.write(\'\\n        <div class="col-md-3">\\n            \', escape=False)'
p91
sI97
S"    response.write('\\n            <h3>Right Sidebar</h3>\\n            <p></p>\\n            ', escape=False)"
p92
sI98
S"    response.write('\\n        </div>\\n      ', escape=False)"
p93
sI99
S'    pass'
p94
sI80
S"    response.write('</td>\\n          <td>', escape=False)"
p95
sI81
S'    response.write(item[1])'
p96
sI82
S"    response.write('</td>\\n          <td>', escape=False)"
p97
sI83
S'    response.write(item[2])'
p98
sI84
S"    response.write('</td>\\n          <td>', escape=False)"
p99
sI85
S'    response.write(item[3])'
p100
sI86
S"    response.write('</td>\\n          <td>', escape=False)"
p101
sI87
S'    response.write(item[4])'
p102
sI88
S"    response.write('</td>\\n          <td>', escape=False)"
p103
sI89
S'    response.write(item[5])'
p104
sI90
S"    response.write('</td>\\n      </tr><br>\\n    ', escape=False)"
p105
sI91
S'    pass'
p106
sI92
S"response.write('\\n      </table></div>\\n      \\n      <!--  -->\\n  </body>\\n</html>\\n', escape=False)"
p107
sI93
S"response.write('\\n        ', escape=False)"
p108
sI94
S"response.write('\\n      </div>\\n\\n      ', escape=False)"
p109
sI95
S'if right_sidebar_enabled:'
p110
ssg83
S'()'
p111
sg85
S'<module>'
p112
sasS'pyver'
p113
S'Python 2.7.6: /usr/bin/python (prefix: /usr)'
p114
sS'session'
p115
g57
(S's\x1dm\x00\x00<div><table><tr><td style="font-weight:bold;vertical-align:top;">a</td><td style="vertical-align:top;">:</td><td><div><table><tr><td><div>2c:30:33:e1:cc:11,ac:b5:7d:fb:5d:c3,4,5,64,6,192.168.1.220,52.201.107.156,42474, 443 , 2700684326 , 1272433349 , 8</div></td></tr><tr><td><div>2c:30:33:e1:cc:11,ac:b5:7d:fb:5d:c3,4,5,64,6,192.168.1.220,52.201.107.156,42474, 443 , 2700684326 , 1272433349 , 8</div></td></tr><tr><td><div>ac:b5:7d:fb:5d:c3,2c:30:33:e1:cc:11,4,5,31,6,52.33.155.40,192.168.1.220,80, 53372 , 1008582741 , 414907085 , 8</div></td></tr><tr><td><div>ac:b5:7d:fb:5d:c3,2c:30:33:e1:cc:11,4,5,31,6,52.33.155.40,192.168.1.220,80, 53372 , 1008582741 , 414907085 , 8</div></td></tr><tr><td><div>2c:30:33:e1:cc:11,ac:b5:7d:fb:5d:c3,4,5,64,6,192.168.1.220,52.204.240.79,50640, 443 , 486888668 , 2079989637 , 8</div></td></tr><tr><td><div>01:00:5e:00:00:fc,02:20:ac:3b:a3:a3,4,5,1,17,192.168.1.151,224.0.0.252, 63584,5355,50,10479</div></td></tr><tr><td><div>01:00:5e:7f:ff:fa,d8:5d:e2:05:1d:e1,4,5,1,17,192.168.1.18,239.255.255.250, 55828,1900,181,10759</div></td></tr><tr><td><div>01:00:5e:00:00:fb,d8:5d:e2:05:1d:e1,4,5,1,17,192.168.1.18,224.0.0.251, 5353,5353,48,59629</div></td></tr><tr><td><div>ac:b5:7d:fb:5d:c3,2c:30:33:e1:cc:11,4,5,41,6,52.201.107.156,192.168.1.220,443, 42474 , 1272433349 , 2700684327 , 8</div></td></tr><tr><td><div>2c:30:33:e1:cc:11,ac:b5:7d:fb:5d:c3,4,5,64,6,192.168.1.220,52.204.240.79,50640, 443 , 486888668 , 2079989637 , 8</div></td></tr><tr><td><div>01:00:5e:00:00:fc,02:20:ac:3b:a3:a3,4,5,1,17,192.168.1.151,224.0.0.252, 63584,5355,50,10479</div></td></tr><tr><td><div>01:00:5e:7f:ff:fa,d8:5d:e2:05:1d:e1,4,5,1,17,192.168.1.18,239.255.255.250, 55828,1900,181,10759</div></td></tr><tr><td><div>01:00:5e:00:00:fb,d8:5d:e2:05:1d:e1,4,5,1,17,192.168.1.18,224.0.0.251, 5353,5353,48,59629</div></td></tr><tr><td><div>ac:b5:7d:fb:5d:c3,2c:30:33:e1:cc:11,4,5,41,6,52.201.107.156,192.168.1.220,443, 42474 , 1272433349 , 2700684327 , 8</div></td></tr><tr><td><div>ac:b5:7d:fb:5d:c3,2c:30:33:e1:cc:11,4,5,41,6,52.204.240.79,192.168.1.220,443, 50640 , 2079989637 , 486888669 , 8</div></td></tr><tr><td><div>ac:b5:7d:fb:5d:c3,2c:30:33:e1:cc:11,4,5,41,6,52.204.240.79,192.168.1.220,443, 50640 , 2079989637 , 486888669 , 8</div></td></tr><tr><td><div>01:00:5e:7f:ff:fa,00:c1:40:89:10:9f,4,5,1,17,192.168.1.46,239.255.255.250, 45514,1900,180,65343</div></td></tr><tr><td><div>01:00:5e:7f:ff:fa,00:c1:40:89:10:9f,4,5,1,17,192.168.1.46,239.255.255.250, 45514,1900,180,65343</div></td></tr><tr><td><div>2c:30:33:e1:cc:11,ac:b5:7d:fb:5d:c3,4,5,64,6,192.168.1.220,52.33.155.40,53366, 80 , 1067314840 , 1905201319 , 8</div></td></tr><tr><td><div>2c:30:33:e1:cc:11,ac:b5:7d:fb:5d:c3,4,5,64,6,192.168.1.220,52.33.155.40,53366, 80 , 1067314840 , 1905201319 , 8</div></td></tr><tr><td><div>ac:b5:7d:fb:5d:c3,2c:30:33:e1:cc:11,4,5,29,6,52.33.155.40,192.168.1.220,80, 53366 , 1905201319 , 1067314841 , 8</div></td></tr><tr><td><div>ac:b5:7d:fb:5d:c3,2c:30:33:e1:cc:11,4,5,29,6,52.33.155.40,192.168.1.220,80, 53366 , 1905201319 , 1067314841 , 8</div></td></tr><tr><td><div>01:00:5e:7f:ff:fa,d8:5d:e2:05:1d:e1,4,5,1,17,192.168.1.18,239.255.255.250, 55828,1900,181,10759</div></td></tr><tr><td><div>01:00:5e:7f:ff:fa,d8:5d:e2:05:1d:e1,4,5,1,17,192.168.1.18,239.255.255.250, 55828,1900,181,10759</div></td></tr><tr><td><div>01:00:5e:7f:ff:fa,00:c1:40:89:10:9f,4,5,1,17,192.168.1.46,239.255.255.250, 45514,1900,180,65343</div></td></tr><tr><td><div>01:00:5e:7f:ff:fa,00:c1:40:89:10:9f,4,5,1,17,192.168.1.46,239.255.255.250, 45514,1900,180,65343</div></td></tr><tr><td><div>01:00:5e:7f:ff:fa,d8:5d:e2:05:1d:e1,4,5,1,17,192.168.1.18,239.255.255.250, 55828,1900,181,10759</div></td></tr><tr><td><div>01:00:5e:00:00:fb,d8:5d:e2:05:1d:e1,4,5,1,17,192.168.1.18,224.0.0.251, 5353,5353,48,59629</div></td></tr><tr><td><div>01:00:5e:7f:ff:fa,d8:5d:e2:05:1d:e1,4,5,1,17,192.168.1.18,239.255.255.250, 55828,1900,181,10759</div></td></tr><tr><td><div>01:00:5e:00:00:fb,d8:5d:e2:05:1d:e1,4,5,1,17,192.168.1.18,224.0.0.251, 5353,5353,48,59629</div></td></tr><tr><td><div>01:00:5e:7f:ff:fa,00:c1:40:89:10:9f,4,5,1,17,192.168.1.46,239.255.255.250, 45514,1900,180,65343</div></td></tr><tr><td><div>01:00:5e:7f:ff:fa,00:c1:40:89:10:9f,4,5,1,17,192.168.1.46,239.255.255.250, 45514,1900,180,65343</div></td></tr><tr><td><div>01:00:5e:7f:ff:fa,00:c1:40:89:10:9f,4,5,1,17,192.168.1.46,239.255.255.250, 45514,1900,180,65343</div></td></tr><tr><td><div>01:00:5e:7f:ff:fa,00:c1:40:89:10:9f,4,5,1,17,192.168.1.46,239.255.255.250, 45514,1900,180,65343</div></td></tr><tr><td><div>2c:30:33:e1:cc:11,ac:b5:7d:fb:5d:c3,4,5,64,6,192.168.1.220,184.26.168.175,53808, 443 , 2533321203 , 3501661993 , 8</div></td></tr><tr><td><div>ac:b5:7d:fb:5d:c3,2c:30:33:e1:cc:11,4,5,59,6,184.26.168.175,192.168.1.220,443, 53808 , 3501661993 , 2533321204 , 8</div></td></tr><tr><td><div>2c:30:33:e1:cc:11,ac:b5:7d:fb:5d:c3,4,5,64,6,192.168.1.220,184.26.168.175,53808, 443 , 2533321203 , 3501661993 , 8</div></td></tr><tr><td><div>ac:b5:7d:fb:5d:c3,2c:30:33:e1:cc:11,4,5,59,6,184.26.168.175,192.168.1.220,443, 53808 , 3501661993 , 2533321204 , 8</div></td></tr><tr><td><div>2c:30:33:e1:cc:11,ac:b5:7d:fb:5d:c3,4,5,64,17,192.168.1.220,192.168.1.1, 38549,53,41,46006</div></td></tr><tr><td><div>2c:30:33:e1:cc:11,ac:b5:7d:fb:5d:c3,4,5,64,17,192.168.1.220,192.168.1.1, 18995,53,41,13727</div></td></tr><tr><td><div>2c:30:33:e1:cc:11,ac:b5:7d:fb:5d:c3,4,5,64,17,192.168.1.220,192.168.1.1, 38549,53,41,46006</div></td></tr><tr><td><div>2c:30:33:e1:cc:11,ac:b5:7d:fb:5d:c3,4,5,64,17,192.168.1.220,192.168.1.1, 18995,53,41,13727</div></td></tr><tr><td><div>ac:b5:7d:fb:5d:c3,2c:30:33:e1:cc:11,4,5,64,17,192.168.1.1,192.168.1.220, 53,18995,103,14467</div></td></tr><tr><td><div>ac:b5:7d:fb:5d:c3,2c:30:33:e1:cc:11,4,5,64,17,192.168.1.1,192.168.1.220, 53,38549,91,19978</div></td></tr><tr><td><div>ac:b5:7d:fb:5d:c3,2c:30:33:e1:cc:11,4,5,47,17,74.125.130.189,192.168.1.220, 443,45426,50,39700</div></td></tr><tr><td><div>2c:30:33:e1:cc:11,ac:b5:7d:fb:5d:c3,4,5,64,6,192.168.1.220,216.58.197.78,37020, 443 , 1606937264 , 0 , 10</div></td></tr><tr><td><div>ac:b5:7d:fb:5d:c3,2c:30:33:e1:cc:11,4,5,56,6,216.58.197.78,192.168.1.220,443, 37020 , 603984334 , 1606937265 , 10</div></td></tr><tr><td><div>2c:30:33:e1:cc:11,ac:b5:7d:fb:5d:c3,4,5,64,6,192.168.1.220,216.58.197.78,37020, 443 , 1606937265 , 603984335 , 8</div></td></tr><tr><td><div>2c:30:33:e1:cc:11,ac:b5:7d:fb:5d:c3,4,5,64,6,192.168.1.220,216.58.197.78,37020, 443 , 1606937265 , 603984335 , 8</div></td></tr><tr><td><div>ac:b5:7d:fb:5d:c3,2c:30:33:e1:cc:11,4,5,56,6,216.58.197.78,192.168.1.220,443, 37020 , 603984335 , 1606937462 , 8</div></td></tr><tr><td><div>ac:b5:7d:fb:5d:c3,2c:30:33:e1:cc:11,4,5,56,6,216.58.197.78,192.168.1.220,443, 37020 , 603984335 , 1606937462 , 8</div></td></tr><tr><td><div>2c:30:33:e1:cc:11,ac:b5:7d:fb:5d:c3,4,5,64,6,192.168.1.220,216.58.197.78,37020, 443 , 1606937462 , 603985723 , 8</div></td></tr><tr><td><div>ac:b5:7d:fb:5d:c3,2c:30:33:e1:cc:11,4,5,56,6,216.58.197.78,192.168.1.220,443, 37020 , 603985723 , 1606937462 , 8</div></td></tr><tr><td><div>2c:30:33:e1:cc:11,ac:b5:7d:fb:5d:c3,4,5,64,6,192.168.1.220,216.58.197.78,37020, 443 , 1606937462 , 603987111 , 8</div></td></tr><tr><td><div>ac:b5:7d:fb:5d:c3,2c:30:33:e1:cc:11,4,5,56,6,216.58.197.78,192.168.1.220,443, 37020 , 603987111 , 1606937462 , 8</div></td></tr><tr><td><div>2c:30:33:e1:cc:11,ac:b5:7d:fb:5d:c3,4,5,64,6,192.168.1.220,216.58.197.78,37020, 443 , 1606937462 , 603988351 , 8</div></td></tr><tr><td><div>2c:30:33:e1:cc:11,ac:b5:7d:fb:5d:c3,4,5,64,6,192.168.1.220,216.58.197.78,37020, 443 , 1606937462 , 603988351 , 8</div></td></tr><tr><td><div>2c:30:33:e1:cc:11,ac:b5:7d:fb:5d:c3,4,5,64,6,192.168.1.220,216.58.197.78,37020, 443 , 1606937588 , 603988351 , 8</div></td></tr><tr><td><div>2c:30:33:e1:cc:11,ac:b5:7d:fb:5d:c3,4,5,64,6,192.168.1.220,216.58.197.78,37020, 443 , 1606937745 , 603988351 , 8</div></td></tr><tr><td><div>2c:30:33:e1:cc:11,ac:b5:7d:fb:5d:c3,4,5,64,17,192.168.1.220,74.125.130.189, 45426,443,44,53870</div></td></tr><tr><td><div>ac:b5:7d:fb:5d:c3,2c:30:33:e1:cc:11,4,5,56,6,216.58.197.78,192.168.1.220,443, 37020 , 603988351 , 1606937588 , 8</div></td></tr><tr><td><div>ac:b5:7d:fb:5d:c3,2c:30:33:e1:cc:11,4,5,56,6,216.58.197.78,192.168.1.220,443, 37020 , 603988613 , 1606937588 , 8</div></td></tr><tr><td><div>ac:b5:7d:fb:5d:c3,2c:30:33:e1:cc:11,4,5,56,6,216.58.197.78,192.168.1.220,443, 37020 , 603988669 , 1606937588 , 8</div></td></tr><tr><td><div>ac:b5:7d:fb:5d:c3,2c:30:33:e1:cc:11,4,5,56,6,216.58.197.78,192.168.1.220,443, 37020 , 603988711 , 1606937745 , 8</div></td></tr><tr><td><div>2c:30:33:e1:cc:11,ac:b5:7d:fb:5d:c3,4,5,64,6,192.168.1.220,216.58.197.78,37020, 443 , 1606938406 , 603988749 , 8</div></td></tr><tr><td><div>ac:b5:7d:fb:5d:c3,2c:30:33:e1:cc:11,4,5,56,6,216.58.197.78,192.168.1.220,443, 37020 , 603988749 , 1606938444 , 8</div></td></tr><tr><td><div>ac:b5:7d:fb:5d:c3,2c:30:33:e1:cc:11,4,5,64,17,192.168.1.1,192.168.1.220, 53,18995,103,14467</div></td></tr><tr><td><div>ac:b5:7d:fb:5d:c3,2c:30:33:e1:cc:11,4,5,64,17,192.168.1.1,192.168.1.220, 53,38549,91,19978</div></td></tr><tr><td><div>ac:b5:7d:fb:5d:c3,2c:30:33:e1:cc:11,4,5,47,17,74.125.130.189,192.168.1.220, 443,45426,50,39700</div></td></tr><tr><td><div>2c:30:33:e1:cc:11,ac:b5:7d:fb:5d:c3,4,5,64,6,192.168.1.220,216.58.197.78,37020, 443 , 1606937264 , 0 , 10</div></td></tr><tr><td><div>ac:b5:7d:fb:5d:c3,2c:30:33:e1:cc:11,4,5,56,6,216.58.197.78,192.168.1.220,443, 37020 , 603984334 , 1606937265 , 10</div></td></tr><tr><td><div>2c:30:33:e1:cc:11,ac:b5:7d:fb:5d:c3,4,5,64,6,192.168.1.220,216.58.197.78,37020, 443 , 1606937265 , 603984335 , 8</div></td></tr><tr><td><div>2c:30:33:e1:cc:11,ac:b5:7d:fb:5d:c3,4,5,64,6,192.168.1.220,216.58.197.78,37020, 443 , 1606937265 , 603984335 , 8</div></td></tr><tr><td><div>ac:b5:7d:fb:5d:c3,2c:30:33:e1:cc:11,4,5,56,6,216.58.197.78,192.168.1.220,443, 37020 , 603984335 , 1606937462 , 8</div></td></tr><tr><td><div>ac:b5:7d:fb:5d:c3,2c:30:33:e1:cc:11,4,5,56,6,216.58.197.78,192.168.1.220,443, 37020 , 603984335 , 1606937462 , 8</div></td></tr><tr><td><div>2c:30:33:e1:cc:11,ac:b5:7d:fb:5d:c3,4,5,64,6,192.168.1.220,216.58.197.78,37020, 443 , 1606937462 , 603985723 , 8</div></td></tr><tr><td><div>ac:b5:7d:fb:5d:c3,2c:30:33:e1:cc:11,4,5,56,6,216.58.197.78,192.168.1.220,443, 37020 , 603985723 , 1606937462 , 8</div></td></tr><tr><td><div>2c:30:33:e1:cc:11,ac:b5:7d:fb:5d:c3,4,5,64,6,192.168.1.220,216.58.197.78,37020, 443 , 1606937462 , 603987111 , 8</div></td></tr><tr><td><div>ac:b5:7d:fb:5d:c3,2c:30:33:e1:cc:11,4,5,56,6,216.58.197.78,192.168.1.220,443, 37020 , 603987111 , 1606937462 , 8</div></td></tr><tr><td><div>2c:30:33:e1:cc:11,ac:b5:7d:fb:5d:c3,4,5,64,6,192.168.1.220,216.58.197.78,37020, 443 , 1606937462 , 603988351 , 8</div></td></tr><tr><td><div>2c:30:33:e1:cc:11,ac:b5:7d:fb:5d:c3,4,5,64,6,192.168.1.220,216.58.197.78,37020, 443 , 1606937462 , 603988351 , 8</div></td></tr><tr><td><div>2c:30:33:e1:cc:11,ac:b5:7d:fb:5d:c3,4,5,64,6,192.168.1.220,216.58.197.78,37020, 443 , 1606937588 , 603988351 , 8</div></td></tr><tr><td><div>2c:30:33:e1:cc:11,ac:b5:7d:fb:5d:c3,4,5,64,6,192.168.1.220,216.58.197.78,37020, 443 , 1606937745 , 603988351 , 8</div></td></tr><tr><td><div>2c:30:33:e1:cc:11,ac:b5:7d:fb:5d:c3,4,5,64,17,192.168.1.220,74.125.130.189, 45426,443,44,53870</div></td></tr><tr><td><div>ac:b5:7d:fb:5d:c3,2c:30:33:e1:cc:11,4,5,56,6,216.58.197.78,192.168.1.220,443, 37020 , 603988351 , 1606937588 , 8</div></td></tr><tr><td><div>ac:b5:7d:fb:5d:c3,2c:30:33:e1:cc:11,4,5,56,6,216.58.197.78,192.168.1.220,443, 37020 , 603988613 , 1606937588 , 8</div></td></tr><tr><td><div>ac:b5:7d:fb:5d:c3,2c:30:33:e1:cc:11,4,5,56,6,216.58.197.78,192.168.1.220,443, 37020 , 603988669 , 1606937588 , 8</div></td></tr><tr><td><div>ac:b5:7d:fb:5d:c3,2c:30:33:e1:cc:11,4,5,56,6,216.58.197.78,192.168.1.220,443, 37020 , 603988711 , 1606937745 , 8</div></td></tr><tr><td><div>2c:30:33:e1:cc:11,ac:b5:7d:fb:5d:c3,4,5,64,6,192.168.1.220,216.58.197.78,37020, 443 , 1606938406 , 603988749 , 8</div></td></tr><tr><td><div>ac:b5:7d:fb:5d:c3,2c:30:33:e1:cc:11,4,5,56,6,216.58.197.78,192.168.1.220,443, 37020 , 603988749 , 1606938444 , 8</div></td></tr><tr><td><div>ac:b5:7d:fb:5d:c3,2c:30:33:e1:cc:11,4,5,56,6,216.58.197.78,192.168.1.220,443, 37020 , 603988749 , 1606938444 , 8</div></td></tr><tr><td><div>ac:b5:7d:fb:5d:c3,2c:30:33:e1:cc:11,4,5,56,6,216.58.197.78,192.168.1.220,443, 37020 , 603989180 , 1606938444 , 8</div></td></tr><tr><td><div>2c:30:33:e1:cc:11,ac:b5:7d:fb:5d:c3,4,5,64,6,192.168.1.220,216.58.197.78,37020, 443 , 1606938444 , 603990568 , 8</div></td></tr><tr><td><div>ac:b5:7d:fb:5d:c3,2c:30:33:e1:cc:11,4,5,56,6,216.58.197.78,192.168.1.220,443, 37020 , 603990568 , 1606938444 , 8</div></td></tr><tr><td><div>ac:b5:7d:fb:5d:c3,2c:30:33:e1:cc:11,4,5,56,6,216.58.197.78,192.168.1.220,443, 37020 , 603991956 , 1606938444 , 8</div></td></tr><tr><td><div>2c:30:33:e1:cc:11,ac:b5:7d:fb:5d:c3,4,5,64,6,192.168.1.220,216.58.197.78,37020, 443 , 1606938444 , 603992862 , 8</div></td></tr><tr><td><div>ac:b5:7d:fb:5d:c3,2c:30:33:e1:cc:11,4,5,56,6,216.58.197.78,192.168.1.220,443, 37020 , 603988749 , 1606938444 , 8</div></td></tr><tr><td><div>ac:b5:7d:fb:5d:c3,2c:30:33:e1:cc:11,4,5,56,6,216.58.197.78,192.168.1.220,443, 37020 , 603989180 , 1606938444 , 8</div></td></tr><tr><td><div>2c:30:33:e1:cc:11,ac:b5:7d:fb:5d:c3,4,5,64,6,192.168.1.220,216.58.197.78,37020, 443 , 1606938444 , 603990568 , 8</div></td></tr><tr><td><div>ac:b5:7d:fb:5d:c3,2c:30:33:e1:cc:11,4,5,56,6,216.58.197.78,192.168.1.220,443, 37020 , 603990568 , 1606938444 , 8</div></td></tr><tr><td><div>ac:b5:7d:fb:5d:c3,2c:30:33:e1:cc:11,4,5,56,6,216.58.197.78,192.168.1.220,443, 37020 , 603991956 , 1606938444 , 8</div></td></tr><tr><td><div>2c:30:33:e1:cc:11,ac:b5:7d:fb:5d:c3,4,5,64,6,192.168.1.220,216.58.197.78,37020, 443 , 1606938444 , 603992862 , 8</div></td></tr><tr><td><div>2c:30:33:e1:cc:11,ac:b5:7d:fb:5d:c3,4,5,64,6,192.168.1.220,216.58.197.66,35334, 80 , 202418684 , 2361237131 , 8</div></td></tr><tr><td><div>ac:b5:7d:fb:5d:c3,2c:30:33:e1:cc:11,4,5,56,6,216.58.197.66,192.168.1.220,80, 35334 , 2361237131 , 202418685 , 8</div></td></tr><tr><td><div>2c:30:33:e1:cc:11,ac:b5:7d:fb:5d:c3,4,5,64,6,192.168.1.220,216.58.197.66,35334, 80 , 202418684 , 2361237131 , 8</div></td></tr><tr><td><div>ac:b5:7d:fb:5d:c3,2c:30:33:e1:cc:11,4,5,56,6,216.58.197.66,192.168.1.220,80, 35334 , 2361237131 , 202418685 , 8</div></td></tr><tr><td><div>2c:30:33:e1:cc:11,ac:b5:7d:fb:5d:c3,4,5,64,6,192.168.1.220,216.58.196.98,56350, 80 , 708687224 , 4211789635 , 8</div></td></tr><tr><td><div>ac:b5:7d:fb:5d:c3,2c:30:33:e1:cc:11,4,5,56,6,216.58.196.98,192.168.1.220,80, 56350 , 4211789635 , 708687225 , 8</div></td></tr><tr><td><div>2c:30:33:e1:cc:11,ac:b5:7d:fb:5d:c3,4,5,64,6,192.168.1.220,216.58.196.98,56350, 80 , 708687224 , 4211789635 , 8</div></td></tr><tr><td><div>ac:b5:7d:fb:5d:c3,2c:30:33:e1:cc:11,4,5,56,6,216.58.196.98,192.168.1.220,80, 56350 , 4211789635 , 708687225 , 8</div></td></tr><tr><td><div>01:00:5e:7f:ff:fa,ac:66:2c:97:dc:53,4,5,1,17,192.168.1.127,239.255.255.250, 39224,1900,133,32404</div></td></tr><tr><td><div>01:00:5e:7f:ff:fa,ac:66:2c:97:dc:53,4,5,1,17,192.168.1.127,239.255.255.250, 39224,1900,133,32404</div></td></tr><tr><td><div>2c:30:33:e1:cc:11,ac:b5:7d:fb:5d:c3,4,5,64,6,192.168.1.220,172.217.26.162,58062, 80 , 3304191772 , 288397690 , 8</div></td></tr><tr><td><div>ac:b5:7d:fb:5d:c3,2c:30:33:e1:cc:11,4,5,56,6,172.217.26.162,192.168.1.220,80, 58062 , 288397690 , 3304191773 , 8</div></td></tr><tr><td><div>2c:30:33:e1:cc:11,ac:b5:7d:fb:5d:c3,4,5,64,6,192.168.1.220,172.217.26.162,58062, 80 , 3304191772 , 288397690 , 8</div></td></tr><tr><td><div>ac:b5:7d:fb:5d:c3,2c:30:33:e1:cc:11,4,5,56,6,172.217.26.162,192.168.1.220,80, 58062 , 288397690 , 3304191773 , 8</div></td></tr><tr><td><div>2c:30:33:e1:cc:11,ac:b5:7d:fb:5d:c3,4,5,64,6,192.168.1.220,216.58.197.65,53710, 80 , 3756070371 , 593275587 , 8</div></td></tr><tr><td><div>ac:b5:7d:fb:5d:c3,2c:30:33:e1:cc:11,4,5,56,6,216.58.197.65,192.168.1.220,80, 53710 , 593275587 , 3756070372 , 8</div></td></tr><tr><td><div>2c:30:33:e1:cc:11,ac:b5:7d:fb:5d:c3,4,5,64,6,192.168.1.220,216.58.197.65,53710, 80 , 3756070371 , 593275587 , 8</div></td></tr><tr><td><div>ac:b5:7d:fb:5d:c3,2c:30:33:e1:cc:11,4,5,56,6,216.58.197.65,192.168.1.220,80, 53710 , 593275587 , 3756070372 , 8</div></td></tr><tr><td><div>01:00:5e:7f:ff:fa,ac:66:2c:97:dc:53,4,5,1,17,192.168.1.127,239.255.255.250, 39224,1900,133,32404</div></td></tr><tr><td><div>01:00:5e:7f:ff:fa,ac:66:2c:97:dc:53,4,5,1,17,192.168.1.127,239.255.255.250, 39224,1900,133,32404</div></td></tr><tr><td><div>2c:30:33:e1:cc:11,ac:b5:7d:fb:5d:c3,4,5,64,6,192.168.1.220,172.217.26.162,58060, 80 , 2992926060 , 927837688 , 8</div></td></tr><tr><td><div>ac:b5:7d:fb:5d:c3,2c:30:33:e1:cc:11,4,5,56,6,172.217.26.162,192.168.1.220,80, 58060 , 927837688 , 2992926061 , 8</div></td></tr><tr><td><div>2c:30:33:e1:cc:11,ac:b5:7d:fb:5d:c3,4,5,64,6,192.168.1.220,172.217.26.162,58060, 80 , 2992926060 , 927837688 , 8</div></td></tr><tr><td><div>ac:b5:7d:fb:5d:c3,2c:30:33:e1:cc:11,4,5,56,6,172.217.26.162,192.168.1.220,80, 58060 , 927837688 , 2992926061 , 8</div></td></tr><tr><td><div>2c:30:33:e1:cc:11,ac:b5:7d:fb:5d:c3,4,5,64,6,192.168.1.220,216.58.197.78,46448, 80 , 2494864760 , 1720153271 , 8</div></td></tr><tr><td><div>ac:b5:7d:fb:5d:c3,2c:30:33:e1:cc:11,4,5,56,6,216.58.197.78,192.168.1.220,80, 46448 , 1720153271 , 2494864761 , 8</div></td></tr><tr><td><div>2c:30:33:e1:cc:11,ac:b5:7d:fb:5d:c3,4,5,64,6,192.168.1.220,216.58.197.78,46448, 80 , 2494864760 , 1720153271 , 8</div></td></tr><tr><td><div>ac:b5:7d:fb:5d:c3,2c:30:33:e1:cc:11,4,5,56,6,216.58.197.78,192.168.1.220,80, 46448 , 1720153271 , 2494864761 , 8</div></td></tr><tr><td><div>01:00:5e:7f:ff:fa,ac:66:2c:97:dc:53,4,5,1,17,192.168.1.127,239.255.255.250, 39224,1900,133,32404</div></td></tr><tr><td><div>01:00:5e:7f:ff:fa,ac:66:2c:97:dc:53,4,5,1,17,192.168.1.127,239.255.255.250, 39224,1900,133,32404</div></td></tr><tr><td><div>ac:b5:7d:fb:5d:c3,2c:30:33:e1:cc:11,4,5,56,6,216.58.197.78,192.168.1.220,443, 37020 , 603992862 , 1606938444 , 8</div></td></tr><tr><td><div>ac:b5:7d:fb:5d:c3,2c:30:33:e1:cc:11,4,5,56,6,216.58.197.78,192.168.1.220,443, 37020 , 603994250 , 1606938444 , 8</div></td></tr><tr><td><div>2c:30:33:e1:cc:11,ac:b5:7d:fb:5d:c3,4,5,64,6,192.168.1.220,216.58.197.78,37020, 443 , 1606938444 , 603995638 , 8</div></td></tr><tr><td><div>ac:b5:7d:fb:5d:c3,2c:30:33:e1:cc:11,4,5,56,6,216.58.197.78,192.168.1.220,443, 37020 , 603995638 , 1606938444 , 8</div></td></tr><tr><td><div>ac:b5:7d:fb:5d:c3,2c:30:33:e1:cc:11,4,5,56,6,216.58.197.78,192.168.1.220,443, 37020 , 603997026 , 1606938444 , 8</div></td></tr><tr><td><div>2c:30:33:e1:cc:11,ac:b5:7d:fb:5d:c3,4,5,64,6,192.168.1.220,216.58.197.78,37020, 443 , 1606938444 , 603998414 , 8</div></td></tr><tr><td><div>ac:b5:7d:fb:5d:c3,2c:30:33:e1:cc:11,4,5,56,6,216.58.197.78,192.168.1.220,443, 37020 , 603998414 , 1606938444 , 8</div></td></tr><tr><td><div>ac:b5:7d:fb:5d:c3,2c:30:33:e1:cc:11,4,5,56,6,216.58.197.78,192.168.1.220,443, 37020 , 603999802 , 1606938444 , 8</div></td></tr><tr><td><div>2c:30:33:e1:cc:11,ac:b5:7d:fb:5d:c3,4,5,64,6,192.168.1.220,216.58.197.78,37020, 443 , 1606938444 , 604001190 , 8</div></td></tr><tr><td><div>ac:b5:7d:fb:5d:c3,2c:30:33:e1:cc:11,4,5,56,6,216.58.197.78,192.168.1.220,443, 37020 , 603992862 , 1606938444 , 8</div></td></tr><tr><td><div>ac:b5:7d:fb:5d:c3,2c:30:33:e1:cc:11,4,5,56,6,216.58.197.78,192.168.1.220,443, 37020 , 603994250 , 1606938444 , 8</div></td></tr><tr><td><div>2c:30:33:e1:cc:11,ac:b5:7d:fb:5d:c3,4,5,64,6,192.168.1.220,216.58.197.78,37020, 443 , 1606938444 , 603995638 , 8</div></td></tr><tr><td><div>ac:b5:7d:fb:5d:c3,2c:30:33:e1:cc:11,4,5,56,6,216.58.197.78,192.168.1.220,443, 37020 , 603995638 , 1606938444 , 8</div></td></tr><tr><td><div>ac:b5:7d:fb:5d:c3,2c:30:33:e1:cc:11,4,5,56,6,216.58.197.78,192.168.1.220,443, 37020 , 603997026 , 1606938444 , 8</div></td></tr><tr><td><div>2c:30:33:e1:cc:11,ac:b5:7d:fb:5d:c3,4,5,64,6,192.168.1.220,216.58.197.78,37020, 443 , 1606938444 , 603998414 , 8</div></td></tr><tr><td><div>ac:b5:7d:fb:5d:c3,2c:30:33:e1:cc:11,4,5,56,6,216.58.197.78,192.168.1.220,443, 37020 , 603998414 , 1606938444 , 8</div></td></tr><tr><td><div>ac:b5:7d:fb:5d:c3,2c:30:33:e1:cc:11,4,5,56,6,216.58.197.78,192.168.1.220,443, 37020 , 603999802 , 1606938444 , 8</div></td></tr><tr><td><div>2c:30:33:e1:cc:11,ac:b5:7d:fb:5d:c3,4,5,64,6,192.168.1.220,216.58.197.78,37020, 443 , 1606938444 , 604001190 , 8</div></td></tr><tr><td><div>ac:b5:7d:fb:5d:c3,2c:30:33:e1:cc:11,4,5,56,6,216.58.197.78,192.168.1.220,443, 37020 , 604001190 , 1606938444 , 8</div></td></tr><tr><td><div>ac:b5:7d:fb:5d:c3,2c:30:33:e1:cc:11,4,5,56,6,216.58.197.78,192.168.1.220,443, 37020 , 604002578 , 1606938444 , 8</div></td></tr><tr><td><div>2c:30:33:e1:cc:11,ac:b5:7d:fb:5d:c3,4,5,64,6,192.168.1.220,216.58.197.78,37020, 443 , 1606938444 , 604003966 , 8</div></td></tr><tr><td><div>ac:b5:7d:fb:5d:c3,2c:30:33:e1:cc:11,4,5,56,6,216.58.197.78,192.168.1.220,443, 37020 , 604003966 , 1606938444 , 8</div></td></tr><tr><td><div>ac:b5:7d:fb:5d:c3,2c:30:33:e1:cc:11,4,5,56,6,216.58.197.78,192.168.1.220,443, 37020 , 604005354 , 1606938444 , 8</div></td></tr><tr><td><div>2c:30:33:e1:cc:11,ac:b5:7d:fb:5d:c3,4,5,64,6,192.168.1.220,216.58.197.78,37020, 443 , 1606938444 , 604006742 , 8</div></td></tr><tr><td><div>ac:b5:7d:fb:5d:c3,2c:30:33:e1:cc:11,4,5,56,6,216.58.197.78,192.168.1.220,443, 37020 , 604006742 , 1606938444 , 8</div></td></tr><tr><td><div>ac:b5:7d:fb:5d:c3,2c:30:33:e1:cc:11,4,5,56,6,216.58.197.78,192.168.1.220,443, 37020 , 604008130 , 1606938444 , 8</div></td></tr><tr><td><div>2c:30:33:e1:cc:11,ac:b5:7d:fb:5d:c3,4,5,64,6,192.168.1.220,216.58.197.78,37020, 443 , 1606938444 , 604009518 , 8</div></td></tr><tr><td><div>ac:b5:7d:fb:5d:c3,2c:30:33:e1:cc:11,4,5,56,6,216.58.197.78,192.168.1.220,443, 37020 , 604009518 , 1606938444 , 8</div></td></tr><tr><td><div>ac:b5:7d:fb:5d:c3,2c:30:33:e1:cc:11,4,5,56,6,216.58.197.78,192.168.1.220,443, 37020 , 604009840 , 1606938444 , 8</div></td></tr><tr><td><div>2c:30:33:e1:cc:11,ac:b5:7d:fb:5d:c3,4,5,64,6,192.168.1.220,216.58.197.78,37020, 443 , 1606938444 , 604011228 , 8</div></td></tr><tr><td><div>ac:b5:7d:fb:5d:c3,2c:30:33:e1:cc:11,4,5,56,6,216.58.197.78,192.168.1.220,443, 37020 , 604011228 , 1606938444 , 8</div></td></tr><tr><td><div>ac:b5:7d:fb:5d:c3,2c:30:33:e1:cc:11,4,5,56,6,216.58.197.78,192.168.1.220,443, 37020 , 604012616 , 1606938444 , 8</div></td></tr><tr><td><div>2c:30:33:e1:cc:11,ac:b5:7d:fb:5d:c3,4,5,64,6,192.168.1.220,216.58.197.78,37020, 443 , 1606938444 , 604014004 , 8</div></td></tr><tr><td><div>ac:b5:7d:fb:5d:c3,2c:30:33:e1:cc:11,4,5,56,6,216.58.197.78,192.168.1.220,443, 37020 , 604014004 , 1606938444 , 8</div></td></tr><tr><td><div>ac:b5:7d:fb:5d:c3,2c:30:33:e1:cc:11,4,5,56,6,216.58.197.78,192.168.1.220,443, 37020 , 604015392 , 1606938444 , 8</div></td></tr><tr><td><div>2c:30:33:e1:cc:11,ac:b5:7d:fb:5d:c3,4,5,64,6,192.168.1.220,216.58.197.78,37020, 443 , 1606938444 , 604016780 , 8</div></td></tr><tr><td><div>ac:b5:7d:fb:5d:c3,2c:30:33:e1:cc:11,4,5,56,6,216.58.197.78,192.168.1.220,443, 37020 , 604016780 , 1606938444 , 8</div></td></tr><tr><td><div>ac:b5:7d:fb:5d:c3,2c:30:33:e1:cc:11,4,5,56,6,216.58.197.78,192.168.1.220,443, 37020 , 604001190 , 1606938444 , 8</div></td></tr><tr><td><div>ac:b5:7d:fb:5d:c3,2c:30:33:e1:cc:11,4,5,56,6,216.58.197.78,192.168.1.220,443, 37020 , 604002578 , 1606938444 , 8</div></td></tr><tr><td><div>2c:30:33:e1:cc:11,ac:b5:7d:fb:5d:c3,4,5,64,6,192.168.1.220,216.58.197.78,37020, 443 , 1606938444 , 604003966 , 8</div></td></tr><tr><td><div>ac:b5:7d:fb:5d:c3,2c:30:33:e1:cc:11,4,5,56,6,216.58.197.78,192.168.1.220,443, 37020 , 604003966 , 1606938444 , 8</div></td></tr><tr><td><div>ac:b5:7d:fb:5d:c3,2c:30:33:e1:cc:11,4,5,56,6,216.58.197.78,192.168.1.220,443, 37020 , 604005354 , 1606938444 , 8</div></td></tr><tr><td><div>2c:30:33:e1:cc:11,ac:b5:7d:fb:5d:c3,4,5,64,6,192.168.1.220,216.58.197.78,37020, 443 , 1606938444 , 604006742 , 8</div></td></tr><tr><td><div>ac:b5:7d:fb:5d:c3,2c:30:33:e1:cc:11,4,5,56,6,216.58.197.78,192.168.1.220,443, 37020 , 604006742 , 1606938444 , 8</div></td></tr><tr><td><div>ac:b5:7d:fb:5d:c3,2c:30:33:e1:cc:11,4,5,56,6,216.58.197.78,192.168.1.220,443, 37020 , 604008130 , 1606938444 , 8</div></td></tr><tr><td><div>2c:30:33:e1:cc:11,ac:b5:7d:fb:5d:c3,4,5,64,6,192.168.1.220,216.58.197.78,37020, 443 , 1606938444 , 604009518 , 8</div></td></tr><tr><td><div>ac:b5:7d:fb:5d:c3,2c:30:33:e1:cc:11,4,5,56,6,216.58.197.78,192.168.1.220,443, 37020 , 604009518 , 1606938444 , 8</div></td></tr><tr><td><div>ac:b5:7d:fb:5d:c3,2c:30:33:e1:cc:11,4,5,56,6,216.58.197.78,192.168.1.220,443, 37020 , 604009840 , 1606938444 , 8</div></td></tr><tr><td><div>2c:30:33:e1:cc:11,ac:b5:7d:fb:5d:c3,4,5,64,6,192.168.1.220,216.58.197.78,37020, 443 , 1606938444 , 604011228 , 8</div></td></tr><tr><td><div>ac:b5:7d:fb:5d:c3,2c:30:33:e1:cc:11,4,5,56,6,216.58.197.78,192.168.1.220,443, 37020 , 604011228 , 1606938444 , 8</div></td></tr><tr><td><div>ac:b5:7d:fb:5d:c3,2c:30:33:e1:cc:11,4,5,56,6,216.58.197.78,192.168.1.220,443, 37020 , 604012616 , 1606938444 , 8</div></td></tr><tr><td><div>2c:30:33:e1:cc:11,ac:b5:7d:fb:5d:c3,4,5,64,6,192.168.1.220,216.58.197.78,37020, 443 , 1606938444 , 604014004 , 8</div></td></tr><tr><td><div>ac:b5:7d:fb:5d:c3,2c:30:33:e1:cc:11,4,5,56,6,216.58.197.78,192.168.1.220,443, 37020 , 604014004 , 1606938444 , 8</div></td></tr><tr><td><div>ac:b5:7d:fb:5d:c3,2c:30:33:e1:cc:11,4,5,56,6,216.58.197.78,192.168.1.220,443, 37020 , 604015392 , 1606938444 , 8</div></td></tr><tr><td><div>2c:30:33:e1:cc:11,ac:b5:7d:fb:5d:c3,4,5,64,6,192.168.1.220,216.58.197.78,37020, 443 , 1606938444 , 604016780 , 8</div></td></tr><tr><td><div>ac:b5:7d:fb:5d:c3,2c:30:33:e1:cc:11,4,5,56,6,216.58.197.78,192.168.1.220,443, 37020 , 604016780 , 1606938444 , 8</div></td></tr></table></div></td></tr><tr><td style="font-weight:bold;vertical-align:top;">b</td><td style="vertical-align:top;">:</td><td><div><table><tr><td><div><table><tr><td><div>1</div></td></tr><tr><td><div>5</div></td></tr><tr><td><div>3</div></td></tr><tr><td><div>0</div></td></tr></table></div></td></tr><tr><td><div><table><tr><td><div>2</div></td></tr><tr><td><div>2</div></td></tr><tr><td><div>3</div></td></tr><tr><td><div>0</div></td></tr></table></div></td></tr><tr><td><div><table><tr><td><div>3</div></td></tr><tr><td><div>0</div></td></tr><tr><td><div>3</div></td></tr><tr><td><div>0</div></td></tr></table></div></td></tr><tr><td><div><table><tr><td><div>4</div></td></tr><tr><td><div>0</div></td></tr><tr><td><div>1</div></td></tr><tr><td><div>0</div></td></tr></table></div></td></tr><tr><td><div><table><tr><td><div>5</div></td></tr><tr><td><div>0</div></td></tr><tr><td><div>0</div></td></tr><tr><td><div>0</div></td></tr></table></div></td></tr><tr><td><div><table><tr><td><div>6</div></td></tr><tr><td><div>2</div></td></tr><tr><td><div>0</div></td></tr><tr><td><div>0</div></td></tr></table></div></td></tr><tr><td><div><table><tr><td><div>7</div></td></tr><tr><td><div>0</div></td></tr><tr><td><div>0</div></td></tr><tr><td><div>0</div></td></tr></table></div></td></tr><tr><td><div><table><tr><td><div>8</div></td></tr><tr><td><div>27</div></td></tr><tr><td><div>6</div></td></tr><tr><td><div>0</div></td></tr></table></div></td></tr><tr><td><div><table><tr><td><div>9</div></td></tr><tr><td><div>8</div></td></tr><tr><td><div>2</div></td></tr><tr><td><div>0</div></td></tr></table></div></td></tr></table></div></td></tr><tr><td style="font-weight:bold;vertical-align:top;">icmp</td><td style="vertical-align:top;">:</td><td><div>0</div></td></tr><tr><td style="font-weight:bold;vertical-align:top;">tcp</td><td style="vertical-align:top;">:</td><td><div>88</div></td></tr><tr><td style="font-weight:bold;vertical-align:top;">udp</td><td style="vertical-align:top;">:</td><td><div>36</div></td></tr></table></div>'
tRp116
sS'etype'
p117
S"<type 'exceptions.IndexError'>"
p118
sS'date'
p119
S'Sat Nov 26 14:06:34 2016'
p120
sS'response'
p121
g57
(S's\x86\x1e\x00\x00<div><table><tr><td style="font-weight:bold;vertical-align:top;">body</td><td style="vertical-align:top;">:</td><td><div>&lt;cStringIO.StringO object at 0x7f64be868458&gt;</div></td></tr><tr><td style="font-weight:bold;vertical-align:top;">cookies</td><td style="vertical-align:top;">:</td><td><div><table><tr><td style="font-weight:bold;vertical-align:top;">session_id_sniffer_pr</td><td style="vertical-align:top;">:</td><td><div>127.0.0.1-eb04a049-3c4b-4c0d-a0a4-147ed30bc538<table><tr><td style="font-weight:bold;vertical-align:top;">comment</td><td style="vertical-align:top;">:</td><td><div></div></td></tr><tr><td style="font-weight:bold;vertical-align:top;">domain</td><td style="vertical-align:top;">:</td><td><div></div></td></tr><tr><td style="font-weight:bold;vertical-align:top;">expires</td><td style="vertical-align:top;">:</td><td><div></div></td></tr><tr><td style="font-weight:bold;vertical-align:top;">httponly</td><td style="vertical-align:top;">:</td><td><div></div></td></tr><tr><td style="font-weight:bold;vertical-align:top;">max-age</td><td style="vertical-align:top;">:</td><td><div></div></td></tr><tr><td style="font-weight:bold;vertical-align:top;">path</td><td style="vertical-align:top;">:</td><td><div>/</div></td></tr><tr><td style="font-weight:bold;vertical-align:top;">secure</td><td style="vertical-align:top;">:</td><td><div></div></td></tr><tr><td style="font-weight:bold;vertical-align:top;">version</td><td style="vertical-align:top;">:</td><td><div></div></td></tr></table></div></td></tr></table></div></td></tr><tr><td style="font-weight:bold;vertical-align:top;">delimiters</td><td style="vertical-align:top;">:</td><td><div><table><tr><td><div>{{</div></td></tr><tr><td><div>}}</div></td></tr></table></div></td></tr><tr><td style="font-weight:bold;vertical-align:top;">files</td><td style="vertical-align:top;">:</td><td><div><table><tr><td><div>/sniffer_pr/static/js/jquery.js</div></td></tr><tr><td><div>/sniffer_pr/static/css/calendar.css</div></td></tr><tr><td><div>/sniffer_pr/static/js/calendar.js</div></td></tr><tr><td><div>/sniffer_pr/static/js/web2py.js</div></td></tr></table></div></td></tr><tr><td style="font-weight:bold;vertical-align:top;">flash</td><td style="vertical-align:top;">:</td><td><div></div></td></tr><tr><td style="font-weight:bold;vertical-align:top;">form_label_separator</td><td style="vertical-align:top;">:</td><td><div></div></td></tr><tr><td style="font-weight:bold;vertical-align:top;">formstyle</td><td style="vertical-align:top;">:</td><td><div>bootstrap3_inline</div></td></tr><tr><td style="font-weight:bold;vertical-align:top;">generic_patterns</td><td style="vertical-align:top;">:</td><td><div><table><tr><td><div>*</div></td></tr></table></div></td></tr><tr><td style="font-weight:bold;vertical-align:top;">google_analytics_id</td><td style="vertical-align:top;">:</td><td><div>None</div></td></tr><tr><td style="font-weight:bold;vertical-align:top;">headers</td><td style="vertical-align:top;">:</td><td><div><table><tr><td style="font-weight:bold;vertical-align:top;">X-Powered-By</td><td style="vertical-align:top;">:</td><td><div>web2py</div></td></tr></table></div></td></tr><tr><td style="font-weight:bold;vertical-align:top;">logo</td><td style="vertical-align:top;">:</td><td><div><a class="navbar-brand" href="http://www.web2py.com/" id="web2py-logo"><b>web<span>2</span>py</b>&trade;&nbsp;</a></div></td></tr><tr><td style="font-weight:bold;vertical-align:top;">menu</td><td style="vertical-align:top;">:</td><td><div><table><tr><td><div><table><tr><td><div>Sniff</div></td></tr><tr><td><div>False</div></td></tr><tr><td><div>/sniffer_pr/default/index</div></td></tr><tr><td><div><table></table></div></td></tr></table></div></td></tr></table></div></td></tr><tr><td style="font-weight:bold;vertical-align:top;">meta</td><td style="vertical-align:top;">:</td><td><div><table><tr><td style="font-weight:bold;vertical-align:top;">author</td><td style="vertical-align:top;">:</td><td><div>Your Name &lt;you@example.com&gt;</div></td></tr><tr><td style="font-weight:bold;vertical-align:top;">description</td><td style="vertical-align:top;">:</td><td><div>a cool new app</div></td></tr><tr><td style="font-weight:bold;vertical-align:top;">generator</td><td style="vertical-align:top;">:</td><td><div>Web2py Web Framework</div></td></tr><tr><td style="font-weight:bold;vertical-align:top;">keywords</td><td style="vertical-align:top;">:</td><td><div><table><tr><td><div>web2py</div></td></tr><tr><td><div>python</div></td></tr><tr><td><div>framework</div></td></tr></table></div></td></tr></table></div></td></tr><tr><td style="font-weight:bold;vertical-align:top;">models_to_run</td><td style="vertical-align:top;">:</td><td><div><table><tr><td><div>^\\w+\\.py$</div></td></tr><tr><td><div>^default/\\w+\\.py$</div></td></tr><tr><td><div>^default/table/\\w+\\.py$</div></td></tr></table></div></td></tr><tr><td style="font-weight:bold;vertical-align:top;">postprocessing</td><td style="vertical-align:top;">:</td><td><div><table></table></div></td></tr><tr><td style="font-weight:bold;vertical-align:top;">session_client</td><td style="vertical-align:top;">:</td><td><div>127.0.0.1</div></td></tr><tr><td style="font-weight:bold;vertical-align:top;">session_cookie_compression_level</td><td style="vertical-align:top;">:</td><td><div>None</div></td></tr><tr><td style="font-weight:bold;vertical-align:top;">session_cookie_expires</td><td style="vertical-align:top;">:</td><td><div>None</div></td></tr><tr><td style="font-weight:bold;vertical-align:top;">session_data_name</td><td style="vertical-align:top;">:</td><td><div>session_data_sniffer_pr</div></td></tr><tr><td style="font-weight:bold;vertical-align:top;">session_file</td><td style="vertical-align:top;">:</td><td><div>&lt;open file &#x27;/home/hima/web2py/applications/sniffer_pr/sessions/190/088/127.0.0.1-eb04a049-3c4b-4c0d-a0a4-147ed30bc538&#x27;, mode &#x27;rb+&#x27; at 0x7f64beca2ae0&gt;</div></td></tr><tr><td style="font-weight:bold;vertical-align:top;">session_filename</td><td style="vertical-align:top;">:</td><td><div>/home/hima/web2py/applications/sniffer_pr/sessions/127.0.0.1-eb04a049-3c4b-4c0d-a0a4-147ed30bc538</div></td></tr><tr><td style="font-weight:bold;vertical-align:top;">session_hash</td><td style="vertical-align:top;">:</td><td><div>f7fb9d1becd4eb511c88dee3870dd15c</div></td></tr><tr><td style="font-weight:bold;vertical-align:top;">session_id</td><td style="vertical-align:top;">:</td><td><div>127.0.0.1-eb04a049-3c4b-4c0d-a0a4-147ed30bc538</div></td></tr><tr><td style="font-weight:bold;vertical-align:top;">session_id_name</td><td style="vertical-align:top;">:</td><td><div>session_id_sniffer_pr</div></td></tr><tr><td style="font-weight:bold;vertical-align:top;">session_locked</td><td style="vertical-align:top;">:</td><td><div>True</div></td></tr><tr><td style="font-weight:bold;vertical-align:top;">session_masterapp</td><td style="vertical-align:top;">:</td><td><div>sniffer_pr</div></td></tr><tr><td style="font-weight:bold;vertical-align:top;">session_new</td><td style="vertical-align:top;">:</td><td><div>False</div></td></tr><tr><td style="font-weight:bold;vertical-align:top;">session_storage_type</td><td style="vertical-align:top;">:</td><td><div>file</div></td></tr><tr><td style="font-weight:bold;vertical-align:top;">status</td><td style="vertical-align:top;">:</td><td><div>200</div></td></tr><tr><td style="font-weight:bold;vertical-align:top;">subtitle</td><td style="vertical-align:top;">:</td><td><div></div></td></tr><tr><td style="font-weight:bold;vertical-align:top;">title</td><td style="vertical-align:top;">:</td><td><div>Sniffer Pr</div></td></tr><tr><td style="font-weight:bold;vertical-align:top;">view</td><td style="vertical-align:top;">:</td><td><div>default/table.html</div></td></tr></table></div>'
tRp122
sS'locals'
p123
(dp124
S'Service'
p125
S"<class 'gluon.tools.Service'>"
p126
sS'OBJECT'
p127
S"<class 'gluon.html.OBJECT'>"
p128
sS'SQLDB'
p129
S"<class 'pydal.base.DAL'>"
p130
sg115
S"<Storage {'a': ['2c:30:33:e1:cc:11,ac:b5:7d:fb:5...-4151-83fd-a2401d615239'], 'icmp': 0, 'tcp': 88}>"
p131
sS'LINK'
p132
S"<class 'gluon.html.LINK'>"
p133
sS'BR'
p134
S"<class 'gluon.html.BR'>"
p135
sS'local_import'
p136
S'<function <lambda>>'
p137
sS'OPTGROUP'
p138
S"<class 'gluon.html.OPTGROUP'>"
p139
sS'__package__'
p140
S'None'
p141
sS'PRE'
p142
S"<class 'gluon.html.PRE'>"
p143
sS'IS_INT_IN_RANGE'
p144
S"<class 'gluon.validators.IS_INT_IN_RANGE'>"
p145
sS'left_sidebar_enabled'
p146
S'False'
p147
sS'IS_LOWER'
p148
S"<class 'gluon.validators.IS_LOWER'>"
p149
sS'IS_STRONG'
p150
S"<class 'gluon.validators.IS_STRONG'>"
p151
sS'cache'
p152
S'<gluon.cache.Cache object>'
p153
sS'IS_IN_DB'
p154
S"<class 'gluon.validators.IS_IN_DB'>"
p155
sS'TAG'
p156
S'<gluon.html.__TAG__ object>'
p157
sS'SQLField'
p158
S"<class 'pydal.objects.Field'>"
p159
sS'mail'
p160
S'<gluon.tools.Mail object>'
p161
sS'BODY'
p162
S"<class 'gluon.html.BODY'>"
p163
sS'IS_DATE_IN_RANGE'
p164
S"<class 'gluon.validators.IS_DATE_IN_RANGE'>"
p165
sS'IFRAME'
p166
S"<class 'gluon.html.IFRAME'>"
p167
sS'URL'
p168
S'<function URL>'
p169
sS'__file__'
p170
S"'/home/hima/web2py/applications/sniffer_pr/views/default/table.html'"
p171
sS'db'
p172
S'<DAL uri="sqlite://storage.sqlite">'
p173
sS'auth'
p174
S'<gluon.tools.Auth object>'
p175
sS'P'
S"<class 'gluon.html.P'>"
p176
sS'TFOOT'
p177
S"<class 'gluon.html.TFOOT'>"
p178
sS'XHTML'
p179
S"<class 'gluon.html.XHTML'>"
p180
sS'ON'
p181
S'True'
p182
sS'OL'
p183
S"<class 'gluon.html.OL'>"
p184
sS'IS_JSON'
p185
S"<class 'gluon.validators.IS_JSON'>"
p186
sS'TEXTAREA'
p187
S"<class 'gluon.html.TEXTAREA'>"
p188
sS'MENU'
p189
S"<class 'gluon.html.MENU'>"
p190
sS'l'
S"[['2c:30:33:e1:cc:11', 'ac:b5:7d:fb:5d:c3', 'tcp', '192.168.1.220', '52.201.107.156'], ['2c:30:33:e1:cc:11', 'ac:b5:7d:fb:5d:c3', 'tcp', '192.168.1.220', '52.201.107.156'], ['ac:b5:7d:fb:5d:c3', '2c:30:33:e1:cc:11', 'tcp', '52.33.155.40', '192.168.1.220'], ['ac:b5:7d:fb:5d:c3', '2c:30:33:e1:cc:11', 'tcp', '52.33.155.40', '192.168.1.220'], ['2c:30:33:e1:cc:11', 'ac:b5:7d:fb:5d:c3', 'tcp', '192.168.1.220', '52.204.240.79'], ['01:00:5e:00:00:fc', '02:20:ac:3b:a3:a3', 'udp', '192.168.1.151', '224.0.0.252'], ['01:00:5e:7f:ff:fa', 'd8:5d:e2:05:1d:e1', 'udp', '192.168.1.18', '239.255.255.250'], ['01:00:5e:00:00:fb', 'd8:5d:e2:05:1d:e1', 'udp', '192.168.1.18', '224.0.0.251'], ['ac:b5:7d:fb:5d:c3', '2c:30:33:e1:cc:11', 'tcp', '52.201.107.156', '192.168.1.220'], ['2c:30:33:e1:cc:11', 'ac:b5:7d:fb:5d:c3', 'tcp', '192.168.1.220', '52.204.240.79'], ['01:00:5e:00:00:fc', '02:20:ac:3b:a3:a3', 'udp', '192.168.1.151', '224.0.0.252'], ['01:00:5e:7f:ff:fa', 'd8:5d:e2:05:1d:e1', 'udp', '192.168.1.18', '239.255.255.250'], ['01:00:5e:00:00:fb', 'd8:5d:e2:05:1d:e1', 'udp', '192.168.1.18', '224.0.0.251'], ['ac:b5:7d:fb:5d:c3', '2c:30:33:e1:cc:11', 'tcp', '52.201.107.156', '192.168.1.220'], ['ac:b5:7d:fb:5d:c3', '2c:30:33:e1:cc:11', 'tcp', '52.204.240.79', '192.168.1.220'], ['ac:b5:7d:fb:5d:c3', '2c:30:33:e1:cc:11', 'tcp', '52.204.240.79', '192.168.1.220'], ['01:00:5e:7f:ff:fa', '00:c1:40:89:10:9f', 'udp', '192.168.1.46', '239.255.255.250'], ['01:00:5e:7f:ff:fa', '00:c1:40:89:10:9f', 'udp', '192.168.1.46', '239.255.255.250'], ['2c:30:33:e1:cc:11', 'ac:b5:7d:fb:5d:c3', 'tcp', '192.168.1.220', '52.33.155.40'], ['2c:30:33:e1:cc:11', 'ac:b5:7d:fb:5d:c3', 'tcp', '192.168.1.220', '52.33.155.40'], ...]"
p191
sS'item'
p192
S"['2c:30:33:e1:cc:11', 'ac:b5:7d:fb:5d:c3', 'tcp', '192.168.1.220', '52.201.107.156']"
p193
sS'IS_IMAGE'
p194
S"<class 'gluon.validators.IS_IMAGE'>"
p195
sS'EM'
p196
S"<class 'gluon.html.EM'>"
p197
sS'CODE'
p198
S"<class 'gluon.html.CODE'>"
p199
sS'HTTP'
p200
S"<class 'gluon.http.HTTP'>"
p201
sS'HR'
p202
S"<class 'gluon.html.HR'>"
p203
sS'IS_DATETIME'
p204
S"<class 'gluon.validators.IS_DATETIME'>"
p205
sS'STYLE'
p206
S"<class 'gluon.html.STYLE'>"
p207
sS'LABEL'
p208
S"<class 'gluon.html.LABEL'>"
p209
sS'CLEANUP'
p210
S"<class 'gluon.validators.CLEANUP'>"
p211
sS'plugins'
p212
S'<gluon.tools.PluginManager object>'
p213
sS'BUTTON'
p214
S"<class 'gluon.html.BUTTON'>"
p215
sS'SELECT'
p216
S"<class 'gluon.html.SELECT'>"
p217
sS'CENTER'
p218
S"<class 'gluon.html.CENTER'>"
p219
sS'Auth'
p220
S"<class 'gluon.tools.Auth'>"
p221
sS'DEVELOPMENT_MENU'
p222
g182
sS'__builtins__'
p223
S"{'ArithmeticError': <type 'exceptions.ArithmeticError'>, 'AssertionError': <type 'exceptions.AssertionError'>, 'AttributeError': <type 'exceptions.AttributeError'>, 'BaseException': <type 'exceptions.BaseException'>, 'BufferError': <type 'exceptions.BufferError'>, 'BytesWarning': <type 'exceptions.BytesWarning'>, 'DeprecationWarning': <type 'exceptions.DeprecationWarning'>, 'EOFError': <type 'exceptions.EOFError'>, 'Ellipsis': Ellipsis, 'EnvironmentError': <type 'exceptions.EnvironmentError'>, ...}"
p224
sS'HTML'
p225
S"<class 'gluon.html.HTML'>"
p226
sS'SQLFORM'
p227
S"<class 'gluon.sqlhtml.SQLFORM'>"
p228
sS'LOAD'
p229
S'<function LOAD>'
p230
sS'redirect'
p231
S'<function redirect>'
p232
sS'FIELDSET'
p233
S"<class 'gluon.html.FIELDSET'>"
p234
sS'IS_EQUAL_TO'
p235
S"<class 'gluon.validators.IS_EQUAL_TO'>"
p236
sS'embed64'
p237
S'<function embed64>'
p238
sS'IS_LIST_OF'
p239
S"<class 'gluon.validators.IS_LIST_OF'>"
p240
sS'INPUT'
p241
S"<class 'gluon.html.INPUT'>"
p242
sS'EMBED'
p243
S"<class 'gluon.html.EMBED'>"
p244
sS'myconf'
p245
S"{'forms': {'formstyle': 'bootstrap3_inline', 'se...': {'names': 'localhost:*, 127.0.0.1:*, *:*, *'}}"
p246
sS'H2'
p247
S"<class 'gluon.html.H2'>"
p248
sS'H3'
p249
S"<class 'gluon.html.H3'>"
p250
sS'AppConfig'
p251
S'<function AppConfig>'
p252
sS'H1'
p253
S"<class 'gluon.html.H1'>"
p254
sS'H6'
p255
S"<class 'gluon.html.H6'>"
p256
sS'H4'
p257
S"<class 'gluon.html.H4'>"
p258
sS'H5'
p259
S"<class 'gluon.html.H5'>"
p260
sS'UL'
p261
S"<class 'gluon.html.UL'>"
p262
sS'IS_UPPER'
p263
S"<class 'gluon.validators.IS_UPPER'>"
p264
sS'xmlescape'
p265
S'<function xmlescape>'
p266
sS'IS_TIME'
p267
S"<class 'gluon.validators.IS_TIME'>"
p268
sS'entry_list'
p269
S"['ac:b5:7d:fb:5d:c3', '2c:30:33:e1:cc:11', '4', '5', '56', 'tcp', '216.58.197.78', '192.168.1.220', '443', ' 37020 ', ' 604016780 ', ' 1606938444 ', ' 8']"
p270
sS'OPTION'
p271
S"<class 'gluon.html.OPTION'>"
p272
sS'TITLE'
p273
S"<class 'gluon.html.TITLE'>"
p274
sS'CRYPT'
p275
S"<class 'gluon.validators.CRYPT'>"
p276
sS'IS_EMPTY_OR'
p277
S"<class 'gluon.validators.IS_EMPTY_OR'>"
p278
sS'MARKMIN'
p279
S"<class 'gluon.html.MARKMIN'>"
p280
sS'__name__'
p281
S"'__restricted__'"
p282
sS'STRONG'
p283
S"<class 'gluon.html.STRONG'>"
p284
sS'COL'
p285
S"<class 'gluon.html.COL'>"
p286
sS'mc1'
p287
S"'col-md-9'"
p288
sS'mc0'
p289
S"'col-md-12'"
p290
sS'service'
p291
S'<gluon.tools.Service object>'
p292
sS'SCRIPT'
p293
S"<class 'gluon.html.SCRIPT'>"
p294
sS'TABLE'
p295
S"<class 'gluon.html.TABLE'>"
p296
sS'IS_IPV4'
p297
S"<class 'gluon.validators.IS_IPV4'>"
p298
sS'IS_LENGTH'
p299
S"<class 'gluon.validators.IS_LENGTH'>"
p300
sS'IS_IPV6'
p301
S"<class 'gluon.validators.IS_IPV6'>"
p302
sS'XML'
p303
S"<class 'gluon.html.XML'>"
p304
sS'B'
S"<class 'gluon.html.B'>"
p305
sS'IMG'
p306
S"<class 'gluon.html.IMG'>"
p307
sS'SQLTABLE'
p308
S"<class 'gluon.sqlhtml.SQLTABLE'>"
p309
sS'IS_MATCH'
p310
S"<class 'gluon.validators.IS_MATCH'>"
p311
sS'IS_ALPHANUMERIC'
p312
S"<class 'gluon.validators.IS_ALPHANUMERIC'>"
p313
sS'SPAN'
p314
S"<class 'gluon.html.SPAN'>"
p315
sS'temp'
p316
S"['ac:b5:7d:fb:5d:c3', '2c:30:33:e1:cc:11', 'tcp', '216.58.197.78', '192.168.1.220']"
p317
sS'IS_IPADDRESS'
p318
S"<class 'gluon.validators.IS_IPADDRESS'>"
p319
sS'IS_SLUG'
p320
S"<class 'gluon.validators.IS_SLUG'>"
p321
sS'BEAUTIFY'
p322
S"<class 'gluon.html.BEAUTIFY'>"
p323
sS'META'
p324
S"<class 'gluon.html.META'>"
p325
sS'k'
S"['2c:30:33:e1:cc:11,ac:b5:7d:fb:5d:c3,4,5,64,6,192....107.156,42474, 443 , 2700684326 , 1272433349 , 8', '2c:30:33:e1:cc:11,ac:b5:7d:fb:5d:c3,4,5,64,6,192....107.156,42474, 443 , 2700684326 , 1272433349 , 8', 'ac:b5:7d:fb:5d:c3,2c:30:33:e1:cc:11,4,5,31,6,52.....168.1.220,80, 53372 , 1008582741 , 414907085 , 8', 'ac:b5:7d:fb:5d:c3,2c:30:33:e1:cc:11,4,5,31,6,52.....168.1.220,80, 53372 , 1008582741 , 414907085 , 8', '2c:30:33:e1:cc:11,ac:b5:7d:fb:5d:c3,4,5,64,6,192...04.240.79,50640, 443 , 486888668 , 2079989637 , 8', '01:00:5e:00:00:fc,02:20:ac:3b:a3:a3,4,5,1,17,192.168.1.151,224.0.0.252, 63584,5355,50,10479', '01:00:5e:7f:ff:fa,d8:5d:e2:05:1d:e1,4,5,1,17,192.168.1.18,239.255.255.250, 55828,1900,181,10759', '01:00:5e:00:00:fb,d8:5d:e2:05:1d:e1,4,5,1,17,192.168.1.18,224.0.0.251, 5353,5353,48,59629', 'ac:b5:7d:fb:5d:c3,2c:30:33:e1:cc:11,4,5,41,6,52....68.1.220,443, 42474 , 1272433349 , 2700684327 , 8', '2c:30:33:e1:cc:11,ac:b5:7d:fb:5d:c3,4,5,64,6,192...04.240.79,50640, 443 , 486888668 , 2079989637 , 8', '01:00:5e:00:00:fc,02:20:ac:3b:a3:a3,4,5,1,17,192.168.1.151,224.0.0.252, 63584,5355,50,10479', '01:00:5e:7f:ff:fa,d8:5d:e2:05:1d:e1,4,5,1,17,192.168.1.18,239.255.255.250, 55828,1900,181,10759', '01:00:5e:00:00:fb,d8:5d:e2:05:1d:e1,4,5,1,17,192.168.1.18,224.0.0.251, 5353,5353,48,59629', 'ac:b5:7d:fb:5d:c3,2c:30:33:e1:cc:11,4,5,41,6,52....68.1.220,443, 42474 , 1272433349 , 2700684327 , 8', 'ac:b5:7d:fb:5d:c3,2c:30:33:e1:cc:11,4,5,41,6,52....168.1.220,443, 50640 , 2079989637 , 486888669 , 8', 'ac:b5:7d:fb:5d:c3,2c:30:33:e1:cc:11,4,5,41,6,52....168.1.220,443, 50640 , 2079989637 , 486888669 , 8', '01:00:5e:7f:ff:fa,00:c1:40:89:10:9f,4,5,1,17,192.168.1.46,239.255.255.250, 45514,1900,180,65343', '01:00:5e:7f:ff:fa,00:c1:40:89:10:9f,4,5,1,17,192.168.1.46,239.255.255.250, 45514,1900,180,65343', '2c:30:33:e1:cc:11,ac:b5:7d:fb:5d:c3,4,5,64,6,192...33.155.40,53366, 80 , 1067314840 , 1905201319 , 8', '2c:30:33:e1:cc:11,ac:b5:7d:fb:5d:c3,4,5,64,6,192...33.155.40,53366, 80 , 1067314840 , 1905201319 , 8', ...]"
p326
sS'IS_DATE'
p327
S"<class 'gluon.validators.IS_DATE'>"
p328
sS'IS_EMAIL'
p329
S"<class 'gluon.validators.IS_EMAIL'>"
p330
sS'middle_column'
p331
S"'col-md-12'"
p332
sS'IS_NOT_EMPTY'
p333
S"<class 'gluon.validators.IS_NOT_EMPTY'>"
p334
sS'IS_FLOAT_IN_RANGE'
p335
S"<class 'gluon.validators.IS_FLOAT_IN_RANGE'>"
p336
sS'TBODY'
p337
S"<class 'gluon.html.TBODY'>"
p338
sS'CAT'
p339
S"<class 'gluon.html.CAT'>"
p340
sS'Field'
p341
S"<class 'pydal.objects.Field'>"
p342
sS'mc2'
p343
S"'col-md-6'"
p344
sS'IS_LIST_OF_EMAILS'
p345
S"<class 'gluon.validators.IS_LIST_OF_EMAILS'>"
p346
sS'DIV'
p347
S"<class 'gluon.html.DIV'>"
p348
sS'LEGEND'
p349
S"<class 'gluon.html.LEGEND'>"
p350
sS'COLGROUP'
p351
S"<class 'gluon.html.COLGROUP'>"
p352
sS'DAL'
p353
S"<class 'pydal.base.DAL'>"
p354
sS'ASSIGNJS'
p355
S'<function ASSIGNJS>'
p356
sS'TR'
p357
S"<class 'gluon.html.TR'>"
p358
sS'LI'
p359
S"<class 'gluon.html.LI'>"
p360
sS'right_sidebar_enabled'
p361
g147
sS'TH'
p362
S"<class 'gluon.html.TH'>"
p363
sS'TD'
p364
S"<class 'gluon.html.TD'>"
p365
sS'PluginManager'
p366
S"<class 'gluon.tools.PluginManager'>"
p367
sS'IS_URL'
p368
S"<class 'gluon.validators.IS_URL'>"
p369
sS'A'
S"<class 'gluon.html.A'>"
p370
sS'HEAD'
p371
S"<class 'gluon.html.HEAD'>"
p372
sS'IS_DATETIME_IN_RANGE'
p373
S"<class 'gluon.validators.IS_DATETIME_IN_RANGE'>"
p374
sS'FORM'
p375
S"<class 'gluon.html.FORM'>"
p376
sS'I'
S"<class 'gluon.html.I'>"
p377
sS'IS_NOT_IN_DB'
p378
S"<class 'gluon.validators.IS_NOT_IN_DB'>"
p379
sg121
S"<Storage {'body': <cStringIO.StringO object at 0...t 0x7f64be66e9b0>, 'view': 'default/table.html'}>"
p380
sS'THEAD'
p381
S"<class 'gluon.html.THEAD'>"
p382
sS'ANY_OF'
p383
S"<class 'gluon.validators.ANY_OF'>"
p384
sS'IS_NULL_OR'
p385
S"<class 'gluon.validators.IS_EMPTY_OR'>"
p386
sg56
S"<Storage {'_vars': None, 'function': 'table', 'c...': '/home/hima/web2py/applications/sniffer_pr/'}>"
p387
sS'IS_EXPR'
p388
S"<class 'gluon.validators.IS_EXPR'>"
p389
sS'T'
S'<gluon.languages.translator object>'
p390
sS'IS_IN_SET'
p391
S"<class 'gluon.validators.IS_IN_SET'>"
p392
sS'IS_UPLOAD_FILENAME'
p393
S"<class 'gluon.validators.IS_UPLOAD_FILENAME'>"
p394
sS'entry'
p395
S"'ac:b5:7d:fb:5d:c3,2c:30:33:e1:cc:11,4,5,56,6,216...168.1.220,443, 37020 , 604016780 , 1606938444 , 8'"
p396
sS'TT'
p397
S"<class 'gluon.html.TT'>"
p398
sS'IS_DECIMAL_IN_RANGE'
p399
S"<class 'gluon.validators.IS_DECIMAL_IN_RANGE'>"
p400
sssS'traceback'
p401
S'Traceback (most recent call last):\n  File "/home/hima/web2py/gluon/restricted.py", line 227, in restricted\n    exec ccode in environment\n  File "/home/hima/web2py/applications/sniffer_pr/views/default/table.html", line 89, in <module>\nIndexError: list index out of range\n'
p402
s.