(dp1
S'output'
p2
S"<type 'exceptions.ImportError'> No module named simplejson"
p3
sS'layer'
p4
S'/home/preethi/Downloads/web2py/applications/sniffer/controllers/default.py'
p5
sS'code'
p6
S'import socket\nfrom struct import *\nimport datetime\nimport pcapy,time\nimport sys\nimport thread\nimport threading\nimport subprocess,signal\nfrom pcapy import open_live, findalldevs, PcapError\nimport time\n#from pcapy import findalldevs,open_live\n#from impacket import ImpactDecoder, ImpactPacket\n#from impacket.ImpactDecoder import *\n\n\n\n\nc_tcp = 0\nc_udp = 0\nc_icmp = 0\npackets = []\ngraph_data = [[]]\n\n\n\ndef index():\n    #sniffer()\\\n    devices = pcapy.findalldevs()\n    form = SQLFORM.factory(Field(\'interface\', requires=IS_IN_SET(tuple(devices)),widget=SQLFORM.widgets.radio.widget))\n    if form.process().accepted:\n        redirect(URL(\'start\',vars = {\'interface\':form.vars.interface}))\n    return locals()\n\n\n\ndef sniffer(interf):\n\t\n    \tglobal packets\n    \t#pc = pcap.pcap()\n\tpromiscuous = True\n\tcap = pcapy.open_live(interf , 65536 , promiscuous ,100)\n\n\t#packet_limit = -1 # infinite\n    \t#cap.loop(packet_limit, parse_packet)\n\t#count=9\n    \trow = db(db.stopFlag.id == 1).select()\n\t   \t\n\tflag = row[0].flagval\n\tt1 = (str(time.time()).split(\'.\'))[0]\n    \ttcp = 0\n    \tudp = 0\n    \ticmp = 0\n\tcount=0\n\twhile flag< 20:\n            \tt2 = (str(time.time()).split(\'.\'))[0]\n            \ttry:\n\t\t\tprint "difference is :" + str(int(t2) -int(t1))\n\t\t\tif (int(t2) -int(t1) >= 1):\n\t\t\t\tcount = count + 1\n\t\t\t\ttemp = [(count) , tcp , udp , icmp]\n\t\t\t\tgraph_data.append(temp)\n                \t\tsession.b = graph_data\n\t\t\t\tprint "***************************************"\n                \t\tprint str(tcp) + \',\' + str(udp) + \',\' + str(icmp)\n\t\t\t\tt1 = (str(time.time()).split(\'.\'))[0]\n\t\t\t\tglobal c_tcp\n\t\t\t\tc_tcp = c_tcp + tcp\n\t\t\t\tglobal c_udp\t\t\t\t\n\t\t\t\tc_udp = c_udp + udp\n\t\t\t\tglobal c_icmp\t\t\t\t\n\t\t\t\tc_icmp = c_icmp + icmp\n\t\t\t\ttcp = 0\n\t\t\t\tudp = 0\n\t\t\t\ticmp = 0\n\n\t\t\telse:\n\t\t\t\tprint "chose to capture packet"\n\t\t\t\t(header,packet) = cap.next()\n\t\t\t\t\n\t\t\t\t#count = count+1\n                \t        typ = parse_packet(header,packet)\n              \t\t\tprint "current packet type :" + str(typ)\n\t\t\t\tif typ== \'tcp\':\n\t\t\t\t\ttcp=tcp+1\n\t\t\t\tif typ== \'udp\':\n\t\t\t\t\tudp=udp+1\n\t\t\t\tif typ== \'icmp\':\n\t\t\t\t\ticmp=icmp+1\t\t\t\t\n\t\t\t\tprint "this packets t1 and t2 :" + str(t2) + \',\' + str(t1)\n\t\t\t\n\t\t\t\n                \t\tflag = flag+1    \t\n                except socket.timeout:\n\t\t\tprint "pass"\n                        pass\n\t\t\n\tprint packets\n    \tsession.a = packets\n        \n\n\tprint str(tcp) + \',\' + str(udp) + \',\' + str(icmp)\n\n        return locals()\n\ndef eth_addr (a) :\n\tb = "%.2x:%.2x:%.2x:%.2x:%.2x:%.2x" % (ord(a[0]) , ord(a[1]) , ord(a[2]), ord(a[3]), ord(a[4]) , ord(a[5]))\n\treturn b\n\n#function to parse a packet\ndef parse_packet(hdr,packet) :\n\tglobal packets\n    \ttyp = \'none\'\n\teth_length = 14\n\teth_header = packet[:eth_length]\n\teth = unpack(\'!6s6sH\' , eth_header)\n\teth_protocol = socket.ntohs(eth[2])\n\t#print \'Destination MAC : \' + eth_addr(packet[0:6]) + \' Source MAC : \' + eth_addr(packet[6:12]) + \' Protocol : \' + str(eth_protocol)\n        dest_mac = str(eth_addr(packet[0:6]))\n        src_mac =  str(eth_addr(packet[6:12]))\n\t#Parse IP packets, IP Protocol number = 8\n    \tif eth_protocol == 8 :\n\t\t#Parse IP header\n\t\t#take first 20 characters for the ip header\n\t\tip_header = packet[eth_length:20+eth_length]\n\t\t#now unpack them :)\n\t\tiph = unpack(\'!BBHHHBBH4s4s\' , ip_header)\n\t\tversion_ihl = iph[0]\n\t\tversion = version_ihl >> 4\n\t\tihl = version_ihl & 0xF\n\n\t\tiph_length = ihl * 4\n\n\t\tttl = iph[5]\n\t\tprotocol = iph[6]\n\t\ts_addr = socket.inet_ntoa(iph[8]);\n\t\td_addr = socket.inet_ntoa(iph[9]);\n\n\t\t#print \'Version : \' + str(version) + \' IP Header Length : \' + str(ihl) + \' TTL : \' + str(ttl) + \' Protocol : \' + str(protocol) + \' Source Address : \' + str(s_addr) + \' Destination Address : \' + str(d_addr)\n        \tstring = dest_mac + \',\' + src_mac + \',\' + str(version) + \',\' + str(ihl) + \',\' + str(ttl) + \',\' + str(protocol) + \',\' + str(s_addr) + \',\' + str(d_addr)\n\t\t#TCP protocol\n\t\tif protocol == 6 :\n\t\t\tt = iph_length + eth_length\n\t\t\ttcp_header = packet[t:t+20]\n\n\t\t\t#now unpack them :)\n\t\t\ttcph = unpack(\'!HHLLBBHHH\' , tcp_header)\n\t\t\tsource_port = tcph[0]\n\t\t\tdest_port = tcph[1]\n\t\t\tsequence = tcph[2]\n\t\t\tacknowledgement = tcph[3]\n\t\t\tdoff_reserved = tcph[4]\n\t\t\ttcph_length = doff_reserved >> 4\n\t\t\t#print \'Source Port : \' + str(source_port) + \' Dest Port : \' + str(dest_port) + \' Sequence Number : \' + str(sequence) + \' Acknowledgement : \' + str(acknowledgement) + \' TCP header length : \' + str(tcph_length)\n\n\t\t\tstring = string + \',\' +  str(source_port) + \', \' + str(dest_port) + \' , \' + str(sequence) + \' , \' + str(acknowledgement) + \' , \' + str(tcph_length)\n            \t\ttyp = \'tcp\'\n\t\t\th_size = eth_length + iph_length + tcph_length * 4\n\t\t\tdata_size = len(packet) - h_size\n\t\t\t#get data from the packet\n\t\t\tdata = packet[h_size:]\n#\t\t\tprint \'Data : \' + data\n\n\t\t#ICMP Packets\n\t\telif protocol == 1 :\n\t\t\tu = iph_length + eth_length\n\t\t\ticmph_length = 4\n\t\t\ticmp_header = packet[u:u+4]\n\n\t\t\t#now unpack them :)\n\t\t\ticmph = unpack(\'!BBH\' , icmp_header)\n\t\t\ticmp_type = icmph[0]\n\t\t\tcode = icmph[1]\n\t\t\tchecksum = icmph[2]\n\t\t\t#print \'Type : \' + str(icmp_type) + \' Code : \' + str(code) + \' Checksum : \' + str(checksum)\n\t\t\t\n\t\t\tstring = string + \',\' + str(icmp_type) + \',\' + str(code) + \',\' + str(checksum)\n            \t\ttyp = \'icmp\'\n\t\t\th_size = eth_length + iph_length + icmph_length\n\t\t\tdata_size = len(packet) - h_size\n\t\t\t#get data from the packet\n\t\t\tdata = packet[h_size:]\n#\t\t\tprint \'Data : \' + data\n\n\t\t#UDP packets\n\t\telif protocol == 17 :\n\t\t\tu = iph_length + eth_length\n\t\t\tudph_length = 8\n\t\t\tudp_header = packet[u:u+8]\n\n\t\t\t#now unpack them :)\n\t\t\tudph = unpack(\'!HHHH\' , udp_header)\n\t\t\tsource_port = udph[0]\n\t\t\tdest_port = udph[1]\n\t\t\tlength = udph[2]\n\t\t\tchecksum = udph[3]\n\t\t\t#print \'Source Port : \' + str(source_port) + \' Dest Port : \' + str(dest_port) + \' Length : \' + str(length) + \' Checksum : \' + str(checksum)\n\n\t\t\tstring = string + \', \' + str(source_port) + \',\' + str(dest_port) + \',\' + str(length) + \',\' + str(checksum)\t\t\t\n            \t\ttyp = \'udp\'\n\t\t\th_size = eth_length + iph_length + udph_length\n\t\t\tdata_size = len(packet) - h_size\n\t\t\t#get data from the packet\n\t\t\tdata = packet[h_size:]\n#\t\t\tprint \'Data : \' + data\n\n\t\t#some other IP packet like IGMP\n\t\telse :\n\t\t\tprint \'Protocol other than TCP/UDP/ICMP\'\n\t\tpackets.append(string)\n\n    \telse:\n    \t\tprint "none"\n\n        return typ\n\ndef start() :\n    interface = request.vars.interface\n    print "**********************"+interface + "*************"\n    db(db.stopFlag.id == 1 ).update(flagval = 0)\n    #thread.start_new_thread(sniffer,(interface,))\n    t1 = threading.Thread(target=sniffer, args=(interface,))\n    t1.start()\n    t1.join()\n    redirect(URL(\'show_pack\',vars = {} ))\n\n    \n    print "workng"\n    return locals()\n\ndef stop():\n    print "******** stop ***********"\n    #db.stopFlag.update_record(flagval=1)\n    #db(db.stopFlag.id == 1 ).update(flagval = 1)\n    return locals()\ndef snif():\n    import json\n    d = session.b\n    print json.dumps(d)\n    if ([]) in d :\n        d.remove([])\n    print "-----------" , d\n    return locals()\n\ndef show_pack():\n    print "showing_packets"\n    \n    x = session.a\n    \n    return locals()\ndef getdata():\n    from simplejson import loads, dumps\n    import json\n    d = session.b\n    print json.dumps(d)\n    return json.dumps(d)\n\nresponse._vars=response._caller(getdata)\n'
p7
sS'snapshot'
p8
(dp9
S'exception'
p10
(dp11
S'__hash__'
p12
S"<method-wrapper '__hash__' of exceptions.ImportError object>"
p13
sS'__setattr__'
p14
S"<method-wrapper '__setattr__' of exceptions.ImportError object>"
p15
sS'__reduce_ex__'
p16
S'<built-in method __reduce_ex__ of exceptions.ImportError object>'
p17
sS'__getslice__'
p18
S"<method-wrapper '__getslice__' of exceptions.ImportError object>"
p19
sS'__getitem__'
p20
S"<method-wrapper '__getitem__' of exceptions.ImportError object>"
p21
sS'__setstate__'
p22
S'<built-in method __setstate__ of exceptions.ImportError object>'
p23
sS'args'
p24
S"('No module named simplejson',)"
p25
sS'__reduce__'
p26
S'<built-in method __reduce__ of exceptions.ImportError object>'
p27
sS'__str__'
p28
S"<method-wrapper '__str__' of exceptions.ImportError object>"
p29
sS'__format__'
p30
S'<built-in method __format__ of exceptions.ImportError object>'
p31
sS'__getattribute__'
p32
S"<method-wrapper '__getattribute__' of exceptions.ImportError object>"
p33
sS'__class__'
p34
S"<type 'exceptions.ImportError'>"
p35
sS'__unicode__'
p36
S'<built-in method __unicode__ of exceptions.ImportError object>'
p37
sS'__delattr__'
p38
S"<method-wrapper '__delattr__' of exceptions.ImportError object>"
p39
sS'__subclasshook__'
p40
S'<built-in method __subclasshook__ of type object>'
p41
sS'__repr__'
p42
S"<method-wrapper '__repr__' of exceptions.ImportError object>"
p43
sS'__dict__'
p44
S'{}'
p45
sS'__sizeof__'
p46
S'<built-in method __sizeof__ of exceptions.ImportError object>'
p47
sS'__doc__'
p48
S'"Import can\'t find module, or can\'t find name in module."'
p49
sS'__init__'
p50
S"<method-wrapper '__init__' of exceptions.ImportError object>"
p51
sS'__new__'
p52
S'<built-in method __new__ of type object>'
p53
ssS'evalue'
p54
S'No module named simplejson'
p55
sS'request'
p56
cgluon.html
XML_unpickle
p57
(S's\x91d\x00\x00<div><table><tr><td style="font-weight:bold;vertical-align:top;">ajax</td><td style="vertical-align:top;">:</td><td><div>True</div></td></tr><tr><td style="font-weight:bold;vertical-align:top;">application</td><td style="vertical-align:top;">:</td><td><div>sniffer</div></td></tr><tr><td style="font-weight:bold;vertical-align:top;">args</td><td style="vertical-align:top;">:</td><td><div><table></table></div></td></tr><tr><td style="font-weight:bold;vertical-align:top;">cid</td><td style="vertical-align:top;">:</td><td><div>None</div></td></tr><tr><td style="font-weight:bold;vertical-align:top;">client</td><td style="vertical-align:top;">:</td><td><div>127.0.0.1</div></td></tr><tr><td style="font-weight:bold;vertical-align:top;">controller</td><td style="vertical-align:top;">:</td><td><div>default</div></td></tr><tr><td style="font-weight:bold;vertical-align:top;">cookies</td><td style="vertical-align:top;">:</td><td><div><table><tr><td style="font-weight:bold;vertical-align:top;">session_id_admin</td><td style="vertical-align:top;">:</td><td><div>127.0.0.1-bd81298d-4f64-42f9-bf69-fd8926526288<table><tr><td style="font-weight:bold;vertical-align:top;">comment</td><td style="vertical-align:top;">:</td><td><div></div></td></tr><tr><td style="font-weight:bold;vertical-align:top;">domain</td><td style="vertical-align:top;">:</td><td><div></div></td></tr><tr><td style="font-weight:bold;vertical-align:top;">expires</td><td style="vertical-align:top;">:</td><td><div></div></td></tr><tr><td style="font-weight:bold;vertical-align:top;">httponly</td><td style="vertical-align:top;">:</td><td><div></div></td></tr><tr><td style="font-weight:bold;vertical-align:top;">max-age</td><td style="vertical-align:top;">:</td><td><div></div></td></tr><tr><td style="font-weight:bold;vertical-align:top;">path</td><td style="vertical-align:top;">:</td><td><div></div></td></tr><tr><td style="font-weight:bold;vertical-align:top;">secure</td><td style="vertical-align:top;">:</td><td><div></div></td></tr><tr><td style="font-weight:bold;vertical-align:top;">version</td><td style="vertical-align:top;">:</td><td><div></div></td></tr></table></div></td></tr><tr><td style="font-weight:bold;vertical-align:top;">session_id_sniffer</td><td style="vertical-align:top;">:</td><td><div>127.0.0.1-ff44cfb1-a268-4381-8576-ff9dfa264a2d<table><tr><td style="font-weight:bold;vertical-align:top;">comment</td><td style="vertical-align:top;">:</td><td><div></div></td></tr><tr><td style="font-weight:bold;vertical-align:top;">domain</td><td style="vertical-align:top;">:</td><td><div></div></td></tr><tr><td style="font-weight:bold;vertical-align:top;">expires</td><td style="vertical-align:top;">:</td><td><div></div></td></tr><tr><td style="font-weight:bold;vertical-align:top;">httponly</td><td style="vertical-align:top;">:</td><td><div></div></td></tr><tr><td style="font-weight:bold;vertical-align:top;">max-age</td><td style="vertical-align:top;">:</td><td><div></div></td></tr><tr><td style="font-weight:bold;vertical-align:top;">path</td><td style="vertical-align:top;">:</td><td><div></div></td></tr><tr><td style="font-weight:bold;vertical-align:top;">secure</td><td style="vertical-align:top;">:</td><td><div></div></td></tr><tr><td style="font-weight:bold;vertical-align:top;">version</td><td style="vertical-align:top;">:</td><td><div></div></td></tr></table></div></td></tr><tr><td style="font-weight:bold;vertical-align:top;">session_id_urban_traffic</td><td style="vertical-align:top;">:</td><td><div>127.0.0.1-a529306d-522a-4764-aee7-6523e1206271<table><tr><td style="font-weight:bold;vertical-align:top;">comment</td><td style="vertical-align:top;">:</td><td><div></div></td></tr><tr><td style="font-weight:bold;vertical-align:top;">domain</td><td style="vertical-align:top;">:</td><td><div></div></td></tr><tr><td style="font-weight:bold;vertical-align:top;">expires</td><td style="vertical-align:top;">:</td><td><div></div></td></tr><tr><td style="font-weight:bold;vertical-align:top;">httponly</td><td style="vertical-align:top;">:</td><td><div></div></td></tr><tr><td style="font-weight:bold;vertical-align:top;">max-age</td><td style="vertical-align:top;">:</td><td><div></div></td></tr><tr><td style="font-weight:bold;vertical-align:top;">path</td><td style="vertical-align:top;">:</td><td><div></div></td></tr><tr><td style="font-weight:bold;vertical-align:top;">secure</td><td style="vertical-align:top;">:</td><td><div></div></td></tr><tr><td style="font-weight:bold;vertical-align:top;">version</td><td style="vertical-align:top;">:</td><td><div></div></td></tr></table></div></td></tr><tr><td style="font-weight:bold;vertical-align:top;">session_id_welcome</td><td style="vertical-align:top;">:</td><td><div>127.0.0.1-acdd94dd-0065-4308-a7fe-809221318d1a<table><tr><td style="font-weight:bold;vertical-align:top;">comment</td><td style="vertical-align:top;">:</td><td><div></div></td></tr><tr><td style="font-weight:bold;vertical-align:top;">domain</td><td style="vertical-align:top;">:</td><td><div></div></td></tr><tr><td style="font-weight:bold;vertical-align:top;">expires</td><td style="vertical-align:top;">:</td><td><div></div></td></tr><tr><td style="font-weight:bold;vertical-align:top;">httponly</td><td style="vertical-align:top;">:</td><td><div></div></td></tr><tr><td style="font-weight:bold;vertical-align:top;">max-age</td><td style="vertical-align:top;">:</td><td><div></div></td></tr><tr><td style="font-weight:bold;vertical-align:top;">path</td><td style="vertical-align:top;">:</td><td><div></div></td></tr><tr><td style="font-weight:bold;vertical-align:top;">secure</td><td style="vertical-align:top;">:</td><td><div></div></td></tr><tr><td style="font-weight:bold;vertical-align:top;">version</td><td style="vertical-align:top;">:</td><td><div></div></td></tr></table></div></td></tr></table></div></td></tr><tr><td style="font-weight:bold;vertical-align:top;">env</td><td style="vertical-align:top;">:</td><td><div><table><tr><td style="font-weight:bold;vertical-align:top;">CONTENT_LENGTH</td><td style="vertical-align:top;">:</td><td><div>0</div></td></tr><tr><td style="font-weight:bold;vertical-align:top;">HTTP_ACCEPT</td><td style="vertical-align:top;">:</td><td><div>*/*</div></td></tr><tr><td style="font-weight:bold;vertical-align:top;">HTTP_ACCEPT_ENCODING</td><td style="vertical-align:top;">:</td><td><div>gzip, deflate</div></td></tr><tr><td style="font-weight:bold;vertical-align:top;">HTTP_ACCEPT_LANGUAGE</td><td style="vertical-align:top;">:</td><td><div>en-US,en;q=0.8</div></td></tr><tr><td style="font-weight:bold;vertical-align:top;">HTTP_CONNECTION</td><td style="vertical-align:top;">:</td><td><div>keep-alive</div></td></tr><tr><td style="font-weight:bold;vertical-align:top;">HTTP_CONTENT_LENGTH</td><td style="vertical-align:top;">:</td><td><div>0</div></td></tr><tr><td style="font-weight:bold;vertical-align:top;">HTTP_COOKIE</td><td style="vertical-align:top;">:</td><td><div>session_id_welcome=127.0.0.1-acdd94dd-0065-4308-a7fe-809221318d1a; session_id_urban_traffic=127.0.0.1-a529306d-522a-4764-aee7-6523e1206271; session_id_admin=127.0.0.1-bd81298d-4f64-42f9-bf69-fd8926526288; session_id_sniffer=127.0.0.1-ff44cfb1-a268-4381-8576-ff9dfa264a2d</div></td></tr><tr><td style="font-weight:bold;vertical-align:top;">HTTP_HOST</td><td style="vertical-align:top;">:</td><td><div>127.0.0.1:8000</div></td></tr><tr><td style="font-weight:bold;vertical-align:top;">HTTP_ORIGIN</td><td style="vertical-align:top;">:</td><td><div>http://127.0.0.1:8000</div></td></tr><tr><td style="font-weight:bold;vertical-align:top;">HTTP_REFERER</td><td style="vertical-align:top;">:</td><td><div>http://127.0.0.1:8000/sniffer/default/snif</div></td></tr><tr><td style="font-weight:bold;vertical-align:top;">HTTP_USER_AGENT</td><td style="vertical-align:top;">:</td><td><div>Mozilla/5.0 (X11; Linux x86_64) AppleWebKit/537.36 (KHTML, like Gecko) Chrome/53.0.2785.143 Safari/537.36</div></td></tr><tr><td style="font-weight:bold;vertical-align:top;">HTTP_X_REQUESTED_WITH</td><td style="vertical-align:top;">:</td><td><div>XMLHttpRequest</div></td></tr><tr><td style="font-weight:bold;vertical-align:top;">PATH_INFO</td><td style="vertical-align:top;">:</td><td><div>/sniffer/default/getdata</div></td></tr><tr><td style="font-weight:bold;vertical-align:top;">QUERY_STRING</td><td style="vertical-align:top;">:</td><td><div></div></td></tr><tr><td style="font-weight:bold;vertical-align:top;">REMOTE_ADDR</td><td style="vertical-align:top;">:</td><td><div>127.0.0.1</div></td></tr><tr><td style="font-weight:bold;vertical-align:top;">REMOTE_PORT</td><td style="vertical-align:top;">:</td><td><div>38286</div></td></tr><tr><td style="font-weight:bold;vertical-align:top;">REQUEST_METHOD</td><td style="vertical-align:top;">:</td><td><div>POST</div></td></tr><tr><td style="font-weight:bold;vertical-align:top;">SCRIPT_NAME</td><td style="vertical-align:top;">:</td><td><div></div></td></tr><tr><td style="font-weight:bold;vertical-align:top;">SERVER_NAME</td><td style="vertical-align:top;">:</td><td><div>preethi-SVE1512J6EB</div></td></tr><tr><td style="font-weight:bold;vertical-align:top;">SERVER_PORT</td><td style="vertical-align:top;">:</td><td><div>8000</div></td></tr><tr><td style="font-weight:bold;vertical-align:top;">SERVER_PROTOCOL</td><td style="vertical-align:top;">:</td><td><div>HTTP/1.1</div></td></tr><tr><td style="font-weight:bold;vertical-align:top;">SERVER_SOFTWARE</td><td style="vertical-align:top;">:</td><td><div>Rocket 1.2.6</div></td></tr><tr><td style="font-weight:bold;vertical-align:top;">app_folders</td><td style="vertical-align:top;">:</td><td><div>set([&#x27;/home/preethi/Downloads/web2py/applications/welcome/&#x27;, &#x27;/home/preethi/Downloads/web2py/applications/admin/&#x27;, &#x27;/home/preethi/Downloads/web2py/applications/urban_traffic/&#x27;, &#x27;/home/preethi/Downloads/web2py/applications/sniffer/&#x27;])</div></td></tr><tr><td style="font-weight:bold;vertical-align:top;">applications_parent</td><td style="vertical-align:top;">:</td><td><div>/home/preethi/Downloads/web2py</div></td></tr><tr><td style="font-weight:bold;vertical-align:top;">cmd_args</td><td style="vertical-align:top;">:</td><td><div><table></table></div></td></tr><tr><td style="font-weight:bold;vertical-align:top;">cmd_options</td><td style="vertical-align:top;">:</td><td><div>&lt;Values at 0x7fce677cecb0: {&#x27;verbose&#x27;: False, &#x27;ip&#x27;: &#x27;127.0.0.1&#x27;, &#x27;debuglevel&#x27;: 30, &#x27;with_scheduler&#x27;: False, &#x27;shutdown_timeout&#x27;: 5, &#x27;taskbar&#x27;: False, &#x27;with_coverage&#x27;: False, &#x27;pid_filename&#x27;: &#x27;httpserver.pid&#x27;, &#x27;maxthreads&#x27;: None, &#x27;softcron&#x27;: False, &#x27;server_name&#x27;: &#x27;preethi-SVE1512J6EB&#x27;, &#x27;bpython&#x27;: False, &#x27;nogui&#x27;: False, &#x27;port&#x27;: 8000, &#x27;print_errors&#x27;: False, &#x27;extcron&#x27;: False, &#x27;runcron&#x27;: False, &#x27;run_system_tests&#x27;: False, &#x27;test&#x27;: None, &#x27;folder&#x27;: &#x27;/home/preethi/Downloads/web2py&#x27;, &#x27;config&#x27;: &#x27;&#x27;, &#x27;minthreads&#x27;: None, &#x27;shell&#x27;: None, &#x27;run&#x27;: &#x27;&#x27;, &#x27;log_filename&#x27;: &#x27;httpserver.log&#x27;, &#x27;profiler_dir&#x27;: None, &#x27;args&#x27;: [&#x27;&#x27;], &#x27;socket_timeout&#x27;: 5, &#x27;ssl_ca_certificate&#x27;: None, &#x27;scheduler&#x27;: None, &#x27;interfaces&#x27;: None, &#x27;ssl_private_key&#x27;: &#x27;&#x27;, &#x27;gae&#x27;: None, &#x27;password&#x27;: &#x27;******&#x27;, &#x27;request_queue_size&#x27;: 5, &#x27;ssl_certificate&#x27;: &#x27;&#x27;, &#x27;cronjob&#x27;: False, &#x27;numthreads&#x27;: None, &#x27;quiet&#x27;: False, &#x27;import_models&#x27;: False, &#x27;timeout&#x27;: 10, &#x27;plain&#x27;: False, &#x27;nobanner&#x27;: False}&gt;</div></td></tr><tr><td style="font-weight:bold;vertical-align:top;">content_length</td><td style="vertical-align:top;">:</td><td><div>0</div></td></tr><tr><td style="font-weight:bold;vertical-align:top;">db_sessions</td><td style="vertical-align:top;">:</td><td><div>set([])</div></td></tr><tr><td style="font-weight:bold;vertical-align:top;">debugging</td><td style="vertical-align:top;">:</td><td><div>True</div></td></tr><tr><td style="font-weight:bold;vertical-align:top;">gluon_parent</td><td style="vertical-align:top;">:</td><td><div>/home/preethi/Downloads/web2py</div></td></tr><tr><td style="font-weight:bold;vertical-align:top;">http_accept</td><td style="vertical-align:top;">:</td><td><div>*/*</div></td></tr><tr><td style="font-weight:bold;vertical-align:top;">http_accept_encoding</td><td style="vertical-align:top;">:</td><td><div>gzip, deflate</div></td></tr><tr><td style="font-weight:bold;vertical-align:top;">http_accept_language</td><td style="vertical-align:top;">:</td><td><div>en-US,en;q=0.8</div></td></tr><tr><td style="font-weight:bold;vertical-align:top;">http_connection</td><td style="vertical-align:top;">:</td><td><div>keep-alive</div></td></tr><tr><td style="font-weight:bold;vertical-align:top;">http_content_length</td><td style="vertical-align:top;">:</td><td><div>0</div></td></tr><tr><td style="font-weight:bold;vertical-align:top;">http_cookie</td><td style="vertical-align:top;">:</td><td><div>session_id_welcome=127.0.0.1-acdd94dd-0065-4308-a7fe-809221318d1a; session_id_urban_traffic=127.0.0.1-a529306d-522a-4764-aee7-6523e1206271; session_id_admin=127.0.0.1-bd81298d-4f64-42f9-bf69-fd8926526288; session_id_sniffer=127.0.0.1-ff44cfb1-a268-4381-8576-ff9dfa264a2d</div></td></tr><tr><td style="font-weight:bold;vertical-align:top;">http_host</td><td style="vertical-align:top;">:</td><td><div>127.0.0.1:8000</div></td></tr><tr><td style="font-weight:bold;vertical-align:top;">http_origin</td><td style="vertical-align:top;">:</td><td><div>http://127.0.0.1:8000</div></td></tr><tr><td style="font-weight:bold;vertical-align:top;">http_referer</td><td style="vertical-align:top;">:</td><td><div>http://127.0.0.1:8000/sniffer/default/snif</div></td></tr><tr><td style="font-weight:bold;vertical-align:top;">http_user_agent</td><td style="vertical-align:top;">:</td><td><div>Mozilla/5.0 (X11; Linux x86_64) AppleWebKit/537.36 (KHTML, like Gecko) Chrome/53.0.2785.143 Safari/537.36</div></td></tr><tr><td style="font-weight:bold;vertical-align:top;">http_x_requested_with</td><td style="vertical-align:top;">:</td><td><div>XMLHttpRequest</div></td></tr><tr><td style="font-weight:bold;vertical-align:top;">is_jython</td><td style="vertical-align:top;">:</td><td><div>False</div></td></tr><tr><td style="font-weight:bold;vertical-align:top;">is_pypy</td><td style="vertical-align:top;">:</td><td><div>False</div></td></tr><tr><td style="font-weight:bold;vertical-align:top;">is_source</td><td style="vertical-align:top;">:</td><td><div>True</div></td></tr><tr><td style="font-weight:bold;vertical-align:top;">local_hosts</td><td style="vertical-align:top;">:</td><td><div><table><tr><td><div>::1</div></td></tr><tr><td><div>127.0.1.1</div></td></tr><tr><td><div>::ffff:127.0.0.1</div></td></tr><tr><td><div>127.0.0.1</div></td></tr><tr><td><div>preethi-SVE1512J6EB</div></td></tr></table></div></td></tr><tr><td style="font-weight:bold;vertical-align:top;">path_info</td><td style="vertical-align:top;">:</td><td><div>/sniffer/default/getdata</div></td></tr><tr><td style="font-weight:bold;vertical-align:top;">query_string</td><td style="vertical-align:top;">:</td><td><div></div></td></tr><tr><td style="font-weight:bold;vertical-align:top;">remote_addr</td><td style="vertical-align:top;">:</td><td><div>127.0.0.1</div></td></tr><tr><td style="font-weight:bold;vertical-align:top;">remote_port</td><td style="vertical-align:top;">:</td><td><div>38286</div></td></tr><tr><td style="font-weight:bold;vertical-align:top;">request_method</td><td style="vertical-align:top;">:</td><td><div>POST</div></td></tr><tr><td style="font-weight:bold;vertical-align:top;">request_uri</td><td style="vertical-align:top;">:</td><td><div>/sniffer/default/getdata</div></td></tr><tr><td style="font-weight:bold;vertical-align:top;">script_name</td><td style="vertical-align:top;">:</td><td><div></div></td></tr><tr><td style="font-weight:bold;vertical-align:top;">server_name</td><td style="vertical-align:top;">:</td><td><div>preethi-SVE1512J6EB</div></td></tr><tr><td style="font-weight:bold;vertical-align:top;">server_port</td><td style="vertical-align:top;">:</td><td><div>8000</div></td></tr><tr><td style="font-weight:bold;vertical-align:top;">server_protocol</td><td style="vertical-align:top;">:</td><td><div>HTTP/1.1</div></td></tr><tr><td style="font-weight:bold;vertical-align:top;">server_software</td><td style="vertical-align:top;">:</td><td><div>Rocket 1.2.6</div></td></tr><tr><td style="font-weight:bold;vertical-align:top;">web2py_path</td><td style="vertical-align:top;">:</td><td><div>/home/preethi/Downloads/web2py</div></td></tr><tr><td style="font-weight:bold;vertical-align:top;">web2py_version</td><td style="vertical-align:top;">:</td><td><div>2.14.6-stable+timestamp.2016.05.10.00.21.47</div></td></tr><tr><td style="font-weight:bold;vertical-align:top;">wsgi.errors</td><td style="vertical-align:top;">:</td><td><div>&lt;open file &#x27;&lt;stderr&gt;&#x27;, mode &#x27;w&#x27; at 0x7fce6ec4b1e0&gt;</div></td></tr><tr><td style="font-weight:bold;vertical-align:top;">wsgi.file_wrapper</td><td style="vertical-align:top;">:</td><td><div>&lt;class wsgiref.util.FileWrapper at 0x7fce6786e8d8&gt;</div></td></tr><tr><td style="font-weight:bold;vertical-align:top;">wsgi.input</td><td style="vertical-align:top;">:</td><td><div>&lt;socket._fileobject object at 0x7fce4c0d81d0&gt;</div></td></tr><tr><td style="font-weight:bold;vertical-align:top;">wsgi.multiprocess</td><td style="vertical-align:top;">:</td><td><div>False</div></td></tr><tr><td style="font-weight:bold;vertical-align:top;">wsgi.multithread</td><td style="vertical-align:top;">:</td><td><div>True</div></td></tr><tr><td style="font-weight:bold;vertical-align:top;">wsgi.run_once</td><td style="vertical-align:top;">:</td><td><div>False</div></td></tr><tr><td style="font-weight:bold;vertical-align:top;">wsgi.url_scheme</td><td style="vertical-align:top;">:</td><td><div>http</div></td></tr><tr><td style="font-weight:bold;vertical-align:top;">wsgi.version</td><td style="vertical-align:top;">:</td><td><div><table><tr><td><div>1</div></td></tr><tr><td><div>0</div></td></tr></table></div></td></tr><tr><td style="font-weight:bold;vertical-align:top;">wsgi_errors</td><td style="vertical-align:top;">:</td><td><div>&lt;open file &#x27;&lt;stderr&gt;&#x27;, mode &#x27;w&#x27; at 0x7fce6ec4b1e0&gt;</div></td></tr><tr><td style="font-weight:bold;vertical-align:top;">wsgi_file_wrapper</td><td style="vertical-align:top;">:</td><td><div>&lt;class wsgiref.util.FileWrapper at 0x7fce6786e8d8&gt;</div></td></tr><tr><td style="font-weight:bold;vertical-align:top;">wsgi_input</td><td style="vertical-align:top;">:</td><td><div>&lt;socket._fileobject object at 0x7fce4c0d81d0&gt;</div></td></tr><tr><td style="font-weight:bold;vertical-align:top;">wsgi_multiprocess</td><td style="vertical-align:top;">:</td><td><div>False</div></td></tr><tr><td style="font-weight:bold;vertical-align:top;">wsgi_multithread</td><td style="vertical-align:top;">:</td><td><div>True</div></td></tr><tr><td style="font-weight:bold;vertical-align:top;">wsgi_run_once</td><td style="vertical-align:top;">:</td><td><div>False</div></td></tr><tr><td style="font-weight:bold;vertical-align:top;">wsgi_url_scheme</td><td style="vertical-align:top;">:</td><td><div>http</div></td></tr><tr><td style="font-weight:bold;vertical-align:top;">wsgi_version</td><td style="vertical-align:top;">:</td><td><div><table><tr><td><div>1</div></td></tr><tr><td><div>0</div></td></tr></table></div></td></tr></table></div></td></tr><tr><td style="font-weight:bold;vertical-align:top;">extension</td><td style="vertical-align:top;">:</td><td><div>html</div></td></tr><tr><td style="font-weight:bold;vertical-align:top;">folder</td><td style="vertical-align:top;">:</td><td><div>/home/preethi/Downloads/web2py/applications/sniffer/</div></td></tr><tr><td style="font-weight:bold;vertical-align:top;">function</td><td style="vertical-align:top;">:</td><td><div>getdata</div></td></tr><tr><td style="font-weight:bold;vertical-align:top;">global_settings</td><td style="vertical-align:top;">:</td><td><div><table><tr><td style="font-weight:bold;vertical-align:top;">app_folders</td><td style="vertical-align:top;">:</td><td><div>set([&#x27;/home/preethi/Downloads/web2py/applications/welcome/&#x27;, &#x27;/home/preethi/Downloads/web2py/applications/admin/&#x27;, &#x27;/home/preethi/Downloads/web2py/applications/urban_traffic/&#x27;, &#x27;/home/preethi/Downloads/web2py/applications/sniffer/&#x27;])</div></td></tr><tr><td style="font-weight:bold;vertical-align:top;">applications_parent</td><td style="vertical-align:top;">:</td><td><div>/home/preethi/Downloads/web2py</div></td></tr><tr><td style="font-weight:bold;vertical-align:top;">cmd_args</td><td style="vertical-align:top;">:</td><td><div><table></table></div></td></tr><tr><td style="font-weight:bold;vertical-align:top;">cmd_options</td><td style="vertical-align:top;">:</td><td><div>&lt;Values at 0x7fce677cecb0: {&#x27;verbose&#x27;: False, &#x27;ip&#x27;: &#x27;127.0.0.1&#x27;, &#x27;debuglevel&#x27;: 30, &#x27;with_scheduler&#x27;: False, &#x27;shutdown_timeout&#x27;: 5, &#x27;taskbar&#x27;: False, &#x27;with_coverage&#x27;: False, &#x27;pid_filename&#x27;: &#x27;httpserver.pid&#x27;, &#x27;maxthreads&#x27;: None, &#x27;softcron&#x27;: False, &#x27;server_name&#x27;: &#x27;preethi-SVE1512J6EB&#x27;, &#x27;bpython&#x27;: False, &#x27;nogui&#x27;: False, &#x27;port&#x27;: 8000, &#x27;print_errors&#x27;: False, &#x27;extcron&#x27;: False, &#x27;runcron&#x27;: False, &#x27;run_system_tests&#x27;: False, &#x27;test&#x27;: None, &#x27;folder&#x27;: &#x27;/home/preethi/Downloads/web2py&#x27;, &#x27;config&#x27;: &#x27;&#x27;, &#x27;minthreads&#x27;: None, &#x27;shell&#x27;: None, &#x27;run&#x27;: &#x27;&#x27;, &#x27;log_filename&#x27;: &#x27;httpserver.log&#x27;, &#x27;profiler_dir&#x27;: None, &#x27;args&#x27;: [&#x27;&#x27;], &#x27;socket_timeout&#x27;: 5, &#x27;ssl_ca_certificate&#x27;: None, &#x27;scheduler&#x27;: None, &#x27;interfaces&#x27;: None, &#x27;ssl_private_key&#x27;: &#x27;&#x27;, &#x27;gae&#x27;: None, &#x27;password&#x27;: &#x27;******&#x27;, &#x27;request_queue_size&#x27;: 5, &#x27;ssl_certificate&#x27;: &#x27;&#x27;, &#x27;cronjob&#x27;: False, &#x27;numthreads&#x27;: None, &#x27;quiet&#x27;: False, &#x27;import_models&#x27;: False, &#x27;timeout&#x27;: 10, &#x27;plain&#x27;: False, &#x27;nobanner&#x27;: False}&gt;</div></td></tr><tr><td style="font-weight:bold;vertical-align:top;">db_sessions</td><td style="vertical-align:top;">:</td><td><div>set([])</div></td></tr><tr><td style="font-weight:bold;vertical-align:top;">debugging</td><td style="vertical-align:top;">:</td><td><div>True</div></td></tr><tr><td style="font-weight:bold;vertical-align:top;">gluon_parent</td><td style="vertical-align:top;">:</td><td><div>/home/preethi/Downloads/web2py</div></td></tr><tr><td style="font-weight:bold;vertical-align:top;">is_jython</td><td style="vertical-align:top;">:</td><td><div>False</div></td></tr><tr><td style="font-weight:bold;vertical-align:top;">is_pypy</td><td style="vertical-align:top;">:</td><td><div>False</div></td></tr><tr><td style="font-weight:bold;vertical-align:top;">is_source</td><td style="vertical-align:top;">:</td><td><div>True</div></td></tr><tr><td style="font-weight:bold;vertical-align:top;">local_hosts</td><td style="vertical-align:top;">:</td><td><div><table><tr><td><div>::1</div></td></tr><tr><td><div>127.0.1.1</div></td></tr><tr><td><div>::ffff:127.0.0.1</div></td></tr><tr><td><div>127.0.0.1</div></td></tr><tr><td><div>preethi-SVE1512J6EB</div></td></tr></table></div></td></tr><tr><td style="font-weight:bold;vertical-align:top;">web2py_version</td><td style="vertical-align:top;">:</td><td><div>2.14.6-stable+timestamp.2016.05.10.00.21.47</div></td></tr></table></div></td></tr><tr><td style="font-weight:bold;vertical-align:top;">is_https</td><td style="vertical-align:top;">:</td><td><div>False</div></td></tr><tr><td style="font-weight:bold;vertical-align:top;">is_local</td><td style="vertical-align:top;">:</td><td><div>True</div></td></tr><tr><td style="font-weight:bold;vertical-align:top;">is_restful</td><td style="vertical-align:top;">:</td><td><div>False</div></td></tr><tr><td style="font-weight:bold;vertical-align:top;">is_scheduler</td><td style="vertical-align:top;">:</td><td><div>False</div></td></tr><tr><td style="font-weight:bold;vertical-align:top;">is_shell</td><td style="vertical-align:top;">:</td><td><div>False</div></td></tr><tr><td style="font-weight:bold;vertical-align:top;">now</td><td style="vertical-align:top;">:</td><td><div>datetime.datetime(2016, 11, 26, 4, 49, 47, 819134)</div></td></tr><tr><td style="font-weight:bold;vertical-align:top;">raw_args</td><td style="vertical-align:top;">:</td><td><div></div></td></tr><tr><td style="font-weight:bold;vertical-align:top;">raw_extension</td><td style="vertical-align:top;">:</td><td><div>None</div></td></tr><tr><td style="font-weight:bold;vertical-align:top;">url</td><td style="vertical-align:top;">:</td><td><div>/sniffer/default/getdata</div></td></tr><tr><td style="font-weight:bold;vertical-align:top;">utcnow</td><td style="vertical-align:top;">:</td><td><div>datetime.datetime(2016, 11, 25, 23, 19, 47, 819153)</div></td></tr><tr><td style="font-weight:bold;vertical-align:top;">wsgi</td><td style="vertical-align:top;">:</td><td><div>&lt;gluon.main.LazyWSGI object at 0x7fce4c1e28d0&gt;</div></td></tr></table></div>'
tRp58
sS'frames'
p59
(lp60
(dp61
S'file'
p62
S'/home/preethi/Downloads/web2py/gluon/restricted.py'
p63
sS'dump'
p64
(dp65
S'environment'
p66
S"{'A': <class 'gluon.html.A'>, 'ANY_OF': <class 'gluon.validators.ANY_OF'>, 'ASSIGNJS': <function ASSIGNJS>, 'AppConfig': <function AppConfig>, 'Auth': <class 'gluon.tools.Auth'>, 'B': <class 'gluon.html.B'>, 'BEAUTIFY': <class 'gluon.html.BEAUTIFY'>, 'BODY': <class 'gluon.html.BODY'>, 'BR': <class 'gluon.html.BR'>, 'BUTTON': <class 'gluon.html.BUTTON'>, ...}"
p67
sS'ccode'
p68
S'<code object <module> at 0x7fce2e6db330, file "/...ications/sniffer/controllers/default.py", line 1>'
p69
ssS'lnum'
p70
I227
sS'lines'
p71
(dp72
I224
S'            ccode = code'
p73
sI225
S'        else:'
p74
sI226
S'            ccode = compile2(code, layer)'
p75
sI227
S'        exec ccode in environment'
p76
sI228
S'    except HTTP:'
p77
sI229
S'        raise'
p78
sI230
S'    except RestrictedError:'
p79
sI231
S'        # do not encapsulate (obfuscate) the original RestrictedError'
p80
sI222
S'    try:'
p81
sI223
S'        if isinstance(code, types.CodeType):'
p82
ssS'call'
p83
S"(code='import socket\\nfrom struct import *\\nimport dateti...mps(d)\\n\\nresponse._vars=response._caller(getdata)\\n', environment={'A': <class 'gluon.html.A'>, 'ANY_OF': <class 'gluon.validators.ANY_OF'>, 'ASSIGNJS': <function ASSIGNJS>, 'AppConfig': <function AppConfig>, 'Auth': <class 'gluon.tools.Auth'>, 'B': <class 'gluon.html.B'>, 'BEAUTIFY': <class 'gluon.html.BEAUTIFY'>, 'BODY': <class 'gluon.html.BODY'>, 'BR': <class 'gluon.html.BR'>, 'BUTTON': <class 'gluon.html.BUTTON'>, ...}, layer='/home/preethi/Downloads/web2py/applications/sniffer/controllers/default.py')"
p84
sS'func'
p85
S'restricted'
p86
sa(dp87
g62
S'/home/preethi/Downloads/web2py/applications/sniffer/controllers/default.py'
p88
sg64
(dp89
sg70
I257
sg71
(dp90
I246
S''
sI247
S'    x = session.a'
p91
sI248
S''
sI249
S'    return locals()'
p92
sI250
S'def getdata():'
p93
sI251
S'    from simplejson import loads, dumps'
p94
sI252
S'    import json'
p95
sI253
S'    d = session.b'
p96
sI254
S'    print json.dumps(d)'
p97
sI255
S'    return json.dumps(d)'
p98
ssg83
S'()'
p99
sg85
S'<module>'
p100
sa(dp101
g62
S'/home/preethi/Downloads/web2py/gluon/globals.py'
p102
sg64
(dp103
S'self'
p104
S'undefined'
p105
sS'f'
S'<function getdata>'
p106
ssg70
I417
sg71
(dp107
I416
S'        self._vars = None'
p108
sI417
S'        self._caller = lambda f: f()'
p109
sI418
S'        self._view_environment = None'
p110
sI419
S'        self._custom_commit = None'
p111
sI420
S'        self._custom_rollback = None'
p112
sI421
S"        self.generic_patterns = ['*']"
p113
sI412
S"        self.flash = ''            # used by the default view layout"
p114
sI413
S'        self.meta = Storage()      # used by web2py_ajax.html'
p115
sI414
S'        self.menu = []             # used by the default view layout'
p116
sI415
S'        self.files = []            # used by web2py_ajax.html'
p117
ssg83
S'(f=<function getdata>)'
p118
sg85
S'<lambda>'
p119
sa(dp120
g62
S'/home/preethi/Downloads/web2py/applications/sniffer/controllers/default.py'
p121
sg64
(dp122
S'dumps'
p123
g105
sS'loads'
p124
g105
sS'simplejson'
p125
g105
ssg70
I251
sg71
(dp126
I246
S''
sI247
S'    x = session.a'
p127
sI248
S''
sI249
S'    return locals()'
p128
sI250
S'def getdata():'
p129
sI251
S'    from simplejson import loads, dumps'
p130
sI252
S'    import json'
p131
sI253
S'    d = session.b'
p132
sI254
S'    print json.dumps(d)'
p133
sI255
S'    return json.dumps(d)'
p134
ssg83
S'()'
p135
sg85
S'getdata'
p136
sa(dp137
g62
S'/home/preethi/Downloads/web2py/gluon/custom_import.py'
p138
sg64
(dp139
S'fromlist'
p140
S"('loads', 'dumps')"
p141
sS'level'
p142
S'-1'
p143
sS'base_importer'
p144
S'<built-in function __import__>'
p145
sS'globals'
p146
S"{'A': <class 'gluon.html.A'>, 'ANY_OF': <class 'gluon.validators.ANY_OF'>, 'ASSIGNJS': <function ASSIGNJS>, 'AppConfig': <function AppConfig>, 'Auth': <class 'gluon.tools.Auth'>, 'B': <class 'gluon.html.B'>, 'BEAUTIFY': <class 'gluon.html.BEAUTIFY'>, 'BODY': <class 'gluon.html.BODY'>, 'BR': <class 'gluon.html.BR'>, 'BUTTON': <class 'gluon.html.BUTTON'>, ...}"
p147
sS'pname'
p148
S"'applications.sniffer.modules.simplejson'"
p149
sS'locals'
p150
g45
ssg70
I95
sg71
(dp151
I96
S'        except ImportError, e1:'
p152
sI97
S'            import_tb = sys.exc_info()[2]'
p153
sI98
S'            try:'
p154
sI99
S'                return NATIVE_IMPORTER(name, globals, locals, fromlist, level)'
p155
sI90
S'                        modules_prefix += "." + itemname'
p156
sI91
S'                    return result'
p157
sI92
S'                else:'
p158
sI93
S'                    # import like "from x import a, b, ..."'
p159
sI94
S'                    pname = modules_prefix + "." + name'
p160
sI95
S'                    return base_importer(pname, globals, locals, fromlist, level)'
p161
ssg83
S"(name='simplejson', globals={'A': <class 'gluon.html.A'>, 'ANY_OF': <class 'gluon.validators.ANY_OF'>, 'ASSIGNJS': <function ASSIGNJS>, 'AppConfig': <function AppConfig>, 'Auth': <class 'gluon.tools.Auth'>, 'B': <class 'gluon.html.B'>, 'BEAUTIFY': <class 'gluon.html.BEAUTIFY'>, 'BODY': <class 'gluon.html.BODY'>, 'BR': <class 'gluon.html.BR'>, 'BUTTON': <class 'gluon.html.BUTTON'>, ...}, locals={}, fromlist=('loads', 'dumps'), level=-1)"
p162
sg85
S'custom_importer'
p163
sasS'pyver'
p164
S'Python 2.7.6: /usr/bin/python (prefix: /usr)'
p165
sS'session'
p166
g57
(S's\x9e\r\x00\x00<div><table><tr><td style="font-weight:bold;vertical-align:top;">a</td><td style="vertical-align:top;">:</td><td><div><table><tr><td><div>01:00:5e:7f:ff:fa,54:35:30:9c:c3:f3,4,5,1,17,192.168.1.27,239.255.255.250, 57584,1900,180,53292</div></td></tr><tr><td><div>01:00:5e:7f:ff:fa,54:35:30:9c:c3:f3,4,5,1,17,192.168.1.27,239.255.255.250, 57584,1900,180,53292</div></td></tr><tr><td><div>01:00:5e:00:00:fc,02:20:ac:3b:a3:a3,4,5,1,17,192.168.1.151,224.0.0.252, 137,137,58,26723</div></td></tr><tr><td><div>01:00:5e:00:00:fc,02:20:ac:3b:a3:a3,4,5,1,17,192.168.1.151,224.0.0.252, 54108,5355,50,55308</div></td></tr><tr><td><div>01:00:5e:00:00:fc,02:20:ac:3b:a3:a3,4,5,1,17,192.168.1.151,224.0.0.252, 54108,5355,50,55308</div></td></tr><tr><td><div>2c:30:33:e1:cc:11,08:3e:8e:d9:6a:1d,4,5,64,6,192.168.1.189,54.159.8.241,59502, 443 , 1442805215 , 1118921157 , 8</div></td></tr><tr><td><div>2c:30:33:e1:cc:11,08:3e:8e:d9:6a:1d,4,5,64,6,192.168.1.189,54.159.8.241,59519, 443 , 4005907868 , 0 , 10</div></td></tr><tr><td><div>01:00:5e:7f:ff:fa,54:35:30:9c:c3:f3,4,5,1,17,192.168.1.27,239.255.255.250, 57584,1900,180,53292</div></td></tr><tr><td><div>2c:30:33:e1:cc:11,08:3e:8e:d9:6a:1d,4,5,64,6,192.168.1.189,54.159.8.241,59520, 443 , 4103164729 , 0 , 10</div></td></tr><tr><td><div>2c:30:33:e1:cc:11,08:3e:8e:d9:6a:1d,4,5,64,6,192.168.1.189,216.58.197.67,43996, 443 , 3581260578 , 870848126 , 8</div></td></tr><tr><td><div>08:3e:8e:d9:6a:1d,2c:30:33:e1:cc:11,4,5,56,6,216.58.197.67,192.168.1.189,443, 43996 , 870848126 , 3581260579 , 8</div></td></tr><tr><td><div>08:3e:8e:d9:6a:1d,2c:30:33:e1:cc:11,4,5,42,6,54.159.8.241,192.168.1.189,443, 59502 , 1118921157 , 1442805216 , 8</div></td></tr><tr><td><div>08:3e:8e:d9:6a:1d,2c:30:33:e1:cc:11,4,5,42,6,54.159.8.241,192.168.1.189,443, 59519 , 2877255402 , 4005907869 , 10</div></td></tr><tr><td><div>2c:30:33:e1:cc:11,08:3e:8e:d9:6a:1d,4,5,64,6,192.168.1.189,54.159.8.241,59519, 443 , 4005907869 , 2877255403 , 8</div></td></tr><tr><td><div>2c:30:33:e1:cc:11,08:3e:8e:d9:6a:1d,4,5,64,6,192.168.1.189,54.159.8.241,59519, 443 , 4005907869 , 2877255403 , 8</div></td></tr><tr><td><div>08:3e:8e:d9:6a:1d,2c:30:33:e1:cc:11,4,5,42,6,54.159.8.241,192.168.1.189,443, 59520 , 2752962365 , 4103164730 , 10</div></td></tr><tr><td><div>2c:30:33:e1:cc:11,08:3e:8e:d9:6a:1d,4,5,64,6,192.168.1.189,54.159.8.241,59520, 443 , 4103164730 , 2752962366 , 8</div></td></tr><tr><td><div>08:3e:8e:d9:6a:1d,2c:30:33:e1:cc:11,4,5,42,6,54.159.8.241,192.168.1.189,443, 59519 , 2877255403 , 4005908386 , 8</div></td></tr></table></div></td></tr><tr><td style="font-weight:bold;vertical-align:top;">b</td><td style="vertical-align:top;">:</td><td><div><table><tr><td><div><table><tr><td><div>1</div></td></tr><tr><td><div>0</div></td></tr><tr><td><div>0</div></td></tr><tr><td><div>0</div></td></tr></table></div></td></tr><tr><td><div><table><tr><td><div>2</div></td></tr><tr><td><div>0</div></td></tr><tr><td><div>1</div></td></tr><tr><td><div>0</div></td></tr></table></div></td></tr><tr><td><div><table><tr><td><div>3</div></td></tr><tr><td><div>0</div></td></tr><tr><td><div>0</div></td></tr><tr><td><div>0</div></td></tr></table></div></td></tr><tr><td><div><table><tr><td><div>4</div></td></tr><tr><td><div>2</div></td></tr><tr><td><div>4</div></td></tr><tr><td><div>0</div></td></tr></table></div></td></tr></table></div></td></tr><tr><td style="font-weight:bold;vertical-align:top;">c</td><td style="vertical-align:top;">:</td><td><div>0</div></td></tr></table></div>'
tRp167
sS'etype'
p168
S"<type 'exceptions.ImportError'>"
p169
sS'date'
p170
S'Sat Nov 26 04:49:48 2016'
p171
sS'response'
p172
g57
(S's\x96\x1d\x00\x00<div><table><tr><td style="font-weight:bold;vertical-align:top;">body</td><td style="vertical-align:top;">:</td><td><div>&lt;cStringIO.StringO object at 0x7fce677f23b0&gt;</div></td></tr><tr><td style="font-weight:bold;vertical-align:top;">cookies</td><td style="vertical-align:top;">:</td><td><div><table><tr><td style="font-weight:bold;vertical-align:top;">session_id_sniffer</td><td style="vertical-align:top;">:</td><td><div>127.0.0.1-ff44cfb1-a268-4381-8576-ff9dfa264a2d<table><tr><td style="font-weight:bold;vertical-align:top;">comment</td><td style="vertical-align:top;">:</td><td><div></div></td></tr><tr><td style="font-weight:bold;vertical-align:top;">domain</td><td style="vertical-align:top;">:</td><td><div></div></td></tr><tr><td style="font-weight:bold;vertical-align:top;">expires</td><td style="vertical-align:top;">:</td><td><div></div></td></tr><tr><td style="font-weight:bold;vertical-align:top;">httponly</td><td style="vertical-align:top;">:</td><td><div></div></td></tr><tr><td style="font-weight:bold;vertical-align:top;">max-age</td><td style="vertical-align:top;">:</td><td><div></div></td></tr><tr><td style="font-weight:bold;vertical-align:top;">path</td><td style="vertical-align:top;">:</td><td><div>/</div></td></tr><tr><td style="font-weight:bold;vertical-align:top;">secure</td><td style="vertical-align:top;">:</td><td><div></div></td></tr><tr><td style="font-weight:bold;vertical-align:top;">version</td><td style="vertical-align:top;">:</td><td><div></div></td></tr></table></div></td></tr></table></div></td></tr><tr><td style="font-weight:bold;vertical-align:top;">delimiters</td><td style="vertical-align:top;">:</td><td><div><table><tr><td><div>{{</div></td></tr><tr><td><div>}}</div></td></tr></table></div></td></tr><tr><td style="font-weight:bold;vertical-align:top;">files</td><td style="vertical-align:top;">:</td><td><div><table></table></div></td></tr><tr><td style="font-weight:bold;vertical-align:top;">flash</td><td style="vertical-align:top;">:</td><td><div></div></td></tr><tr><td style="font-weight:bold;vertical-align:top;">form_label_separator</td><td style="vertical-align:top;">:</td><td><div></div></td></tr><tr><td style="font-weight:bold;vertical-align:top;">formstyle</td><td style="vertical-align:top;">:</td><td><div>bootstrap3_inline</div></td></tr><tr><td style="font-weight:bold;vertical-align:top;">generic_patterns</td><td style="vertical-align:top;">:</td><td><div><table><tr><td><div>*</div></td></tr></table></div></td></tr><tr><td style="font-weight:bold;vertical-align:top;">google_analytics_id</td><td style="vertical-align:top;">:</td><td><div>None</div></td></tr><tr><td style="font-weight:bold;vertical-align:top;">headers</td><td style="vertical-align:top;">:</td><td><div><table><tr><td style="font-weight:bold;vertical-align:top;">X-Powered-By</td><td style="vertical-align:top;">:</td><td><div>web2py</div></td></tr></table></div></td></tr><tr><td style="font-weight:bold;vertical-align:top;">logo</td><td style="vertical-align:top;">:</td><td><div><a class="navbar-brand" href="http://www.web2py.com/" id="web2py-logo"><b>web<span>2</span>py</b>&trade;&nbsp;</a></div></td></tr><tr><td style="font-weight:bold;vertical-align:top;">menu</td><td style="vertical-align:top;">:</td><td><div><table><tr><td><div><table><tr><td><div>Sniff</div></td></tr><tr><td><div>False</div></td></tr><tr><td><div>/sniffer/default/index</div></td></tr><tr><td><div><table></table></div></td></tr></table></div></td></tr></table></div></td></tr><tr><td style="font-weight:bold;vertical-align:top;">meta</td><td style="vertical-align:top;">:</td><td><div><table><tr><td style="font-weight:bold;vertical-align:top;">author</td><td style="vertical-align:top;">:</td><td><div>Your Name &lt;you@example.com&gt;</div></td></tr><tr><td style="font-weight:bold;vertical-align:top;">description</td><td style="vertical-align:top;">:</td><td><div>a cool new app</div></td></tr><tr><td style="font-weight:bold;vertical-align:top;">generator</td><td style="vertical-align:top;">:</td><td><div>Web2py Web Framework</div></td></tr><tr><td style="font-weight:bold;vertical-align:top;">keywords</td><td style="vertical-align:top;">:</td><td><div><table><tr><td><div>web2py</div></td></tr><tr><td><div>python</div></td></tr><tr><td><div>framework</div></td></tr></table></div></td></tr></table></div></td></tr><tr><td style="font-weight:bold;vertical-align:top;">models_to_run</td><td style="vertical-align:top;">:</td><td><div><table><tr><td><div>^\\w+\\.py$</div></td></tr><tr><td><div>^default/\\w+\\.py$</div></td></tr><tr><td><div>^default/getdata/\\w+\\.py$</div></td></tr></table></div></td></tr><tr><td style="font-weight:bold;vertical-align:top;">postprocessing</td><td style="vertical-align:top;">:</td><td><div><table></table></div></td></tr><tr><td style="font-weight:bold;vertical-align:top;">session_client</td><td style="vertical-align:top;">:</td><td><div>127.0.0.1</div></td></tr><tr><td style="font-weight:bold;vertical-align:top;">session_cookie_compression_level</td><td style="vertical-align:top;">:</td><td><div>None</div></td></tr><tr><td style="font-weight:bold;vertical-align:top;">session_cookie_expires</td><td style="vertical-align:top;">:</td><td><div>None</div></td></tr><tr><td style="font-weight:bold;vertical-align:top;">session_data_name</td><td style="vertical-align:top;">:</td><td><div>session_data_sniffer</div></td></tr><tr><td style="font-weight:bold;vertical-align:top;">session_file</td><td style="vertical-align:top;">:</td><td><div>&lt;open file &#x27;/home/preethi/Downloads/web2py/applications/sniffer/sessions/060/08e/127.0.0.1-ff44cfb1-a268-4381-8576-ff9dfa264a2d&#x27;, mode &#x27;rb+&#x27; at 0x7fce4c628a50&gt;</div></td></tr><tr><td style="font-weight:bold;vertical-align:top;">session_filename</td><td style="vertical-align:top;">:</td><td><div>/home/preethi/Downloads/web2py/applications/sniffer/sessions/127.0.0.1-ff44cfb1-a268-4381-8576-ff9dfa264a2d</div></td></tr><tr><td style="font-weight:bold;vertical-align:top;">session_hash</td><td style="vertical-align:top;">:</td><td><div>d412ec5a96c9e36d464c7530037b7af6</div></td></tr><tr><td style="font-weight:bold;vertical-align:top;">session_id</td><td style="vertical-align:top;">:</td><td><div>127.0.0.1-ff44cfb1-a268-4381-8576-ff9dfa264a2d</div></td></tr><tr><td style="font-weight:bold;vertical-align:top;">session_id_name</td><td style="vertical-align:top;">:</td><td><div>session_id_sniffer</div></td></tr><tr><td style="font-weight:bold;vertical-align:top;">session_locked</td><td style="vertical-align:top;">:</td><td><div>True</div></td></tr><tr><td style="font-weight:bold;vertical-align:top;">session_masterapp</td><td style="vertical-align:top;">:</td><td><div>sniffer</div></td></tr><tr><td style="font-weight:bold;vertical-align:top;">session_new</td><td style="vertical-align:top;">:</td><td><div>False</div></td></tr><tr><td style="font-weight:bold;vertical-align:top;">session_storage_type</td><td style="vertical-align:top;">:</td><td><div>file</div></td></tr><tr><td style="font-weight:bold;vertical-align:top;">status</td><td style="vertical-align:top;">:</td><td><div>200</div></td></tr><tr><td style="font-weight:bold;vertical-align:top;">subtitle</td><td style="vertical-align:top;">:</td><td><div></div></td></tr><tr><td style="font-weight:bold;vertical-align:top;">title</td><td style="vertical-align:top;">:</td><td><div>Sniffer</div></td></tr><tr><td style="font-weight:bold;vertical-align:top;">view</td><td style="vertical-align:top;">:</td><td><div>default/getdata.html</div></td></tr></table></div>'
tRp173
sS'locals'
p174
(dp175
S'fromlist'
p176
S"('loads', 'dumps')"
p177
sS'modules_prefix'
p178
S"'applications.sniffer.modules'"
p179
sS'name'
p180
S"'simplejson'"
p181
sS'level'
p182
S'-1'
p183
sS'items'
p184
S"['', 'home', 'preethi', 'Downloads', 'web2py', 'applications', 'sniffer']"
p185
sS'base_importer'
p186
S'<built-in function __import__>'
p187
sS'globals'
p188
S"{'A': <class 'gluon.html.A'>, 'ANY_OF': <class 'gluon.validators.ANY_OF'>, 'ASSIGNJS': <function ASSIGNJS>, 'AppConfig': <function AppConfig>, 'Auth': <class 'gluon.tools.Auth'>, 'B': <class 'gluon.html.B'>, 'BEAUTIFY': <class 'gluon.html.BEAUTIFY'>, 'BODY': <class 'gluon.html.BODY'>, 'BR': <class 'gluon.html.BR'>, 'BUTTON': <class 'gluon.html.BUTTON'>, ...}"
p189
sS'pname'
p190
S"'applications.sniffer.modules.simplejson'"
p191
sS'e3'
p192
S"ImportError('No module named simplejson',)"
p193
sS'e1'
p194
S"ImportError('No module named simplejson',)"
p195
sS'import_tb'
p196
S'None'
p197
sg174
g45
sS'oname'
p198
S"'simplejson'"
p199
sssS'traceback'
p200
S'Traceback (most recent call last):\n  File "/home/preethi/Downloads/web2py/gluon/restricted.py", line 227, in restricted\n    exec ccode in environment\n  File "/home/preethi/Downloads/web2py/applications/sniffer/controllers/default.py", line 257, in <module>\n  File "/home/preethi/Downloads/web2py/gluon/globals.py", line 417, in <lambda>\n    self._caller = lambda f: f()\n  File "/home/preethi/Downloads/web2py/applications/sniffer/controllers/default.py", line 251, in getdata\n    from simplejson import loads, dumps\n  File "/home/preethi/Downloads/web2py/gluon/custom_import.py", line 95, in custom_importer\n    return base_importer(pname, globals, locals, fromlist, level)\nImportError: No module named simplejson\n'
p201
s.