(dp1
S'output'
p2
S"<type 'exceptions.NameError'> global name 'interface' is not defined"
p3
sS'layer'
p4
S'/home/preethi/Downloads/web2py/applications/sniffer/controllers/default.py'
p5
sS'code'
p6
S'import socket\nfrom struct import *\nimport datetime\nimport pcapy,time\nimport sys\nimport thread\nimport threading\nimport subprocess,signal\nfrom pcapy import open_live, findalldevs, PcapError\nimport time\n#from pcapy import findalldevs,open_live\n#from impacket import ImpactDecoder, ImpactPacket\n#from impacket.ImpactDecoder import *\n\n\n\n\nc_tcp = 0\nc_udp = 0\nc_icmp = 0\npackets = []\ngraph_data = [[]]\n\n\n\ndef index():\n    #sniffer()\\\n    devices = pcapy.findalldevs()\n    form = SQLFORM.factory(Field(\'interface\', requires=IS_IN_SET(tuple(devices)),widget=SQLFORM.widgets.radio.widget))\n    if form.process().accepted:\n        redirect(URL(\'snif\',vars = {\'interface\':form.vars.interface}))\n    return locals()\n\n\n\ndef sniffer(interf):\n\t\n        session._unlock(response)\n    \tglobal packets\n    \t#pc = pcap.pcap()\n\tpromiscuous = True\n\tcap = pcapy.open_live(interf , 65536 , promiscuous ,100)\n\n\t#packet_limit = -1 # infinite\n    \t#cap.loop(packet_limit, parse_packet)\n\t#count=9\n    \trow = db(db.stopFlag.id == 1).select()\n\t   \t\n\tflag = row[0].flagval\n\tt1 = (str(time.time()).split(\'.\'))[0]\n    \ttcp = 0\n    \tudp = 0\n    \ticmp = 0\n\tcount=0\n\twhile flag< 200:\n            \tt2 = (str(time.time()).split(\'.\'))[0]\n            \ttry:\n\t\t\tprint "difference is :" + str(int(t2) -int(t1))\n\t\t\tif (int(t2) -int(t1) >= 1):\n\t\t\t\tcount = count + 1\n\t\t\t\ttemp = [(count) , tcp , udp , icmp]\n\t\t\t\tgraph_data.append(temp)\n                \t\tsession.b = graph_data\n\t\t\t\tprint "***************************************"\n                \t\tprint str(tcp) + \',\' + str(udp) + \',\' + str(icmp)\n\t\t\t\tt1 = (str(time.time()).split(\'.\'))[0]\n\t\t\t\tglobal c_tcp\n\t\t\t\tc_tcp = c_tcp + tcp\n\t\t\t\tglobal c_udp\t\t\t\t\n\t\t\t\tc_udp = c_udp + udp\n\t\t\t\tglobal c_icmp\t\t\t\t\n\t\t\t\tc_icmp = c_icmp + icmp\n\t\t\t\ttcp = 0\n\t\t\t\tudp = 0\n\t\t\t\ticmp = 0\n\n\t\t\telse:\n\t\t\t\tprint "chose to capture packet"\n\t\t\t\t(header,packet) = cap.next()\n\t\t\t\t\n\t\t\t\t#count = count+1\n                \t        typ = parse_packet(header,packet)\n              \t\t\tprint "current packet type :" + str(typ)\n\t\t\t\tif typ== \'tcp\':\n\t\t\t\t\ttcp=tcp+1\n\t\t\t\tif typ== \'udp\':\n\t\t\t\t\tudp=udp+1\n\t\t\t\tif typ== \'icmp\':\n\t\t\t\t\ticmp=icmp+1\t\t\t\t\n\t\t\t\tprint "this packets t1 and t2 :" + str(t2) + \',\' + str(t1)\n\t\t\t\n\t\t\t\n                \t\tflag = flag+1    \t\n                except socket.timeout:\n\t\t\tprint "pass"\n                        pass\n\t\t\n\tprint packets\n    \tsession.a = packets\n        \n\n\tprint str(tcp) + \',\' + str(udp) + \',\' + str(icmp)\n\n        return locals()\n\ndef eth_addr (a) :\n\tb = "%.2x:%.2x:%.2x:%.2x:%.2x:%.2x" % (ord(a[0]) , ord(a[1]) , ord(a[2]), ord(a[3]), ord(a[4]) , ord(a[5]))\n\treturn b\n\n#function to parse a packet\ndef parse_packet(hdr,packet) :\n\tglobal packets\n    \ttyp = \'none\'\n\teth_length = 14\n\teth_header = packet[:eth_length]\n\teth = unpack(\'!6s6sH\' , eth_header)\n\teth_protocol = socket.ntohs(eth[2])\n\t#print \'Destination MAC : \' + eth_addr(packet[0:6]) + \' Source MAC : \' + eth_addr(packet[6:12]) + \' Protocol : \' + str(eth_protocol)\n        dest_mac = str(eth_addr(packet[0:6]))\n        src_mac =  str(eth_addr(packet[6:12]))\n\t#Parse IP packets, IP Protocol number = 8\n    \tif eth_protocol == 8 :\n\t\t#Parse IP header\n\t\t#take first 20 characters for the ip header\n\t\tip_header = packet[eth_length:20+eth_length]\n\t\t#now unpack them :)\n\t\tiph = unpack(\'!BBHHHBBH4s4s\' , ip_header)\n\t\tversion_ihl = iph[0]\n\t\tversion = version_ihl >> 4\n\t\tihl = version_ihl & 0xF\n\n\t\tiph_length = ihl * 4\n\n\t\tttl = iph[5]\n\t\tprotocol = iph[6]\n\t\ts_addr = socket.inet_ntoa(iph[8]);\n\t\td_addr = socket.inet_ntoa(iph[9]);\n\n\t\t#print \'Version : \' + str(version) + \' IP Header Length : \' + str(ihl) + \' TTL : \' + str(ttl) + \' Protocol : \' + str(protocol) + \' Source Address : \' + str(s_addr) + \' Destination Address : \' + str(d_addr)\n        \tstring = dest_mac + \',\' + src_mac + \',\' + str(version) + \',\' + str(ihl) + \',\' + str(ttl) + \',\' + str(protocol) + \',\' + str(s_addr) + \',\' + str(d_addr)\n\t\t#TCP protocol\n\t\tif protocol == 6 :\n\t\t\tt = iph_length + eth_length\n\t\t\ttcp_header = packet[t:t+20]\n\n\t\t\t#now unpack them :)\n\t\t\ttcph = unpack(\'!HHLLBBHHH\' , tcp_header)\n\t\t\tsource_port = tcph[0]\n\t\t\tdest_port = tcph[1]\n\t\t\tsequence = tcph[2]\n\t\t\tacknowledgement = tcph[3]\n\t\t\tdoff_reserved = tcph[4]\n\t\t\ttcph_length = doff_reserved >> 4\n\t\t\t#print \'Source Port : \' + str(source_port) + \' Dest Port : \' + str(dest_port) + \' Sequence Number : \' + str(sequence) + \' Acknowledgement : \' + str(acknowledgement) + \' TCP header length : \' + str(tcph_length)\n\n\t\t\tstring = string + \',\' +  str(source_port) + \', \' + str(dest_port) + \' , \' + str(sequence) + \' , \' + str(acknowledgement) + \' , \' + str(tcph_length)\n            \t\ttyp = \'tcp\'\n\t\t\th_size = eth_length + iph_length + tcph_length * 4\n\t\t\tdata_size = len(packet) - h_size\n\t\t\t#get data from the packet\n\t\t\tdata = packet[h_size:]\n#\t\t\tprint \'Data : \' + data\n\n\t\t#ICMP Packets\n\t\telif protocol == 1 :\n\t\t\tu = iph_length + eth_length\n\t\t\ticmph_length = 4\n\t\t\ticmp_header = packet[u:u+4]\n\n\t\t\t#now unpack them :)\n\t\t\ticmph = unpack(\'!BBH\' , icmp_header)\n\t\t\ticmp_type = icmph[0]\n\t\t\tcode = icmph[1]\n\t\t\tchecksum = icmph[2]\n\t\t\t#print \'Type : \' + str(icmp_type) + \' Code : \' + str(code) + \' Checksum : \' + str(checksum)\n\t\t\t\n\t\t\tstring = string + \',\' + str(icmp_type) + \',\' + str(code) + \',\' + str(checksum)\n            \t\ttyp = \'icmp\'\n\t\t\th_size = eth_length + iph_length + icmph_length\n\t\t\tdata_size = len(packet) - h_size\n\t\t\t#get data from the packet\n\t\t\tdata = packet[h_size:]\n#\t\t\tprint \'Data : \' + data\n\n\t\t#UDP packets\n\t\telif protocol == 17 :\n\t\t\tu = iph_length + eth_length\n\t\t\tudph_length = 8\n\t\t\tudp_header = packet[u:u+8]\n\n\t\t\t#now unpack them :)\n\t\t\tudph = unpack(\'!HHHH\' , udp_header)\n\t\t\tsource_port = udph[0]\n\t\t\tdest_port = udph[1]\n\t\t\tlength = udph[2]\n\t\t\tchecksum = udph[3]\n\t\t\t#print \'Source Port : \' + str(source_port) + \' Dest Port : \' + str(dest_port) + \' Length : \' + str(length) + \' Checksum : \' + str(checksum)\n\n\t\t\tstring = string + \', \' + str(source_port) + \',\' + str(dest_port) + \',\' + str(length) + \',\' + str(checksum)\t\t\t\n            \t\ttyp = \'udp\'\n\t\t\th_size = eth_length + iph_length + udph_length\n\t\t\tdata_size = len(packet) - h_size\n\t\t\t#get data from the packet\n\t\t\tdata = packet[h_size:]\n#\t\t\tprint \'Data : \' + data\n\n\t\t#some other IP packet like IGMP\n\t\telse :\n\t\t\tprint \'Protocol other than TCP/UDP/ICMP\'\n\t\tpackets.append(string)\n\n    \telse:\n    \t\tprint "none"\n\n        return typ\n\ndef start() :\n    interface = request.vars.interface\n    print "**********************"+interface + "*************"\n    db(db.stopFlag.id == 1 ).update(flagval = 0)\n    #thread.start_new_thread(sniffer,(interface,))\n    t1 = threading.Thread(target=sniffer, args=(interface,))\n    t1.start()\n    t1.join()\n    redirect(URL(\'snif\',vars = {} ))\n\n    \n    print "workng"\n    return locals()\n\ndef stop():\n    print "******** stop ***********"\n    #db.stopFlag.update_record(flagval=1)\n    #db(db.stopFlag.id == 1 ).update(flagval = 1)\n    return locals()\n\ndef empty():\n    return locals()\n\ndef snif():\n    import json\n    d = session.b\n    \n    if ([]) in d :\n        d.remove([])\n    print "-----------" , d\n    t1 = threading.Thread(target=sniffer, args=(interface,))\n    t1.start()\n    t1.join()\n    return locals()\n\ndef show_pack():\n    print "showing_packets"\n    \n    x = session.a\n    \n    return locals()\ndef getdata():\n    import json\n    d = session.b\n    if ([]) in d:\n           d.remove([])\n    print(d)\n    print json.dumps(d)\n    return json.dumps(d)\n\nresponse._vars=response._caller(snif)\n'
p7
sS'snapshot'
p8
(dp9
S'exception'
p10
(dp11
S'__hash__'
p12
S"<method-wrapper '__hash__' of exceptions.NameError object>"
p13
sS'__setattr__'
p14
S"<method-wrapper '__setattr__' of exceptions.NameError object>"
p15
sS'__reduce_ex__'
p16
S'<built-in method __reduce_ex__ of exceptions.NameError object>'
p17
sS'__getslice__'
p18
S"<method-wrapper '__getslice__' of exceptions.NameError object>"
p19
sS'__getitem__'
p20
S"<method-wrapper '__getitem__' of exceptions.NameError object>"
p21
sS'__setstate__'
p22
S'<built-in method __setstate__ of exceptions.NameError object>'
p23
sS'args'
p24
S'("global name \'interface\' is not defined",)'
p25
sS'__reduce__'
p26
S'<built-in method __reduce__ of exceptions.NameError object>'
p27
sS'__str__'
p28
S"<method-wrapper '__str__' of exceptions.NameError object>"
p29
sS'__format__'
p30
S'<built-in method __format__ of exceptions.NameError object>'
p31
sS'__getattribute__'
p32
S"<method-wrapper '__getattribute__' of exceptions.NameError object>"
p33
sS'__class__'
p34
S"<type 'exceptions.NameError'>"
p35
sS'__unicode__'
p36
S'<built-in method __unicode__ of exceptions.NameError object>'
p37
sS'__delattr__'
p38
S"<method-wrapper '__delattr__' of exceptions.NameError object>"
p39
sS'__subclasshook__'
p40
S'<built-in method __subclasshook__ of type object>'
p41
sS'__repr__'
p42
S"<method-wrapper '__repr__' of exceptions.NameError object>"
p43
sS'__dict__'
p44
S'{}'
p45
sS'__sizeof__'
p46
S'<built-in method __sizeof__ of exceptions.NameError object>'
p47
sS'__doc__'
p48
S"'Name not found globally.'"
p49
sS'__init__'
p50
S"<method-wrapper '__init__' of exceptions.NameError object>"
p51
sS'__new__'
p52
S'<built-in method __new__ of type object>'
p53
ssS'evalue'
p54
S"global name 'interface' is not defined"
p55
sS'request'
p56
cgluon.html
XML_unpickle
p57
(S'sHW\x00\x00<div><table><tr><td style="font-weight:bold;vertical-align:top;">ajax</td><td style="vertical-align:top;">:</td><td><div>False</div></td></tr><tr><td style="font-weight:bold;vertical-align:top;">application</td><td style="vertical-align:top;">:</td><td><div>sniffer</div></td></tr><tr><td style="font-weight:bold;vertical-align:top;">args</td><td style="vertical-align:top;">:</td><td><div><table></table></div></td></tr><tr><td style="font-weight:bold;vertical-align:top;">cid</td><td style="vertical-align:top;">:</td><td><div>None</div></td></tr><tr><td style="font-weight:bold;vertical-align:top;">client</td><td style="vertical-align:top;">:</td><td><div>127.0.0.1</div></td></tr><tr><td style="font-weight:bold;vertical-align:top;">controller</td><td style="vertical-align:top;">:</td><td><div>default</div></td></tr><tr><td style="font-weight:bold;vertical-align:top;">cookies</td><td style="vertical-align:top;">:</td><td><div><table><tr><td style="font-weight:bold;vertical-align:top;">session_id_admin</td><td style="vertical-align:top;">:</td><td><div>127.0.0.1-263809c3-25ef-4265-855c-8af27dce9f0d<table><tr><td style="font-weight:bold;vertical-align:top;">comment</td><td style="vertical-align:top;">:</td><td><div></div></td></tr><tr><td style="font-weight:bold;vertical-align:top;">domain</td><td style="vertical-align:top;">:</td><td><div></div></td></tr><tr><td style="font-weight:bold;vertical-align:top;">expires</td><td style="vertical-align:top;">:</td><td><div></div></td></tr><tr><td style="font-weight:bold;vertical-align:top;">httponly</td><td style="vertical-align:top;">:</td><td><div></div></td></tr><tr><td style="font-weight:bold;vertical-align:top;">max-age</td><td style="vertical-align:top;">:</td><td><div></div></td></tr><tr><td style="font-weight:bold;vertical-align:top;">path</td><td style="vertical-align:top;">:</td><td><div></div></td></tr><tr><td style="font-weight:bold;vertical-align:top;">secure</td><td style="vertical-align:top;">:</td><td><div></div></td></tr><tr><td style="font-weight:bold;vertical-align:top;">version</td><td style="vertical-align:top;">:</td><td><div></div></td></tr></table></div></td></tr><tr><td style="font-weight:bold;vertical-align:top;">session_id_sniffer</td><td style="vertical-align:top;">:</td><td><div>127.0.0.1-888372bd-25a6-450b-b682-cd53cc2c25d5<table><tr><td style="font-weight:bold;vertical-align:top;">comment</td><td style="vertical-align:top;">:</td><td><div></div></td></tr><tr><td style="font-weight:bold;vertical-align:top;">domain</td><td style="vertical-align:top;">:</td><td><div></div></td></tr><tr><td style="font-weight:bold;vertical-align:top;">expires</td><td style="vertical-align:top;">:</td><td><div></div></td></tr><tr><td style="font-weight:bold;vertical-align:top;">httponly</td><td style="vertical-align:top;">:</td><td><div></div></td></tr><tr><td style="font-weight:bold;vertical-align:top;">max-age</td><td style="vertical-align:top;">:</td><td><div></div></td></tr><tr><td style="font-weight:bold;vertical-align:top;">path</td><td style="vertical-align:top;">:</td><td><div></div></td></tr><tr><td style="font-weight:bold;vertical-align:top;">secure</td><td style="vertical-align:top;">:</td><td><div></div></td></tr><tr><td style="font-weight:bold;vertical-align:top;">version</td><td style="vertical-align:top;">:</td><td><div></div></td></tr></table></div></td></tr></table></div></td></tr><tr><td style="font-weight:bold;vertical-align:top;">env</td><td style="vertical-align:top;">:</td><td><div><table><tr><td style="font-weight:bold;vertical-align:top;">HTTP_ACCEPT</td><td style="vertical-align:top;">:</td><td><div>text/html,application/xhtml+xml,application/xml;q=0.9,image/webp,*/*;q=0.8</div></td></tr><tr><td style="font-weight:bold;vertical-align:top;">HTTP_ACCEPT_ENCODING</td><td style="vertical-align:top;">:</td><td><div>gzip, deflate, sdch</div></td></tr><tr><td style="font-weight:bold;vertical-align:top;">HTTP_ACCEPT_LANGUAGE</td><td style="vertical-align:top;">:</td><td><div>en-US,en;q=0.8</div></td></tr><tr><td style="font-weight:bold;vertical-align:top;">HTTP_CACHE_CONTROL</td><td style="vertical-align:top;">:</td><td><div>max-age=0</div></td></tr><tr><td style="font-weight:bold;vertical-align:top;">HTTP_CONNECTION</td><td style="vertical-align:top;">:</td><td><div>keep-alive</div></td></tr><tr><td style="font-weight:bold;vertical-align:top;">HTTP_COOKIE</td><td style="vertical-align:top;">:</td><td><div>session_id_admin=127.0.0.1-263809c3-25ef-4265-855c-8af27dce9f0d; session_id_sniffer=127.0.0.1-888372bd-25a6-450b-b682-cd53cc2c25d5</div></td></tr><tr><td style="font-weight:bold;vertical-align:top;">HTTP_HOST</td><td style="vertical-align:top;">:</td><td><div>127.0.0.1:8000</div></td></tr><tr><td style="font-weight:bold;vertical-align:top;">HTTP_REFERER</td><td style="vertical-align:top;">:</td><td><div>http://127.0.0.1:8000/sniffer/default/</div></td></tr><tr><td style="font-weight:bold;vertical-align:top;">HTTP_UPGRADE_INSECURE_REQUESTS</td><td style="vertical-align:top;">:</td><td><div>1</div></td></tr><tr><td style="font-weight:bold;vertical-align:top;">HTTP_USER_AGENT</td><td style="vertical-align:top;">:</td><td><div>Mozilla/5.0 (X11; Linux x86_64) AppleWebKit/537.36 (KHTML, like Gecko) Chrome/53.0.2785.143 Safari/537.36</div></td></tr><tr><td style="font-weight:bold;vertical-align:top;">PATH_INFO</td><td style="vertical-align:top;">:</td><td><div>/sniffer/default/snif</div></td></tr><tr><td style="font-weight:bold;vertical-align:top;">QUERY_STRING</td><td style="vertical-align:top;">:</td><td><div>interface=wlan0</div></td></tr><tr><td style="font-weight:bold;vertical-align:top;">REMOTE_ADDR</td><td style="vertical-align:top;">:</td><td><div>127.0.0.1</div></td></tr><tr><td style="font-weight:bold;vertical-align:top;">REMOTE_PORT</td><td style="vertical-align:top;">:</td><td><div>51145</div></td></tr><tr><td style="font-weight:bold;vertical-align:top;">REQUEST_METHOD</td><td style="vertical-align:top;">:</td><td><div>GET</div></td></tr><tr><td style="font-weight:bold;vertical-align:top;">SCRIPT_NAME</td><td style="vertical-align:top;">:</td><td><div></div></td></tr><tr><td style="font-weight:bold;vertical-align:top;">SERVER_NAME</td><td style="vertical-align:top;">:</td><td><div>preethi-SVE1512J6EB</div></td></tr><tr><td style="font-weight:bold;vertical-align:top;">SERVER_PORT</td><td style="vertical-align:top;">:</td><td><div>8000</div></td></tr><tr><td style="font-weight:bold;vertical-align:top;">SERVER_PROTOCOL</td><td style="vertical-align:top;">:</td><td><div>HTTP/1.1</div></td></tr><tr><td style="font-weight:bold;vertical-align:top;">SERVER_SOFTWARE</td><td style="vertical-align:top;">:</td><td><div>Rocket 1.2.6</div></td></tr><tr><td style="font-weight:bold;vertical-align:top;">app_folders</td><td style="vertical-align:top;">:</td><td><div>set([&#x27;/home/preethi/Downloads/web2py/applications/admin/&#x27;, &#x27;/home/preethi/Downloads/web2py/applications/sniffer/&#x27;])</div></td></tr><tr><td style="font-weight:bold;vertical-align:top;">applications_parent</td><td style="vertical-align:top;">:</td><td><div>/home/preethi/Downloads/web2py</div></td></tr><tr><td style="font-weight:bold;vertical-align:top;">cmd_args</td><td style="vertical-align:top;">:</td><td><div><table></table></div></td></tr><tr><td style="font-weight:bold;vertical-align:top;">cmd_options</td><td style="vertical-align:top;">:</td><td><div>&lt;Values at 0x7fcd931b6cb0: {&#x27;verbose&#x27;: False, &#x27;ip&#x27;: &#x27;127.0.0.1&#x27;, &#x27;debuglevel&#x27;: 30, &#x27;with_scheduler&#x27;: False, &#x27;shutdown_timeout&#x27;: 5, &#x27;taskbar&#x27;: False, &#x27;with_coverage&#x27;: False, &#x27;pid_filename&#x27;: &#x27;httpserver.pid&#x27;, &#x27;maxthreads&#x27;: None, &#x27;softcron&#x27;: False, &#x27;server_name&#x27;: &#x27;preethi-SVE1512J6EB&#x27;, &#x27;bpython&#x27;: False, &#x27;nogui&#x27;: False, &#x27;port&#x27;: 8000, &#x27;print_errors&#x27;: False, &#x27;extcron&#x27;: False, &#x27;runcron&#x27;: False, &#x27;run_system_tests&#x27;: False, &#x27;test&#x27;: None, &#x27;folder&#x27;: &#x27;/home/preethi/Downloads/web2py&#x27;, &#x27;config&#x27;: &#x27;&#x27;, &#x27;minthreads&#x27;: None, &#x27;shell&#x27;: None, &#x27;run&#x27;: &#x27;&#x27;, &#x27;log_filename&#x27;: &#x27;httpserver.log&#x27;, &#x27;profiler_dir&#x27;: None, &#x27;args&#x27;: [&#x27;&#x27;], &#x27;socket_timeout&#x27;: 5, &#x27;ssl_ca_certificate&#x27;: None, &#x27;scheduler&#x27;: None, &#x27;interfaces&#x27;: None, &#x27;ssl_private_key&#x27;: &#x27;&#x27;, &#x27;gae&#x27;: None, &#x27;password&#x27;: &#x27;******&#x27;, &#x27;request_queue_size&#x27;: 5, &#x27;ssl_certificate&#x27;: &#x27;&#x27;, &#x27;cronjob&#x27;: False, &#x27;numthreads&#x27;: None, &#x27;quiet&#x27;: False, &#x27;import_models&#x27;: False, &#x27;timeout&#x27;: 10, &#x27;plain&#x27;: False, &#x27;nobanner&#x27;: False}&gt;</div></td></tr><tr><td style="font-weight:bold;vertical-align:top;">db_sessions</td><td style="vertical-align:top;">:</td><td><div>set([])</div></td></tr><tr><td style="font-weight:bold;vertical-align:top;">debugging</td><td style="vertical-align:top;">:</td><td><div>True</div></td></tr><tr><td style="font-weight:bold;vertical-align:top;">gluon_parent</td><td style="vertical-align:top;">:</td><td><div>/home/preethi/Downloads/web2py</div></td></tr><tr><td style="font-weight:bold;vertical-align:top;">http_accept</td><td style="vertical-align:top;">:</td><td><div>text/html,application/xhtml+xml,application/xml;q=0.9,image/webp,*/*;q=0.8</div></td></tr><tr><td style="font-weight:bold;vertical-align:top;">http_accept_encoding</td><td style="vertical-align:top;">:</td><td><div>gzip, deflate, sdch</div></td></tr><tr><td style="font-weight:bold;vertical-align:top;">http_accept_language</td><td style="vertical-align:top;">:</td><td><div>en-US,en;q=0.8</div></td></tr><tr><td style="font-weight:bold;vertical-align:top;">http_cache_control</td><td style="vertical-align:top;">:</td><td><div>max-age=0</div></td></tr><tr><td style="font-weight:bold;vertical-align:top;">http_connection</td><td style="vertical-align:top;">:</td><td><div>keep-alive</div></td></tr><tr><td style="font-weight:bold;vertical-align:top;">http_cookie</td><td style="vertical-align:top;">:</td><td><div>session_id_admin=127.0.0.1-263809c3-25ef-4265-855c-8af27dce9f0d; session_id_sniffer=127.0.0.1-888372bd-25a6-450b-b682-cd53cc2c25d5</div></td></tr><tr><td style="font-weight:bold;vertical-align:top;">http_host</td><td style="vertical-align:top;">:</td><td><div>127.0.0.1:8000</div></td></tr><tr><td style="font-weight:bold;vertical-align:top;">http_referer</td><td style="vertical-align:top;">:</td><td><div>http://127.0.0.1:8000/sniffer/default/</div></td></tr><tr><td style="font-weight:bold;vertical-align:top;">http_upgrade_insecure_requests</td><td style="vertical-align:top;">:</td><td><div>1</div></td></tr><tr><td style="font-weight:bold;vertical-align:top;">http_user_agent</td><td style="vertical-align:top;">:</td><td><div>Mozilla/5.0 (X11; Linux x86_64) AppleWebKit/537.36 (KHTML, like Gecko) Chrome/53.0.2785.143 Safari/537.36</div></td></tr><tr><td style="font-weight:bold;vertical-align:top;">is_jython</td><td style="vertical-align:top;">:</td><td><div>False</div></td></tr><tr><td style="font-weight:bold;vertical-align:top;">is_pypy</td><td style="vertical-align:top;">:</td><td><div>False</div></td></tr><tr><td style="font-weight:bold;vertical-align:top;">is_source</td><td style="vertical-align:top;">:</td><td><div>True</div></td></tr><tr><td style="font-weight:bold;vertical-align:top;">local_hosts</td><td style="vertical-align:top;">:</td><td><div><table><tr><td><div>::1</div></td></tr><tr><td><div>127.0.1.1</div></td></tr><tr><td><div>::ffff:127.0.0.1</div></td></tr><tr><td><div>127.0.0.1</div></td></tr><tr><td><div>preethi-SVE1512J6EB</div></td></tr></table></div></td></tr><tr><td style="font-weight:bold;vertical-align:top;">path_info</td><td style="vertical-align:top;">:</td><td><div>/sniffer/default/snif</div></td></tr><tr><td style="font-weight:bold;vertical-align:top;">query_string</td><td style="vertical-align:top;">:</td><td><div>interface=wlan0</div></td></tr><tr><td style="font-weight:bold;vertical-align:top;">remote_addr</td><td style="vertical-align:top;">:</td><td><div>127.0.0.1</div></td></tr><tr><td style="font-weight:bold;vertical-align:top;">remote_port</td><td style="vertical-align:top;">:</td><td><div>51145</div></td></tr><tr><td style="font-weight:bold;vertical-align:top;">request_method</td><td style="vertical-align:top;">:</td><td><div>GET</div></td></tr><tr><td style="font-weight:bold;vertical-align:top;">request_uri</td><td style="vertical-align:top;">:</td><td><div>/sniffer/default/snif?interface=wlan0</div></td></tr><tr><td style="font-weight:bold;vertical-align:top;">script_name</td><td style="vertical-align:top;">:</td><td><div></div></td></tr><tr><td style="font-weight:bold;vertical-align:top;">server_name</td><td style="vertical-align:top;">:</td><td><div>preethi-SVE1512J6EB</div></td></tr><tr><td style="font-weight:bold;vertical-align:top;">server_port</td><td style="vertical-align:top;">:</td><td><div>8000</div></td></tr><tr><td style="font-weight:bold;vertical-align:top;">server_protocol</td><td style="vertical-align:top;">:</td><td><div>HTTP/1.1</div></td></tr><tr><td style="font-weight:bold;vertical-align:top;">server_software</td><td style="vertical-align:top;">:</td><td><div>Rocket 1.2.6</div></td></tr><tr><td style="font-weight:bold;vertical-align:top;">web2py_path</td><td style="vertical-align:top;">:</td><td><div>/home/preethi/Downloads/web2py</div></td></tr><tr><td style="font-weight:bold;vertical-align:top;">web2py_version</td><td style="vertical-align:top;">:</td><td><div>2.14.6-stable+timestamp.2016.05.10.00.21.47</div></td></tr><tr><td style="font-weight:bold;vertical-align:top;">wsgi.errors</td><td style="vertical-align:top;">:</td><td><div>&lt;open file &#x27;&lt;stderr&gt;&#x27;, mode &#x27;w&#x27; at 0x7fcd9a6331e0&gt;</div></td></tr><tr><td style="font-weight:bold;vertical-align:top;">wsgi.file_wrapper</td><td style="vertical-align:top;">:</td><td><div>&lt;class wsgiref.util.FileWrapper at 0x7fcd932568d8&gt;</div></td></tr><tr><td style="font-weight:bold;vertical-align:top;">wsgi.input</td><td style="vertical-align:top;">:</td><td><div>&lt;socket._fileobject object at 0x7fcd5e111150&gt;</div></td></tr><tr><td style="font-weight:bold;vertical-align:top;">wsgi.multiprocess</td><td style="vertical-align:top;">:</td><td><div>False</div></td></tr><tr><td style="font-weight:bold;vertical-align:top;">wsgi.multithread</td><td style="vertical-align:top;">:</td><td><div>True</div></td></tr><tr><td style="font-weight:bold;vertical-align:top;">wsgi.run_once</td><td style="vertical-align:top;">:</td><td><div>False</div></td></tr><tr><td style="font-weight:bold;vertical-align:top;">wsgi.url_scheme</td><td style="vertical-align:top;">:</td><td><div>http</div></td></tr><tr><td style="font-weight:bold;vertical-align:top;">wsgi.version</td><td style="vertical-align:top;">:</td><td><div><table><tr><td><div>1</div></td></tr><tr><td><div>0</div></td></tr></table></div></td></tr><tr><td style="font-weight:bold;vertical-align:top;">wsgi_errors</td><td style="vertical-align:top;">:</td><td><div>&lt;open file &#x27;&lt;stderr&gt;&#x27;, mode &#x27;w&#x27; at 0x7fcd9a6331e0&gt;</div></td></tr><tr><td style="font-weight:bold;vertical-align:top;">wsgi_file_wrapper</td><td style="vertical-align:top;">:</td><td><div>&lt;class wsgiref.util.FileWrapper at 0x7fcd932568d8&gt;</div></td></tr><tr><td style="font-weight:bold;vertical-align:top;">wsgi_input</td><td style="vertical-align:top;">:</td><td><div>&lt;socket._fileobject object at 0x7fcd5e111150&gt;</div></td></tr><tr><td style="font-weight:bold;vertical-align:top;">wsgi_multiprocess</td><td style="vertical-align:top;">:</td><td><div>False</div></td></tr><tr><td style="font-weight:bold;vertical-align:top;">wsgi_multithread</td><td style="vertical-align:top;">:</td><td><div>True</div></td></tr><tr><td style="font-weight:bold;vertical-align:top;">wsgi_run_once</td><td style="vertical-align:top;">:</td><td><div>False</div></td></tr><tr><td style="font-weight:bold;vertical-align:top;">wsgi_url_scheme</td><td style="vertical-align:top;">:</td><td><div>http</div></td></tr><tr><td style="font-weight:bold;vertical-align:top;">wsgi_version</td><td style="vertical-align:top;">:</td><td><div><table><tr><td><div>1</div></td></tr><tr><td><div>0</div></td></tr></table></div></td></tr></table></div></td></tr><tr><td style="font-weight:bold;vertical-align:top;">extension</td><td style="vertical-align:top;">:</td><td><div>html</div></td></tr><tr><td style="font-weight:bold;vertical-align:top;">folder</td><td style="vertical-align:top;">:</td><td><div>/home/preethi/Downloads/web2py/applications/sniffer/</div></td></tr><tr><td style="font-weight:bold;vertical-align:top;">function</td><td style="vertical-align:top;">:</td><td><div>snif</div></td></tr><tr><td style="font-weight:bold;vertical-align:top;">global_settings</td><td style="vertical-align:top;">:</td><td><div><table><tr><td style="font-weight:bold;vertical-align:top;">app_folders</td><td style="vertical-align:top;">:</td><td><div>set([&#x27;/home/preethi/Downloads/web2py/applications/admin/&#x27;, &#x27;/home/preethi/Downloads/web2py/applications/sniffer/&#x27;])</div></td></tr><tr><td style="font-weight:bold;vertical-align:top;">applications_parent</td><td style="vertical-align:top;">:</td><td><div>/home/preethi/Downloads/web2py</div></td></tr><tr><td style="font-weight:bold;vertical-align:top;">cmd_args</td><td style="vertical-align:top;">:</td><td><div><table></table></div></td></tr><tr><td style="font-weight:bold;vertical-align:top;">cmd_options</td><td style="vertical-align:top;">:</td><td><div>&lt;Values at 0x7fcd931b6cb0: {&#x27;verbose&#x27;: False, &#x27;ip&#x27;: &#x27;127.0.0.1&#x27;, &#x27;debuglevel&#x27;: 30, &#x27;with_scheduler&#x27;: False, &#x27;shutdown_timeout&#x27;: 5, &#x27;taskbar&#x27;: False, &#x27;with_coverage&#x27;: False, &#x27;pid_filename&#x27;: &#x27;httpserver.pid&#x27;, &#x27;maxthreads&#x27;: None, &#x27;softcron&#x27;: False, &#x27;server_name&#x27;: &#x27;preethi-SVE1512J6EB&#x27;, &#x27;bpython&#x27;: False, &#x27;nogui&#x27;: False, &#x27;port&#x27;: 8000, &#x27;print_errors&#x27;: False, &#x27;extcron&#x27;: False, &#x27;runcron&#x27;: False, &#x27;run_system_tests&#x27;: False, &#x27;test&#x27;: None, &#x27;folder&#x27;: &#x27;/home/preethi/Downloads/web2py&#x27;, &#x27;config&#x27;: &#x27;&#x27;, &#x27;minthreads&#x27;: None, &#x27;shell&#x27;: None, &#x27;run&#x27;: &#x27;&#x27;, &#x27;log_filename&#x27;: &#x27;httpserver.log&#x27;, &#x27;profiler_dir&#x27;: None, &#x27;args&#x27;: [&#x27;&#x27;], &#x27;socket_timeout&#x27;: 5, &#x27;ssl_ca_certificate&#x27;: None, &#x27;scheduler&#x27;: None, &#x27;interfaces&#x27;: None, &#x27;ssl_private_key&#x27;: &#x27;&#x27;, &#x27;gae&#x27;: None, &#x27;password&#x27;: &#x27;******&#x27;, &#x27;request_queue_size&#x27;: 5, &#x27;ssl_certificate&#x27;: &#x27;&#x27;, &#x27;cronjob&#x27;: False, &#x27;numthreads&#x27;: None, &#x27;quiet&#x27;: False, &#x27;import_models&#x27;: False, &#x27;timeout&#x27;: 10, &#x27;plain&#x27;: False, &#x27;nobanner&#x27;: False}&gt;</div></td></tr><tr><td style="font-weight:bold;vertical-align:top;">db_sessions</td><td style="vertical-align:top;">:</td><td><div>set([])</div></td></tr><tr><td style="font-weight:bold;vertical-align:top;">debugging</td><td style="vertical-align:top;">:</td><td><div>True</div></td></tr><tr><td style="font-weight:bold;vertical-align:top;">gluon_parent</td><td style="vertical-align:top;">:</td><td><div>/home/preethi/Downloads/web2py</div></td></tr><tr><td style="font-weight:bold;vertical-align:top;">is_jython</td><td style="vertical-align:top;">:</td><td><div>False</div></td></tr><tr><td style="font-weight:bold;vertical-align:top;">is_pypy</td><td style="vertical-align:top;">:</td><td><div>False</div></td></tr><tr><td style="font-weight:bold;vertical-align:top;">is_source</td><td style="vertical-align:top;">:</td><td><div>True</div></td></tr><tr><td style="font-weight:bold;vertical-align:top;">local_hosts</td><td style="vertical-align:top;">:</td><td><div><table><tr><td><div>::1</div></td></tr><tr><td><div>127.0.1.1</div></td></tr><tr><td><div>::ffff:127.0.0.1</div></td></tr><tr><td><div>127.0.0.1</div></td></tr><tr><td><div>preethi-SVE1512J6EB</div></td></tr></table></div></td></tr><tr><td style="font-weight:bold;vertical-align:top;">web2py_version</td><td style="vertical-align:top;">:</td><td><div>2.14.6-stable+timestamp.2016.05.10.00.21.47</div></td></tr></table></div></td></tr><tr><td style="font-weight:bold;vertical-align:top;">is_https</td><td style="vertical-align:top;">:</td><td><div>False</div></td></tr><tr><td style="font-weight:bold;vertical-align:top;">is_local</td><td style="vertical-align:top;">:</td><td><div>True</div></td></tr><tr><td style="font-weight:bold;vertical-align:top;">is_restful</td><td style="vertical-align:top;">:</td><td><div>False</div></td></tr><tr><td style="font-weight:bold;vertical-align:top;">is_scheduler</td><td style="vertical-align:top;">:</td><td><div>False</div></td></tr><tr><td style="font-weight:bold;vertical-align:top;">is_shell</td><td style="vertical-align:top;">:</td><td><div>False</div></td></tr><tr><td style="font-weight:bold;vertical-align:top;">now</td><td style="vertical-align:top;">:</td><td><div>datetime.datetime(2016, 11, 26, 8, 17, 4, 245628)</div></td></tr><tr><td style="font-weight:bold;vertical-align:top;">raw_args</td><td style="vertical-align:top;">:</td><td><div></div></td></tr><tr><td style="font-weight:bold;vertical-align:top;">raw_extension</td><td style="vertical-align:top;">:</td><td><div>None</div></td></tr><tr><td style="font-weight:bold;vertical-align:top;">url</td><td style="vertical-align:top;">:</td><td><div>/sniffer/default/snif</div></td></tr><tr><td style="font-weight:bold;vertical-align:top;">utcnow</td><td style="vertical-align:top;">:</td><td><div>datetime.datetime(2016, 11, 26, 2, 47, 4, 245647)</div></td></tr><tr><td style="font-weight:bold;vertical-align:top;">wsgi</td><td style="vertical-align:top;">:</td><td><div>&lt;gluon.main.LazyWSGI object at 0x7fcd5d70b1d0&gt;</div></td></tr></table></div>'
tRp58
sS'frames'
p59
(lp60
(dp61
S'file'
p62
S'/home/preethi/Downloads/web2py/gluon/restricted.py'
p63
sS'dump'
p64
(dp65
S'environment'
p66
S"{'A': <class 'gluon.html.A'>, 'ANY_OF': <class 'gluon.validators.ANY_OF'>, 'ASSIGNJS': <function ASSIGNJS>, 'AppConfig': <function AppConfig>, 'Auth': <class 'gluon.tools.Auth'>, 'B': <class 'gluon.html.B'>, 'BEAUTIFY': <class 'gluon.html.BEAUTIFY'>, 'BODY': <class 'gluon.html.BODY'>, 'BR': <class 'gluon.html.BR'>, 'BUTTON': <class 'gluon.html.BUTTON'>, ...}"
p67
sS'ccode'
p68
S'<code object <module> at 0x7fcd5d6ffdb0, file "/...ications/sniffer/controllers/default.py", line 1>'
p69
ssS'lnum'
p70
I227
sS'lines'
p71
(dp72
I224
S'            ccode = code'
p73
sI225
S'        else:'
p74
sI226
S'            ccode = compile2(code, layer)'
p75
sI227
S'        exec ccode in environment'
p76
sI228
S'    except HTTP:'
p77
sI229
S'        raise'
p78
sI230
S'    except RestrictedError:'
p79
sI231
S'        # do not encapsulate (obfuscate) the original RestrictedError'
p80
sI222
S'    try:'
p81
sI223
S'        if isinstance(code, types.CodeType):'
p82
ssS'call'
p83
S"(code='import socket\\nfrom struct import *\\nimport dateti....dumps(d)\\n\\nresponse._vars=response._caller(snif)\\n', environment={'A': <class 'gluon.html.A'>, 'ANY_OF': <class 'gluon.validators.ANY_OF'>, 'ASSIGNJS': <function ASSIGNJS>, 'AppConfig': <function AppConfig>, 'Auth': <class 'gluon.tools.Auth'>, 'B': <class 'gluon.html.B'>, 'BEAUTIFY': <class 'gluon.html.BEAUTIFY'>, 'BODY': <class 'gluon.html.BODY'>, 'BR': <class 'gluon.html.BR'>, 'BUTTON': <class 'gluon.html.BUTTON'>, ...}, layer='/home/preethi/Downloads/web2py/applications/sniffer/controllers/default.py')"
p84
sS'func'
p85
S'restricted'
p86
sa(dp87
g62
S'/home/preethi/Downloads/web2py/applications/sniffer/controllers/default.py'
p88
sg64
(dp89
sg70
I267
sg71
(dp90
I256
S''
sI257
S'    return locals()'
p91
sI258
S'def getdata():'
p92
sI259
S'    import json'
p93
sI260
S'    d = session.b'
p94
sI261
S'    if ([]) in d:'
p95
sI262
S'           d.remove([])'
p96
sI263
S'    print(d)'
p97
sI264
S'    print json.dumps(d)'
p98
sI265
S'    return json.dumps(d)'
p99
ssg83
S'()'
p100
sg85
S'<module>'
p101
sa(dp102
g62
S'/home/preethi/Downloads/web2py/gluon/globals.py'
p103
sg64
(dp104
S'self'
p105
S'undefined'
p106
sS'f'
S'<function snif>'
p107
ssg70
I417
sg71
(dp108
I416
S'        self._vars = None'
p109
sI417
S'        self._caller = lambda f: f()'
p110
sI418
S'        self._view_environment = None'
p111
sI419
S'        self._custom_commit = None'
p112
sI420
S'        self._custom_rollback = None'
p113
sI421
S"        self.generic_patterns = ['*']"
p114
sI412
S"        self.flash = ''            # used by the default view layout"
p115
sI413
S'        self.meta = Storage()      # used by web2py_ajax.html'
p116
sI414
S'        self.menu = []             # used by the default view layout'
p117
sI415
S'        self.files = []            # used by web2py_ajax.html'
p118
ssg83
S'(f=<function snif>)'
p119
sg85
S'<lambda>'
p120
sa(dp121
g62
S'/home/preethi/Downloads/web2py/applications/sniffer/controllers/default.py'
p122
sg64
(dp123
S'threading.Thread'
p124
S"<class 'threading.Thread'>"
p125
sS'target'
p126
g106
sS'args'
p127
g106
sS't1'
p128
g106
sS'global sniffer'
p129
S'<function sniffer>'
p130
sS'interface'
p131
g106
sS'global threading'
p132
S"<module 'threading' from '/usr/lib/python2.7/threading.pyc'>"
p133
ssg70
I247
sg71
(dp134
I242
S'    d = session.b'
p135
sI243
S''
sI244
S'    if ([]) in d :'
p136
sI245
S'        d.remove([])'
p137
sI246
S'    print "-----------" , d'
p138
sI247
S'    t1 = threading.Thread(target=sniffer, args=(interface,))'
p139
sI248
S'    t1.start()'
p140
sI249
S'    t1.join()'
p141
sI250
S'    return locals()'
p142
sI251
S''
ssg83
S'()'
p143
sg85
S'snif'
p144
sasS'pyver'
p145
S'Python 2.7.6: /usr/bin/python (prefix: /usr)'
p146
sS'session'
p147
g57
(S's\xcf\x9c\x00\x00<div><table><tr><td style="font-weight:bold;vertical-align:top;">a</td><td style="vertical-align:top;">:</td><td><div><table><tr><td><div>2c:30:33:e1:cc:11,08:3e:8e:d9:6a:1d,4,5,64,6,192.168.1.189,216.58.197.65,42148, 443 , 294264848 , 2951767522 , 8</div></td></tr><tr><td><div>08:3e:8e:d9:6a:1d,2c:30:33:e1:cc:11,4,5,56,6,216.58.197.65,192.168.1.189,443, 42148 , 2951767522 , 294264849 , 8</div></td></tr><tr><td><div>2c:30:33:e1:cc:11,08:3e:8e:d9:6a:1d,4,5,64,6,192.168.1.189,172.217.26.206,40118, 443 , 1331561877 , 3153029431 , 8</div></td></tr><tr><td><div>08:3e:8e:d9:6a:1d,2c:30:33:e1:cc:11,4,5,56,6,172.217.26.206,192.168.1.189,443, 40118 , 3153029431 , 1331561878 , 8</div></td></tr><tr><td><div>01:00:5e:00:00:fc,02:20:ac:3b:a3:a3,4,5,1,17,192.168.1.151,224.0.0.252, 137,137,58,25172</div></td></tr><tr><td><div>2c:30:33:e1:cc:11,08:3e:8e:d9:6a:1d,4,5,64,6,192.168.1.189,172.217.26.173,51763, 443 , 1366941061 , 2111118556 , 8</div></td></tr><tr><td><div>08:3e:8e:d9:6a:1d,2c:30:33:e1:cc:11,4,5,56,6,172.217.26.173,192.168.1.189,443, 51763 , 2111118556 , 1366941062 , 8</div></td></tr><tr><td><div>2c:30:33:e1:cc:11,08:3e:8e:d9:6a:1d,4,5,64,6,192.168.1.189,216.58.197.74,46257, 443 , 854555191 , 2986876589 , 8</div></td></tr><tr><td><div>08:3e:8e:d9:6a:1d,2c:30:33:e1:cc:11,4,5,56,6,216.58.197.74,192.168.1.189,443, 46257 , 2986876589 , 854555192 , 8</div></td></tr><tr><td><div>2c:30:33:e1:cc:11,08:3e:8e:d9:6a:1d,4,5,64,6,192.168.1.189,172.217.26.200,41675, 443 , 4053648577 , 4191217246 , 8</div></td></tr><tr><td><div>08:3e:8e:d9:6a:1d,2c:30:33:e1:cc:11,4,5,56,6,172.217.26.200,192.168.1.189,443, 41675 , 4191217246 , 4053648578 , 8</div></td></tr><tr><td><div>2c:30:33:e1:cc:11,08:3e:8e:d9:6a:1d,4,5,64,17,192.168.1.189,172.217.26.197, 40103,443,31,29896</div></td></tr><tr><td><div>08:3e:8e:d9:6a:1d,2c:30:33:e1:cc:11,4,5,56,17,172.217.26.197,192.168.1.189, 443,40103,42,12879</div></td></tr><tr><td><div>01:00:5e:00:00:fc,02:20:ac:3b:a3:a3,4,5,1,17,192.168.1.151,224.0.0.252, 54645,5355,50,56642</div></td></tr><tr><td><div>01:00:5e:00:00:fc,02:20:ac:3b:a3:a3,4,5,1,17,192.168.1.151,224.0.0.252, 54645,5355,50,56642</div></td></tr><tr><td><div>2c:30:33:e1:cc:11,08:3e:8e:d9:6a:1d,4,5,64,6,192.168.1.189,172.217.26.174,58341, 443 , 2595237317 , 1272472036 , 8</div></td></tr><tr><td><div>2c:30:33:e1:cc:11,08:3e:8e:d9:6a:1d,4,5,64,6,192.168.1.189,172.217.26.174,58317, 443 , 2743875223 , 1491756856 , 8</div></td></tr><tr><td><div>08:3e:8e:d9:6a:1d,2c:30:33:e1:cc:11,4,5,56,6,172.217.26.174,192.168.1.189,443, 58341 , 1272472036 , 2595237318 , 8</div></td></tr><tr><td><div>08:3e:8e:d9:6a:1d,2c:30:33:e1:cc:11,4,5,56,6,172.217.26.174,192.168.1.189,443, 58317 , 1491756856 , 2743875224 , 8</div></td></tr><tr><td><div>08:3e:8e:d9:6a:1d,2c:30:33:e1:cc:11,4,5,56,17,172.217.26.197,192.168.1.189, 443,40103,47,17722</div></td></tr><tr><td><div>2c:30:33:e1:cc:11,08:3e:8e:d9:6a:1d,4,5,64,17,192.168.1.189,172.217.26.197, 40103,443,47,24763</div></td></tr><tr><td><div>2c:30:33:e1:cc:11,08:3e:8e:d9:6a:1d,4,5,64,17,192.168.1.189,192.168.1.1, 32403,53,39,11240</div></td></tr><tr><td><div>2c:30:33:e1:cc:11,08:3e:8e:d9:6a:1d,4,5,64,6,192.168.1.189,54.83.120.182,37472, 443 , 3177871105 , 4200584206 , 8</div></td></tr><tr><td><div>2c:30:33:e1:cc:11,08:3e:8e:d9:6a:1d,4,5,64,6,192.168.1.189,52.72.45.37,47717, 443 , 1754630343 , 3547527540 , 8</div></td></tr><tr><td><div>2c:30:33:e1:cc:11,08:3e:8e:d9:6a:1d,4,5,64,6,192.168.1.189,54.159.8.241,34929, 443 , 356613051 , 3635564872 , 8</div></td></tr><tr><td><div>2c:30:33:e1:cc:11,08:3e:8e:d9:6a:1d,4,5,64,6,192.168.1.189,54.230.172.145,50681, 443 , 1217360126 , 2711279888 , 8</div></td></tr><tr><td><div>08:3e:8e:d9:6a:1d,2c:30:33:e1:cc:11,4,5,64,17,192.168.1.1,192.168.1.189, 53,32403,90,4608</div></td></tr><tr><td><div>2c:30:33:e1:cc:11,08:3e:8e:d9:6a:1d,4,5,64,17,192.168.1.189,216.58.197.78, 51989,443,1358,6916</div></td></tr><tr><td><div>2c:30:33:e1:cc:11,08:3e:8e:d9:6a:1d,4,5,64,6,192.168.1.189,216.58.197.78,57015, 443 , 2380713368 , 0 , 10</div></td></tr><tr><td><div>2c:30:33:e1:cc:11,08:3e:8e:d9:6a:1d,4,5,64,17,192.168.1.189,216.58.197.78, 51989,443,1358,19392</div></td></tr><tr><td><div>2c:30:33:e1:cc:11,08:3e:8e:d9:6a:1d,4,5,64,17,192.168.1.189,216.58.197.78, 51989,443,94,9251</div></td></tr><tr><td><div>08:3e:8e:d9:6a:1d,2c:30:33:e1:cc:11,4,5,56,6,216.58.197.78,192.168.1.189,443, 57015 , 4268954410 , 2380713369 , 10</div></td></tr><tr><td><div>2c:30:33:e1:cc:11,08:3e:8e:d9:6a:1d,4,5,64,6,192.168.1.189,216.58.197.78,57015, 443 , 2380713369 , 4268954411 , 8</div></td></tr><tr><td><div>2c:30:33:e1:cc:11,08:3e:8e:d9:6a:1d,4,5,64,6,192.168.1.189,216.58.197.78,57015, 443 , 2380713369 , 4268954411 , 8</div></td></tr><tr><td><div>08:3e:8e:d9:6a:1d,2c:30:33:e1:cc:11,4,5,56,17,216.58.197.78,192.168.1.189, 443,51989,1358,994</div></td></tr><tr><td><div>08:3e:8e:d9:6a:1d,2c:30:33:e1:cc:11,4,5,56,17,216.58.197.78,192.168.1.189, 443,51989,38,3608</div></td></tr><tr><td><div>08:3e:8e:d9:6a:1d,2c:30:33:e1:cc:11,4,5,56,6,216.58.197.78,192.168.1.189,443, 57015 , 4268954411 , 2380713886 , 8</div></td></tr><tr><td><div>08:3e:8e:d9:6a:1d,2c:30:33:e1:cc:11,4,5,56,6,216.58.197.78,192.168.1.189,443, 57015 , 4268954411 , 2380713886 , 8</div></td></tr><tr><td><div>2c:30:33:e1:cc:11,08:3e:8e:d9:6a:1d,4,5,64,6,192.168.1.189,216.58.197.78,57015, 443 , 2380713886 , 4268954563 , 8</div></td></tr><tr><td><div>2c:30:33:e1:cc:11,08:3e:8e:d9:6a:1d,4,5,64,6,192.168.1.189,216.58.197.78,57015, 443 , 2380713886 , 4268954563 , 8</div></td></tr><tr><td><div>2c:30:33:e1:cc:11,08:3e:8e:d9:6a:1d,4,5,64,6,192.168.1.189,216.58.197.78,57015, 443 , 2380714086 , 4268954563 , 8</div></td></tr><tr><td><div>2c:30:33:e1:cc:11,08:3e:8e:d9:6a:1d,4,5,64,6,192.168.1.189,216.58.197.78,57015, 443 , 2380714131 , 4268954563 , 8</div></td></tr><tr><td><div>08:3e:8e:d9:6a:1d,2c:30:33:e1:cc:11,4,5,247,6,54.230.172.145,192.168.1.189,443, 50681 , 2711279888 , 1217360127 , 8</div></td></tr><tr><td><div>08:3e:8e:d9:6a:1d,2c:30:33:e1:cc:11,4,5,56,6,216.58.197.78,192.168.1.189,443, 57015 , 4268954563 , 2380714086 , 8</div></td></tr><tr><td><div>08:3e:8e:d9:6a:1d,2c:30:33:e1:cc:11,4,5,56,6,216.58.197.78,192.168.1.189,443, 57015 , 4268954611 , 2380714086 , 8</div></td></tr><tr><td><div>2c:30:33:e1:cc:11,08:3e:8e:d9:6a:1d,4,5,64,6,192.168.1.189,216.58.197.78,57015, 443 , 2380714207 , 4268954645 , 8</div></td></tr><tr><td><div>2c:30:33:e1:cc:11,08:3e:8e:d9:6a:1d,4,5,64,6,192.168.1.189,216.58.197.78,57015, 443 , 2380714207 , 4268954645 , 8</div></td></tr><tr><td><div>08:3e:8e:d9:6a:1d,2c:30:33:e1:cc:11,4,5,56,6,216.58.197.78,192.168.1.189,443, 57015 , 4268954645 , 2380714207 , 8</div></td></tr><tr><td><div>08:3e:8e:d9:6a:1d,2c:30:33:e1:cc:11,4,5,56,6,216.58.197.78,192.168.1.189,443, 57015 , 4268954645 , 2380714207 , 8</div></td></tr><tr><td><div>08:3e:8e:d9:6a:1d,2c:30:33:e1:cc:11,4,5,56,17,216.58.197.78,192.168.1.189, 443,51989,1358,9719</div></td></tr><tr><td><div>2c:30:33:e1:cc:11,08:3e:8e:d9:6a:1d,4,5,64,17,192.168.1.189,216.58.197.78, 51989,443,49,5412</div></td></tr><tr><td><div>08:3e:8e:d9:6a:1d,2c:30:33:e1:cc:11,4,5,56,17,216.58.197.78,192.168.1.189, 443,51989,38,42078</div></td></tr><tr><td><div>2c:30:33:e1:cc:11,08:3e:8e:d9:6a:1d,4,5,64,6,192.168.1.189,216.58.197.78,57015, 443 , 2380714237 , 4268954675 , 8</div></td></tr><tr><td><div>08:3e:8e:d9:6a:1d,2c:30:33:e1:cc:11,4,5,56,6,216.58.197.78,192.168.1.189,443, 57015 , 4268954675 , 2380714237 , 8</div></td></tr><tr><td><div>08:3e:8e:d9:6a:1d,2c:30:33:e1:cc:11,4,5,56,17,216.58.197.78,192.168.1.189, 443,51989,269,32538</div></td></tr><tr><td><div>2c:30:33:e1:cc:11,08:3e:8e:d9:6a:1d,4,5,64,17,192.168.1.189,216.58.197.78, 51989,443,46,22120</div></td></tr><tr><td><div>08:3e:8e:d9:6a:1d,2c:30:33:e1:cc:11,4,5,43,6,52.72.45.37,192.168.1.189,443, 47717 , 3547527540 , 1754630344 , 8</div></td></tr><tr><td><div>08:3e:8e:d9:6a:1d,2c:30:33:e1:cc:11,4,5,42,6,54.83.120.182,192.168.1.189,443, 37472 , 4200584206 , 3177871106 , 8</div></td></tr><tr><td><div>08:3e:8e:d9:6a:1d,2c:30:33:e1:cc:11,4,5,42,6,54.159.8.241,192.168.1.189,443, 34929 , 3635564872 , 356613052 , 8</div></td></tr><tr><td><div>2c:30:33:e1:cc:11,08:3e:8e:d9:6a:1d,4,5,64,6,192.168.1.189,216.58.197.78,57005, 443 , 4178234879 , 1036481458 , 8</div></td></tr><tr><td><div>08:3e:8e:d9:6a:1d,2c:30:33:e1:cc:11,4,5,56,6,216.58.197.78,192.168.1.189,443, 57005 , 1036481458 , 4178234880 , 8</div></td></tr><tr><td><div>2c:30:33:e1:cc:11,08:3e:8e:d9:6a:1d,4,5,64,6,192.168.1.189,216.58.212.131,36537, 443 , 3567186209 , 2788768222 , 8</div></td></tr><tr><td><div>08:3e:8e:d9:6a:1d,2c:30:33:e1:cc:11,4,5,46,6,216.58.212.131,192.168.1.189,443, 36537 , 2788768222 , 3567186210 , 8</div></td></tr><tr><td><div>01:00:5e:00:00:fc,02:20:ac:3b:a3:a3,4,5,1,17,192.168.1.151,224.0.0.252, 50457,5355,98,14290</div></td></tr><tr><td><div>01:00:5e:00:00:fc,02:20:ac:3b:a3:a3,4,5,1,17,192.168.1.151,224.0.0.252, 50457,5355,98,14290</div></td></tr><tr><td><div>01:00:5e:00:00:fc,02:20:ac:3b:a3:a3,4,5,1,17,192.168.1.151,224.0.0.252, 52754,5355,50,9287</div></td></tr><tr><td><div>01:00:5e:00:00:fc,02:20:ac:3b:a3:a3,4,5,1,17,192.168.1.151,224.0.0.252, 52754,5355,50,9287</div></td></tr><tr><td><div>2c:30:33:e1:cc:11,08:3e:8e:d9:6a:1d,4,5,64,17,192.168.1.189,172.217.26.197, 40103,443,31,36319</div></td></tr><tr><td><div>08:3e:8e:d9:6a:1d,2c:30:33:e1:cc:11,4,5,56,17,172.217.26.197,192.168.1.189, 443,40103,39,32046</div></td></tr><tr><td><div>01:00:5e:00:00:fc,02:20:ac:3b:a3:a3,4,5,1,17,192.168.1.151,224.0.0.252, 137,137,58,25168</div></td></tr><tr><td><div>01:00:5e:00:00:fc,02:20:ac:3b:a3:a3,4,5,1,17,192.168.1.151,224.0.0.252, 55592,5355,50,40145</div></td></tr><tr><td><div>01:00:5e:00:00:fc,02:20:ac:3b:a3:a3,4,5,1,17,192.168.1.151,224.0.0.252, 55592,5355,50,40145</div></td></tr><tr><td><div>01:00:5e:00:00:fc,02:20:ac:3b:a3:a3,4,5,1,17,192.168.1.151,224.0.0.252, 137,137,58,25168</div></td></tr><tr><td><div>2c:30:33:e1:cc:11,08:3e:8e:d9:6a:1d,4,5,64,6,192.168.1.189,54.83.120.182,37478, 443 , 610149247 , 3767467179 , 8</div></td></tr><tr><td><div>2c:30:33:e1:cc:11,08:3e:8e:d9:6a:1d,4,5,64,6,192.168.1.189,52.72.45.37,47723, 443 , 730806126 , 876993206 , 8</div></td></tr><tr><td><div>08:3e:8e:d9:6a:1d,2c:30:33:e1:cc:11,4,5,42,6,52.72.45.37,192.168.1.189,443, 47723 , 876993206 , 730806127 , 8</div></td></tr><tr><td><div>08:3e:8e:d9:6a:1d,2c:30:33:e1:cc:11,4,5,42,6,54.83.120.182,192.168.1.189,443, 37478 , 3767467179 , 610149248 , 8</div></td></tr><tr><td><div>08:3e:8e:d9:6a:1d,2c:30:33:e1:cc:11,4,5,56,17,172.217.26.197,192.168.1.189, 443,40103,47,28698</div></td></tr><tr><td><div>2c:30:33:e1:cc:11,08:3e:8e:d9:6a:1d,4,5,64,17,192.168.1.189,172.217.26.197, 40103,443,47,22862</div></td></tr><tr><td><div>01:00:5e:00:00:fc,02:20:ac:3b:a3:a3,4,5,1,17,192.168.1.151,224.0.0.252, 137,137,58,25168</div></td></tr><tr><td><div>2c:30:33:e1:cc:11,08:3e:8e:d9:6a:1d,4,5,64,6,192.168.1.189,216.58.197.65,42148, 443 , 294264848 , 2951767522 , 8</div></td></tr><tr><td><div>08:3e:8e:d9:6a:1d,2c:30:33:e1:cc:11,4,5,56,6,216.58.197.65,192.168.1.189,443, 42148 , 2951767522 , 294264849 , 8</div></td></tr><tr><td><div>2c:30:33:e1:cc:11,08:3e:8e:d9:6a:1d,4,5,64,17,192.168.1.189,216.58.197.78, 54282,443,1358,33961</div></td></tr><tr><td><div>2c:30:33:e1:cc:11,08:3e:8e:d9:6a:1d,4,5,64,17,192.168.1.189,216.58.197.78, 54282,443,1358,4363</div></td></tr><tr><td><div>2c:30:33:e1:cc:11,08:3e:8e:d9:6a:1d,4,5,64,17,192.168.1.189,216.58.197.78, 54282,443,62,44469</div></td></tr><tr><td><div>08:3e:8e:d9:6a:1d,2c:30:33:e1:cc:11,4,5,56,17,216.58.197.78,192.168.1.189, 443,54282,1358,18573</div></td></tr><tr><td><div>08:3e:8e:d9:6a:1d,2c:30:33:e1:cc:11,4,5,56,17,216.58.197.78,192.168.1.189, 443,54282,38,10424</div></td></tr><tr><td><div>08:3e:8e:d9:6a:1d,2c:30:33:e1:cc:11,4,5,56,17,216.58.197.78,192.168.1.189, 443,54282,1358,34396</div></td></tr><tr><td><div>2c:30:33:e1:cc:11,08:3e:8e:d9:6a:1d,4,5,64,17,192.168.1.189,216.58.197.78, 54282,443,49,18151</div></td></tr><tr><td><div>08:3e:8e:d9:6a:1d,2c:30:33:e1:cc:11,4,5,56,17,216.58.197.78,192.168.1.189, 443,54282,38,24910</div></td></tr><tr><td><div>2c:30:33:e1:cc:11,08:3e:8e:d9:6a:1d,4,5,64,6,192.168.1.189,172.217.26.206,40118, 443 , 1331561877 , 3153029431 , 8</div></td></tr><tr><td><div>08:3e:8e:d9:6a:1d,2c:30:33:e1:cc:11,4,5,56,6,172.217.26.206,192.168.1.189,443, 40118 , 3153029431 , 1331561878 , 8</div></td></tr><tr><td><div>08:3e:8e:d9:6a:1d,2c:30:33:e1:cc:11,4,5,56,17,216.58.197.78,192.168.1.189, 443,54282,269,11912</div></td></tr><tr><td><div>2c:30:33:e1:cc:11,08:3e:8e:d9:6a:1d,4,5,64,17,192.168.1.189,216.58.197.78, 54282,443,46,39432</div></td></tr><tr><td><div>2c:30:33:e1:cc:11,08:3e:8e:d9:6a:1d,4,5,64,6,192.168.1.189,172.217.26.173,51763, 443 , 1366941061 , 2111118556 , 8</div></td></tr><tr><td><div>08:3e:8e:d9:6a:1d,2c:30:33:e1:cc:11,4,5,56,6,172.217.26.173,192.168.1.189,443, 51763 , 2111118556 , 1366941062 , 8</div></td></tr><tr><td><div>2c:30:33:e1:cc:11,08:3e:8e:d9:6a:1d,4,5,64,6,192.168.1.189,216.58.197.74,46257, 443 , 854555191 , 2986876589 , 8</div></td></tr><tr><td><div>08:3e:8e:d9:6a:1d,2c:30:33:e1:cc:11,4,5,56,6,216.58.197.74,192.168.1.189,443, 46257 , 2986876589 , 854555192 , 8</div></td></tr><tr><td><div>2c:30:33:e1:cc:11,08:3e:8e:d9:6a:1d,4,5,64,6,192.168.1.189,172.217.26.200,41675, 443 , 4053648577 , 4191217246 , 8</div></td></tr><tr><td><div>08:3e:8e:d9:6a:1d,2c:30:33:e1:cc:11,4,5,56,6,172.217.26.200,192.168.1.189,443, 41675 , 4191217246 , 4053648578 , 8</div></td></tr><tr><td><div>2c:30:33:e1:cc:11,08:3e:8e:d9:6a:1d,4,5,64,17,192.168.1.189,172.217.26.197, 40103,443,189,53012</div></td></tr><tr><td><div>2c:30:33:e1:cc:11,08:3e:8e:d9:6a:1d,4,5,64,17,192.168.1.189,172.217.26.197, 40103,443,108,15043</div></td></tr><tr><td><div>08:3e:8e:d9:6a:1d,2c:30:33:e1:cc:11,4,5,56,17,172.217.26.197,192.168.1.189, 443,40103,42,45719</div></td></tr><tr><td><div>08:3e:8e:d9:6a:1d,2c:30:33:e1:cc:11,4,5,56,17,172.217.26.197,192.168.1.189, 443,40103,69,44972</div></td></tr><tr><td><div>08:3e:8e:d9:6a:1d,2c:30:33:e1:cc:11,4,5,56,17,172.217.26.197,192.168.1.189, 443,40103,34,13793</div></td></tr><tr><td><div>2c:30:33:e1:cc:11,08:3e:8e:d9:6a:1d,4,5,64,17,192.168.1.189,172.217.26.197, 40103,443,50,17342</div></td></tr><tr><td><div>08:3e:8e:d9:6a:1d,2c:30:33:e1:cc:11,4,5,56,17,172.217.26.197,192.168.1.189, 443,40103,47,29958</div></td></tr><tr><td><div>2c:30:33:e1:cc:11,08:3e:8e:d9:6a:1d,4,5,64,17,192.168.1.189,172.217.26.197, 40103,443,44,52196</div></td></tr><tr><td><div>2c:30:33:e1:cc:11,08:3e:8e:d9:6a:1d,4,5,64,17,192.168.1.189,216.58.197.78, 54282,443,486,46548</div></td></tr><tr><td><div>08:3e:8e:d9:6a:1d,2c:30:33:e1:cc:11,4,5,56,17,216.58.197.78,192.168.1.189, 443,54282,38,17001</div></td></tr><tr><td><div>08:3e:8e:d9:6a:1d,2c:30:33:e1:cc:11,4,5,56,17,216.58.197.78,192.168.1.189, 443,54282,74,55012</div></td></tr><tr><td><div>2c:30:33:e1:cc:11,08:3e:8e:d9:6a:1d,4,5,64,17,192.168.1.189,216.58.197.78, 54282,443,46,219</div></td></tr><tr><td><div>08:3e:8e:d9:6a:1d,2c:30:33:e1:cc:11,4,5,42,6,52.72.45.37,192.168.1.189,443, 47723 , 876993206 , 730806127 , 8</div></td></tr><tr><td><div>2c:30:33:e1:cc:11,08:3e:8e:d9:6a:1d,4,5,64,6,192.168.1.189,52.72.45.37,47723, 443 , 730806127 , 876993238 , 8</div></td></tr><tr><td><div>08:3e:8e:d9:6a:1d,2c:30:33:e1:cc:11,4,5,42,6,54.83.120.182,192.168.1.189,443, 37478 , 3767467179 , 610149248 , 8</div></td></tr><tr><td><div>2c:30:33:e1:cc:11,08:3e:8e:d9:6a:1d,4,5,64,6,192.168.1.189,54.83.120.182,37478, 443 , 610149248 , 3767467211 , 8</div></td></tr><tr><td><div>2c:30:33:e1:cc:11,08:3e:8e:d9:6a:1d,4,5,64,6,192.168.1.189,172.217.26.174,58341, 443 , 2595237317 , 1272472036 , 8</div></td></tr><tr><td><div>2c:30:33:e1:cc:11,08:3e:8e:d9:6a:1d,4,5,64,6,192.168.1.189,172.217.26.174,58317, 443 , 2743875223 , 1491756856 , 8</div></td></tr><tr><td><div>08:3e:8e:d9:6a:1d,2c:30:33:e1:cc:11,4,5,56,6,172.217.26.174,192.168.1.189,443, 58341 , 1272472036 , 2595237318 , 8</div></td></tr><tr><td><div>08:3e:8e:d9:6a:1d,2c:30:33:e1:cc:11,4,5,56,6,172.217.26.174,192.168.1.189,443, 58317 , 1491756856 , 2743875224 , 8</div></td></tr><tr><td><div>01:00:5e:00:00:fc,02:20:ac:3b:a3:a3,4,5,1,17,192.168.1.151,224.0.0.252, 51975,5355,98,49530</div></td></tr><tr><td><div>01:00:5e:00:00:fc,02:20:ac:3b:a3:a3,4,5,1,17,192.168.1.151,224.0.0.252, 51975,5355,98,49530</div></td></tr><tr><td><div>2c:30:33:e1:cc:11,08:3e:8e:d9:6a:1d,4,5,64,6,192.168.1.189,216.58.197.78,57015, 443 , 2380714236 , 4268954675 , 8</div></td></tr><tr><td><div>08:3e:8e:d9:6a:1d,2c:30:33:e1:cc:11,4,5,56,6,216.58.197.78,192.168.1.189,443, 57015 , 4268954675 , 2380714237 , 8</div></td></tr><tr><td><div>01:00:5e:00:00:fc,02:20:ac:3b:a3:a3,4,5,1,17,192.168.1.151,224.0.0.252, 53398,5355,50,16259</div></td></tr><tr><td><div>2c:30:33:e1:cc:11,08:3e:8e:d9:6a:1d,4,5,64,6,192.168.1.189,216.58.197.78,57005, 443 , 4178234879 , 1036481458 , 8</div></td></tr><tr><td><div>08:3e:8e:d9:6a:1d,2c:30:33:e1:cc:11,4,5,56,6,216.58.197.78,192.168.1.189,443, 57005 , 1036481458 , 4178234880 , 8</div></td></tr><tr><td><div>01:00:5e:00:00:fc,02:20:ac:3b:a3:a3,4,5,1,17,192.168.1.151,224.0.0.252, 53398,5355,50,16259</div></td></tr><tr><td><div>2c:30:33:e1:cc:11,08:3e:8e:d9:6a:1d,4,5,64,6,192.168.1.189,216.58.212.131,36537, 443 , 3567186209 , 2788768222 , 8</div></td></tr><tr><td><div>08:3e:8e:d9:6a:1d,2c:30:33:e1:cc:11,4,5,46,6,216.58.212.131,192.168.1.189,443, 36537 , 2788768222 , 3567186210 , 8</div></td></tr><tr><td><div>2c:30:33:e1:cc:11,08:3e:8e:d9:6a:1d,4,5,64,17,192.168.1.189,172.217.26.197, 40103,443,31,1424</div></td></tr><tr><td><div>08:3e:8e:d9:6a:1d,2c:30:33:e1:cc:11,4,5,56,17,172.217.26.197,192.168.1.189, 443,40103,42,54794</div></td></tr><tr><td><div>08:3e:8e:d9:6a:1d,2c:30:33:e1:cc:11,4,5,56,17,172.217.26.197,192.168.1.189, 443,40103,47,6729</div></td></tr><tr><td><div>2c:30:33:e1:cc:11,08:3e:8e:d9:6a:1d,4,5,64,17,192.168.1.189,172.217.26.197, 40103,443,47,51434</div></td></tr><tr><td><div>2c:30:33:e1:cc:11,08:3e:8e:d9:6a:1d,4,5,64,17,192.168.1.189,216.58.197.78, 54282,443,601,12138</div></td></tr><tr><td><div>08:3e:8e:d9:6a:1d,2c:30:33:e1:cc:11,4,5,56,17,216.58.197.78,192.168.1.189, 443,54282,38,47311</div></td></tr><tr><td><div>08:3e:8e:d9:6a:1d,2c:30:33:e1:cc:11,4,5,56,17,216.58.197.78,192.168.1.189, 443,54282,74,42051</div></td></tr><tr><td><div>2c:30:33:e1:cc:11,08:3e:8e:d9:6a:1d,4,5,64,17,192.168.1.189,216.58.197.78, 54282,443,46,54203</div></td></tr><tr><td><div>01:00:5e:00:00:fc,02:20:ac:3b:a3:a3,4,5,1,17,192.168.1.151,224.0.0.252, 137,137,58,25162</div></td></tr><tr><td><div>01:00:5e:00:00:fc,02:20:ac:3b:a3:a3,4,5,1,17,192.168.1.151,224.0.0.252, 60966,5355,50,45545</div></td></tr><tr><td><div>01:00:5e:00:00:fc,02:20:ac:3b:a3:a3,4,5,1,17,192.168.1.151,224.0.0.252, 60966,5355,50,45545</div></td></tr><tr><td><div>01:00:5e:7f:ff:fa,08:3e:8e:d9:6a:1d,4,5,1,17,192.168.1.189,239.255.255.250, 59145,1900,180,49522</div></td></tr><tr><td><div>01:00:5e:7f:ff:fa,08:3e:8e:d9:6a:1d,4,5,1,17,192.168.1.189,239.255.255.250, 59145,1900,180,49522</div></td></tr><tr><td><div>2c:30:33:e1:cc:11,08:3e:8e:d9:6a:1d,4,5,64,17,192.168.1.189,172.217.26.197, 40103,443,31,39284</div></td></tr><tr><td><div>08:3e:8e:d9:6a:1d,2c:30:33:e1:cc:11,4,5,56,17,172.217.26.197,192.168.1.189, 443,40103,39,51271</div></td></tr><tr><td><div>01:00:5e:00:00:fc,02:20:ac:3b:a3:a3,4,5,1,17,192.168.1.151,224.0.0.252, 137,137,58,25162</div></td></tr><tr><td><div>01:00:5e:7f:ff:fa,08:3e:8e:d9:6a:1d,4,5,1,17,192.168.1.189,239.255.255.250, 59145,1900,180,49522</div></td></tr><tr><td><div>01:00:5e:7f:ff:fa,08:3e:8e:d9:6a:1d,4,5,1,17,192.168.1.189,239.255.255.250, 59145,1900,180,49522</div></td></tr><tr><td><div>01:00:5e:00:00:fc,02:20:ac:3b:a3:a3,4,5,1,17,192.168.1.151,224.0.0.252, 137,137,58,25162</div></td></tr><tr><td><div>01:00:5e:00:00:fb,54:35:30:9c:c3:f3,4,5,255,17,192.168.1.27,224.0.0.251, 5353,5353,53,12664</div></td></tr><tr><td><div>08:3e:8e:d9:6a:1d,2c:30:33:e1:cc:11,4,5,56,17,172.217.26.197,192.168.1.189, 443,40103,47,10709</div></td></tr><tr><td><div>2c:30:33:e1:cc:11,08:3e:8e:d9:6a:1d,4,5,64,17,192.168.1.189,172.217.26.197, 40103,443,47,61114</div></td></tr><tr><td><div>2c:30:33:e1:cc:11,08:3e:8e:d9:6a:1d,4,5,64,17,192.168.1.189,192.168.1.1, 12331,53,51,39966</div></td></tr><tr><td><div>08:3e:8e:d9:6a:1d,2c:30:33:e1:cc:11,4,5,64,17,192.168.1.1,192.168.1.189, 53,12331,123,60245</div></td></tr><tr><td><div>2c:30:33:e1:cc:11,08:3e:8e:d9:6a:1d,4,5,64,6,192.168.1.189,54.198.236.163,50757, 443 , 2348584945 , 0 , 10</div></td></tr><tr><td><div>2c:30:33:e1:cc:11,08:3e:8e:d9:6a:1d,4,5,64,6,192.168.1.189,216.58.197.65,42148, 443 , 294264848 , 2951767522 , 8</div></td></tr><tr><td><div>2c:30:33:e1:cc:11,08:3e:8e:d9:6a:1d,4,5,64,6,192.168.1.189,54.198.236.163,50758, 443 , 159124193 , 0 , 10</div></td></tr><tr><td><div>08:3e:8e:d9:6a:1d,2c:30:33:e1:cc:11,4,5,56,6,216.58.197.65,192.168.1.189,443, 42148 , 2951767522 , 294264849 , 8</div></td></tr><tr><td><div>08:3e:8e:d9:6a:1d,2c:30:33:e1:cc:11,4,5,42,6,54.198.236.163,192.168.1.189,443, 50757 , 1742996303 , 2348584946 , 10</div></td></tr><tr><td><div>2c:30:33:e1:cc:11,08:3e:8e:d9:6a:1d,4,5,64,6,192.168.1.189,54.198.236.163,50757, 443 , 2348584946 , 1742996304 , 8</div></td></tr><tr><td><div>2c:30:33:e1:cc:11,08:3e:8e:d9:6a:1d,4,5,64,6,192.168.1.189,54.198.236.163,50757, 443 , 2348584946 , 1742996304 , 8</div></td></tr><tr><td><div>08:3e:8e:d9:6a:1d,2c:30:33:e1:cc:11,4,5,42,6,54.198.236.163,192.168.1.189,443, 50758 , 4043853463 , 159124194 , 10</div></td></tr><tr><td><div>2c:30:33:e1:cc:11,08:3e:8e:d9:6a:1d,4,5,64,6,192.168.1.189,54.198.236.163,50758, 443 , 159124194 , 4043853464 , 8</div></td></tr><tr><td><div>08:3e:8e:d9:6a:1d,2c:30:33:e1:cc:11,4,5,42,6,54.198.236.163,192.168.1.189,443, 50757 , 1742996304 , 2348585463 , 8</div></td></tr><tr><td><div>08:3e:8e:d9:6a:1d,2c:30:33:e1:cc:11,4,5,42,6,54.198.236.163,192.168.1.189,443, 50757 , 1742996304 , 2348585463 , 8</div></td></tr><tr><td><div>2c:30:33:e1:cc:11,08:3e:8e:d9:6a:1d,4,5,64,6,192.168.1.189,54.198.236.163,50757, 443 , 2348585463 , 1742997592 , 8</div></td></tr><tr><td><div>08:3e:8e:d9:6a:1d,2c:30:33:e1:cc:11,4,5,42,6,54.198.236.163,192.168.1.189,443, 50757 , 1742997592 , 2348585463 , 8</div></td></tr><tr><td><div>2c:30:33:e1:cc:11,08:3e:8e:d9:6a:1d,4,5,64,6,192.168.1.189,54.198.236.163,50757, 443 , 2348585463 , 1742998880 , 8</div></td></tr><tr><td><div>08:3e:8e:d9:6a:1d,2c:30:33:e1:cc:11,4,5,42,6,54.198.236.163,192.168.1.189,443, 50757 , 1742998880 , 2348585463 , 8</div></td></tr><tr><td><div>2c:30:33:e1:cc:11,08:3e:8e:d9:6a:1d,4,5,64,6,192.168.1.189,54.198.236.163,50757, 443 , 2348585463 , 1742999232 , 8</div></td></tr><tr><td><div>2c:30:33:e1:cc:11,08:3e:8e:d9:6a:1d,4,5,64,6,192.168.1.189,54.198.236.163,50757, 443 , 2348585463 , 1742999232 , 8</div></td></tr><tr><td><div>2c:30:33:e1:cc:11,08:3e:8e:d9:6a:1d,4,5,64,17,192.168.1.189,216.58.197.78, 54282,443,497,4848</div></td></tr><tr><td><div>08:3e:8e:d9:6a:1d,2c:30:33:e1:cc:11,4,5,56,17,216.58.197.78,192.168.1.189, 443,54282,38,24472</div></td></tr><tr><td><div>08:3e:8e:d9:6a:1d,2c:30:33:e1:cc:11,4,5,56,17,216.58.197.78,192.168.1.189, 443,54282,74,47017</div></td></tr><tr><td><div>2c:30:33:e1:cc:11,08:3e:8e:d9:6a:1d,4,5,64,17,192.168.1.189,216.58.197.78, 54282,443,46,20016</div></td></tr><tr><td><div>2c:30:33:e1:cc:11,08:3e:8e:d9:6a:1d,4,5,64,6,192.168.1.189,172.217.26.206,40118, 443 , 1331561877 , 3153029431 , 8</div></td></tr><tr><td><div>08:3e:8e:d9:6a:1d,2c:30:33:e1:cc:11,4,5,56,6,172.217.26.206,192.168.1.189,443, 40118 , 3153029431 , 1331561878 , 8</div></td></tr><tr><td><div>08:3e:8e:d9:6a:1d,2c:30:33:e1:cc:11,4,5,42,6,54.198.236.163,192.168.1.189,443, 50757 , 1742999232 , 2348585589 , 8</div></td></tr><tr><td><div>2c:30:33:e1:cc:11,08:3e:8e:d9:6a:1d,4,5,64,6,192.168.1.189,54.198.236.163,50757, 443 , 2348585589 , 1742999506 , 8</div></td></tr><tr><td><div>08:3e:8e:d9:6a:1d,2c:30:33:e1:cc:11,4,5,42,6,54.198.236.163,192.168.1.189,443, 50757 , 1742999506 , 2348586270 , 8</div></td></tr><tr><td><div>2c:30:33:e1:cc:11,08:3e:8e:d9:6a:1d,4,5,64,6,192.168.1.189,54.198.236.163,50757, 443 , 2348586270 , 1742999695 , 8</div></td></tr><tr><td><div>2c:30:33:e1:cc:11,08:3e:8e:d9:6a:1d,4,5,64,6,192.168.1.189,172.217.26.173,51763, 443 , 1366941061 , 2111118556 , 8</div></td></tr><tr><td><div>08:3e:8e:d9:6a:1d,2c:30:33:e1:cc:11,4,5,56,6,172.217.26.173,192.168.1.189,443, 51763 , 2111118556 , 1366941062 , 8</div></td></tr><tr><td><div>2c:30:33:e1:cc:11,08:3e:8e:d9:6a:1d,4,5,64,6,192.168.1.189,216.58.197.74,46257, 443 , 854555191 , 2986876589 , 8</div></td></tr><tr><td><div>08:3e:8e:d9:6a:1d,2c:30:33:e1:cc:11,4,5,56,6,216.58.197.74,192.168.1.189,443, 46257 , 2986876589 , 854555192 , 8</div></td></tr></table></div></td></tr><tr><td style="font-weight:bold;vertical-align:top;">b</td><td style="vertical-align:top;">:</td><td><div><table><tr><td><div><table><tr><td><div>1</div></td></tr><tr><td><div>1</div></td></tr><tr><td><div>0</div></td></tr><tr><td><div>0</div></td></tr></table></div></td></tr><tr><td><div><table><tr><td><div>2</div></td></tr><tr><td><div>3</div></td></tr><tr><td><div>1</div></td></tr><tr><td><div>0</div></td></tr></table></div></td></tr><tr><td><div><table><tr><td><div>3</div></td></tr><tr><td><div>2</div></td></tr><tr><td><div>0</div></td></tr><tr><td><div>0</div></td></tr></table></div></td></tr><tr><td><div><table><tr><td><div>4</div></td></tr><tr><td><div>4</div></td></tr><tr><td><div>0</div></td></tr><tr><td><div>0</div></td></tr></table></div></td></tr><tr><td><div><table><tr><td><div>5</div></td></tr><tr><td><div>0</div></td></tr><tr><td><div>2</div></td></tr><tr><td><div>0</div></td></tr></table></div></td></tr><tr><td><div><table><tr><td><div>6</div></td></tr><tr><td><div>0</div></td></tr><tr><td><div>2</div></td></tr><tr><td><div>0</div></td></tr></table></div></td></tr><tr><td><div><table><tr><td><div>7</div></td></tr><tr><td><div>0</div></td></tr><tr><td><div>0</div></td></tr><tr><td><div>0</div></td></tr></table></div></td></tr><tr><td><div><table><tr><td><div>8</div></td></tr><tr><td><div>4</div></td></tr><tr><td><div>0</div></td></tr><tr><td><div>0</div></td></tr></table></div></td></tr><tr><td><div><table><tr><td><div>9</div></td></tr><tr><td><div>0</div></td></tr><tr><td><div>0</div></td></tr><tr><td><div>0</div></td></tr></table></div></td></tr><tr><td><div><table><tr><td><div>10</div></td></tr><tr><td><div>0</div></td></tr><tr><td><div>0</div></td></tr><tr><td><div>0</div></td></tr></table></div></td></tr><tr><td><div><table><tr><td><div>11</div></td></tr><tr><td><div>0</div></td></tr><tr><td><div>0</div></td></tr><tr><td><div>0</div></td></tr></table></div></td></tr><tr><td><div><table><tr><td><div>12</div></td></tr><tr><td><div>0</div></td></tr><tr><td><div>0</div></td></tr><tr><td><div>0</div></td></tr></table></div></td></tr><tr><td><div><table><tr><td><div>13</div></td></tr><tr><td><div>0</div></td></tr><tr><td><div>2</div></td></tr><tr><td><div>0</div></td></tr></table></div></td></tr><tr><td><div><table><tr><td><div>14</div></td></tr><tr><td><div>0</div></td></tr><tr><td><div>0</div></td></tr><tr><td><div>0</div></td></tr></table></div></td></tr><tr><td><div><table><tr><td><div>15</div></td></tr><tr><td><div>0</div></td></tr><tr><td><div>0</div></td></tr><tr><td><div>0</div></td></tr></table></div></td></tr><tr><td><div><table><tr><td><div>16</div></td></tr><tr><td><div>27</div></td></tr><tr><td><div>12</div></td></tr><tr><td><div>0</div></td></tr></table></div></td></tr><tr><td><div><table><tr><td><div>17</div></td></tr><tr><td><div>1</div></td></tr><tr><td><div>0</div></td></tr><tr><td><div>0</div></td></tr></table></div></td></tr><tr><td><div><table><tr><td><div>18</div></td></tr><tr><td><div>0</div></td></tr><tr><td><div>0</div></td></tr><tr><td><div>0</div></td></tr></table></div></td></tr><tr><td><div><table><tr><td><div>19</div></td></tr><tr><td><div>2</div></td></tr><tr><td><div>0</div></td></tr><tr><td><div>0</div></td></tr></table></div></td></tr><tr><td><div><table><tr><td><div>20</div></td></tr><tr><td><div>0</div></td></tr><tr><td><div>0</div></td></tr><tr><td><div>0</div></td></tr></table></div></td></tr><tr><td><div><table><tr><td><div>21</div></td></tr><tr><td><div>0</div></td></tr><tr><td><div>0</div></td></tr><tr><td><div>0</div></td></tr></table></div></td></tr><tr><td><div><table><tr><td><div>22</div></td></tr><tr><td><div>0</div></td></tr><tr><td><div>0</div></td></tr><tr><td><div>0</div></td></tr></table></div></td></tr><tr><td><div><table><tr><td><div>23</div></td></tr><tr><td><div>0</div></td></tr><tr><td><div>0</div></td></tr><tr><td><div>0</div></td></tr></table></div></td></tr><tr><td><div><table><tr><td><div>24</div></td></tr><tr><td><div>0</div></td></tr><tr><td><div>2</div></td></tr><tr><td><div>0</div></td></tr></table></div></td></tr><tr><td><div><table><tr><td><div>25</div></td></tr><tr><td><div>0</div></td></tr><tr><td><div>2</div></td></tr><tr><td><div>0</div></td></tr></table></div></td></tr><tr><td><div><table><tr><td><div>26</div></td></tr><tr><td><div>0</div></td></tr><tr><td><div>0</div></td></tr><tr><td><div>0</div></td></tr></table></div></td></tr><tr><td><div><table><tr><td><div>27</div></td></tr><tr><td><div>0</div></td></tr><tr><td><div>0</div></td></tr><tr><td><div>0</div></td></tr></table></div></td></tr><tr><td><div><table><tr><td><div>28</div></td></tr><tr><td><div>0</div></td></tr><tr><td><div>2</div></td></tr><tr><td><div>0</div></td></tr></table></div></td></tr><tr><td><div><table><tr><td><div>29</div></td></tr><tr><td><div>0</div></td></tr><tr><td><div>0</div></td></tr><tr><td><div>0</div></td></tr></table></div></td></tr><tr><td><div><table><tr><td><div>30</div></td></tr><tr><td><div>0</div></td></tr><tr><td><div>0</div></td></tr><tr><td><div>0</div></td></tr></table></div></td></tr><tr><td><div><table><tr><td><div>31</div></td></tr><tr><td><div>0</div></td></tr><tr><td><div>0</div></td></tr><tr><td><div>0</div></td></tr></table></div></td></tr><tr><td><div><table><tr><td><div>32</div></td></tr><tr><td><div>0</div></td></tr><tr><td><div>0</div></td></tr><tr><td><div>0</div></td></tr></table></div></td></tr><tr><td><div><table><tr><td><div>33</div></td></tr><tr><td><div>0</div></td></tr><tr><td><div>1</div></td></tr><tr><td><div>0</div></td></tr></table></div></td></tr><tr><td><div><table><tr><td><div>34</div></td></tr><tr><td><div>0</div></td></tr><tr><td><div>2</div></td></tr><tr><td><div>0</div></td></tr></table></div></td></tr><tr><td><div><table><tr><td><div>35</div></td></tr><tr><td><div>0</div></td></tr><tr><td><div>0</div></td></tr><tr><td><div>0</div></td></tr></table></div></td></tr><tr><td><div><table><tr><td><div>36</div></td></tr><tr><td><div>0</div></td></tr><tr><td><div>1</div></td></tr><tr><td><div>0</div></td></tr></table></div></td></tr><tr><td><div><table><tr><td><div>37</div></td></tr><tr><td><div>0</div></td></tr><tr><td><div>0</div></td></tr><tr><td><div>0</div></td></tr></table></div></td></tr><tr><td><div><table><tr><td><div>38</div></td></tr><tr><td><div>4</div></td></tr><tr><td><div>0</div></td></tr><tr><td><div>0</div></td></tr></table></div></td></tr><tr><td><div><table><tr><td><div>39</div></td></tr><tr><td><div>0</div></td></tr><tr><td><div>2</div></td></tr><tr><td><div>0</div></td></tr></table></div></td></tr><tr><td><div><table><tr><td><div>40</div></td></tr><tr><td><div>0</div></td></tr><tr><td><div>1</div></td></tr><tr><td><div>0</div></td></tr></table></div></td></tr><tr><td><div><table><tr><td><div>41</div></td></tr><tr><td><div>0</div></td></tr><tr><td><div>0</div></td></tr><tr><td><div>0</div></td></tr></table></div></td></tr><tr><td><div><table><tr><td><div>42</div></td></tr><tr><td><div>0</div></td></tr><tr><td><div>0</div></td></tr><tr><td><div>0</div></td></tr></table></div></td></tr><tr><td><div><table><tr><td><div>43</div></td></tr><tr><td><div>0</div></td></tr><tr><td><div>0</div></td></tr><tr><td><div>0</div></td></tr></table></div></td></tr><tr><td><div><table><tr><td><div>44</div></td></tr><tr><td><div>0</div></td></tr><tr><td><div>0</div></td></tr><tr><td><div>0</div></td></tr></table></div></td></tr><tr><td><div><table><tr><td><div>45</div></td></tr><tr><td><div>0</div></td></tr><tr><td><div>0</div></td></tr><tr><td><div>0</div></td></tr></table></div></td></tr><tr><td><div><table><tr><td><div>46</div></td></tr><tr><td><div>0</div></td></tr><tr><td><div>0</div></td></tr><tr><td><div>0</div></td></tr></table></div></td></tr><tr><td><div><table><tr><td><div>47</div></td></tr><tr><td><div>4</div></td></tr><tr><td><div>10</div></td></tr><tr><td><div>0</div></td></tr></table></div></td></tr><tr><td><div><table><tr><td><div>48</div></td></tr><tr><td><div>2</div></td></tr><tr><td><div>0</div></td></tr><tr><td><div>0</div></td></tr></table></div></td></tr><tr><td><div><table><tr><td><div>49</div></td></tr><tr><td><div>4</div></td></tr><tr><td><div>0</div></td></tr><tr><td><div>0</div></td></tr></table></div></td></tr><tr><td><div><table><tr><td><div>50</div></td></tr><tr><td><div>0</div></td></tr><tr><td><div>0</div></td></tr><tr><td><div>0</div></td></tr></table></div></td></tr><tr><td><div><table><tr><td><div>51</div></td></tr><tr><td><div>0</div></td></tr><tr><td><div>8</div></td></tr><tr><td><div>0</div></td></tr></table></div></td></tr><tr><td><div><table><tr><td><div>52</div></td></tr><tr><td><div>0</div></td></tr><tr><td><div>4</div></td></tr><tr><td><div>0</div></td></tr></table></div></td></tr><tr><td><div><table><tr><td><div>53</div></td></tr><tr><td><div>8</div></td></tr><tr><td><div>0</div></td></tr><tr><td><div>0</div></td></tr></table></div></td></tr><tr><td><div><table><tr><td><div>54</div></td></tr><tr><td><div>0</div></td></tr><tr><td><div>0</div></td></tr><tr><td><div>0</div></td></tr></table></div></td></tr><tr><td><div><table><tr><td><div>55</div></td></tr><tr><td><div>0</div></td></tr><tr><td><div>0</div></td></tr><tr><td><div>0</div></td></tr></table></div></td></tr><tr><td><div><table><tr><td><div>56</div></td></tr><tr><td><div>0</div></td></tr><tr><td><div>0</div></td></tr><tr><td><div>0</div></td></tr></table></div></td></tr><tr><td><div><table><tr><td><div>57</div></td></tr><tr><td><div>0</div></td></tr><tr><td><div>0</div></td></tr><tr><td><div>0</div></td></tr></table></div></td></tr><tr><td><div><table><tr><td><div>58</div></td></tr><tr><td><div>0</div></td></tr><tr><td><div>0</div></td></tr><tr><td><div>0</div></td></tr></table></div></td></tr><tr><td><div><table><tr><td><div>59</div></td></tr><tr><td><div>0</div></td></tr><tr><td><div>0</div></td></tr><tr><td><div>0</div></td></tr></table></div></td></tr><tr><td><div><table><tr><td><div>60</div></td></tr><tr><td><div>0</div></td></tr><tr><td><div>0</div></td></tr><tr><td><div>0</div></td></tr></table></div></td></tr><tr><td><div><table><tr><td><div>61</div></td></tr><tr><td><div>2</div></td></tr><tr><td><div>3</div></td></tr><tr><td><div>0</div></td></tr></table></div></td></tr><tr><td><div><table><tr><td><div>62</div></td></tr><tr><td><div>2</div></td></tr><tr><td><div>1</div></td></tr><tr><td><div>0</div></td></tr></table></div></td></tr><tr><td><div><table><tr><td><div>63</div></td></tr><tr><td><div>0</div></td></tr><tr><td><div>0</div></td></tr><tr><td><div>0</div></td></tr></table></div></td></tr><tr><td><div><table><tr><td><div>64</div></td></tr><tr><td><div>2</div></td></tr><tr><td><div>0</div></td></tr><tr><td><div>0</div></td></tr></table></div></td></tr><tr><td><div><table><tr><td><div>65</div></td></tr><tr><td><div>0</div></td></tr><tr><td><div>0</div></td></tr><tr><td><div>0</div></td></tr></table></div></td></tr><tr><td><div><table><tr><td><div>66</div></td></tr><tr><td><div>0</div></td></tr><tr><td><div>2</div></td></tr><tr><td><div>0</div></td></tr></table></div></td></tr><tr><td><div><table><tr><td><div>67</div></td></tr><tr><td><div>0</div></td></tr><tr><td><div>2</div></td></tr><tr><td><div>0</div></td></tr></table></div></td></tr><tr><td><div><table><tr><td><div>68</div></td></tr><tr><td><div>0</div></td></tr><tr><td><div>0</div></td></tr><tr><td><div>0</div></td></tr></table></div></td></tr><tr><td><div><table><tr><td><div>69</div></td></tr><tr><td><div>0</div></td></tr><tr><td><div>0</div></td></tr><tr><td><div>0</div></td></tr></table></div></td></tr><tr><td><div><table><tr><td><div>70</div></td></tr><tr><td><div>0</div></td></tr><tr><td><div>0</div></td></tr><tr><td><div>0</div></td></tr></table></div></td></tr><tr><td><div><table><tr><td><div>71</div></td></tr><tr><td><div>0</div></td></tr><tr><td><div>0</div></td></tr><tr><td><div>0</div></td></tr></table></div></td></tr><tr><td><div><table><tr><td><div>72</div></td></tr><tr><td><div>0</div></td></tr><tr><td><div>0</div></td></tr><tr><td><div>0</div></td></tr></table></div></td></tr><tr><td><div><table><tr><td><div>73</div></td></tr><tr><td><div>0</div></td></tr><tr><td><div>0</div></td></tr><tr><td><div>0</div></td></tr></table></div></td></tr><tr><td><div><table><tr><td><div>74</div></td></tr><tr><td><div>0</div></td></tr><tr><td><div>0</div></td></tr><tr><td><div>0</div></td></tr></table></div></td></tr><tr><td><div><table><tr><td><div>75</div></td></tr><tr><td><div>0</div></td></tr><tr><td><div>0</div></td></tr><tr><td><div>0</div></td></tr></table></div></td></tr><tr><td><div><table><tr><td><div>76</div></td></tr><tr><td><div>0</div></td></tr><tr><td><div>0</div></td></tr><tr><td><div>0</div></td></tr></table></div></td></tr><tr><td><div><table><tr><td><div>77</div></td></tr><tr><td><div>0</div></td></tr><tr><td><div>0</div></td></tr><tr><td><div>0</div></td></tr></table></div></td></tr><tr><td><div><table><tr><td><div>78</div></td></tr><tr><td><div>0</div></td></tr><tr><td><div>4</div></td></tr><tr><td><div>0</div></td></tr></table></div></td></tr><tr><td><div><table><tr><td><div>79</div></td></tr><tr><td><div>0</div></td></tr><tr><td><div>2</div></td></tr><tr><td><div>0</div></td></tr></table></div></td></tr><tr><td><div><table><tr><td><div>80</div></td></tr><tr><td><div>0</div></td></tr><tr><td><div>1</div></td></tr><tr><td><div>0</div></td></tr></table></div></td></tr><tr><td><div><table><tr><td><div>81</div></td></tr><tr><td><div>0</div></td></tr><tr><td><div>1</div></td></tr><tr><td><div>0</div></td></tr></table></div></td></tr><tr><td><div><table><tr><td><div>82</div></td></tr><tr><td><div>0</div></td></tr><tr><td><div>4</div></td></tr><tr><td><div>0</div></td></tr></table></div></td></tr><tr><td><div><table><tr><td><div>83</div></td></tr><tr><td><div>0</div></td></tr><tr><td><div>1</div></td></tr><tr><td><div>0</div></td></tr></table></div></td></tr><tr><td><div><table><tr><td><div>84</div></td></tr><tr><td><div>0</div></td></tr><tr><td><div>1</div></td></tr><tr><td><div>0</div></td></tr></table></div></td></tr><tr><td><div><table><tr><td><div>85</div></td></tr><tr><td><div>0</div></td></tr><tr><td><div>1</div></td></tr><tr><td><div>0</div></td></tr></table></div></td></tr><tr><td><div><table><tr><td><div>86</div></td></tr><tr><td><div>0</div></td></tr><tr><td><div>0</div></td></tr><tr><td><div>0</div></td></tr></table></div></td></tr><tr><td><div><table><tr><td><div>87</div></td></tr><tr><td><div>0</div></td></tr><tr><td><div>0</div></td></tr><tr><td><div>0</div></td></tr></table></div></td></tr><tr><td><div><table><tr><td><div>88</div></td></tr><tr><td><div>0</div></td></tr><tr><td><div>0</div></td></tr><tr><td><div>0</div></td></tr></table></div></td></tr><tr><td><div><table><tr><td><div>89</div></td></tr><tr><td><div>0</div></td></tr><tr><td><div>1</div></td></tr><tr><td><div>0</div></td></tr></table></div></td></tr><tr><td><div><table><tr><td><div>90</div></td></tr><tr><td><div>0</div></td></tr><tr><td><div>0</div></td></tr><tr><td><div>0</div></td></tr></table></div></td></tr><tr><td><div><table><tr><td><div>91</div></td></tr><tr><td><div>1</div></td></tr><tr><td><div>4</div></td></tr><tr><td><div>0</div></td></tr></table></div></td></tr><tr><td><div><table><tr><td><div>92</div></td></tr><tr><td><div>21</div></td></tr><tr><td><div>4</div></td></tr><tr><td><div>0</div></td></tr></table></div></td></tr><tr><td><div><table><tr><td><div>93</div></td></tr><tr><td><div>3</div></td></tr><tr><td><div>0</div></td></tr><tr><td><div>0</div></td></tr></table></div></td></tr></table></div></td></tr></table></div>'
tRp148
sS'etype'
p149
S"<type 'exceptions.NameError'>"
p150
sS'date'
p151
S'Sat Nov 26 08:17:04 2016'
p152
sS'response'
p153
g57
(S's\x90\x1d\x00\x00<div><table><tr><td style="font-weight:bold;vertical-align:top;">body</td><td style="vertical-align:top;">:</td><td><div>&lt;cStringIO.StringO object at 0x7fcd5e004148&gt;</div></td></tr><tr><td style="font-weight:bold;vertical-align:top;">cookies</td><td style="vertical-align:top;">:</td><td><div><table><tr><td style="font-weight:bold;vertical-align:top;">session_id_sniffer</td><td style="vertical-align:top;">:</td><td><div>127.0.0.1-888372bd-25a6-450b-b682-cd53cc2c25d5<table><tr><td style="font-weight:bold;vertical-align:top;">comment</td><td style="vertical-align:top;">:</td><td><div></div></td></tr><tr><td style="font-weight:bold;vertical-align:top;">domain</td><td style="vertical-align:top;">:</td><td><div></div></td></tr><tr><td style="font-weight:bold;vertical-align:top;">expires</td><td style="vertical-align:top;">:</td><td><div></div></td></tr><tr><td style="font-weight:bold;vertical-align:top;">httponly</td><td style="vertical-align:top;">:</td><td><div></div></td></tr><tr><td style="font-weight:bold;vertical-align:top;">max-age</td><td style="vertical-align:top;">:</td><td><div></div></td></tr><tr><td style="font-weight:bold;vertical-align:top;">path</td><td style="vertical-align:top;">:</td><td><div>/</div></td></tr><tr><td style="font-weight:bold;vertical-align:top;">secure</td><td style="vertical-align:top;">:</td><td><div></div></td></tr><tr><td style="font-weight:bold;vertical-align:top;">version</td><td style="vertical-align:top;">:</td><td><div></div></td></tr></table></div></td></tr></table></div></td></tr><tr><td style="font-weight:bold;vertical-align:top;">delimiters</td><td style="vertical-align:top;">:</td><td><div><table><tr><td><div>{{</div></td></tr><tr><td><div>}}</div></td></tr></table></div></td></tr><tr><td style="font-weight:bold;vertical-align:top;">files</td><td style="vertical-align:top;">:</td><td><div><table></table></div></td></tr><tr><td style="font-weight:bold;vertical-align:top;">flash</td><td style="vertical-align:top;">:</td><td><div></div></td></tr><tr><td style="font-weight:bold;vertical-align:top;">form_label_separator</td><td style="vertical-align:top;">:</td><td><div></div></td></tr><tr><td style="font-weight:bold;vertical-align:top;">formstyle</td><td style="vertical-align:top;">:</td><td><div>bootstrap3_inline</div></td></tr><tr><td style="font-weight:bold;vertical-align:top;">generic_patterns</td><td style="vertical-align:top;">:</td><td><div><table><tr><td><div>*</div></td></tr></table></div></td></tr><tr><td style="font-weight:bold;vertical-align:top;">google_analytics_id</td><td style="vertical-align:top;">:</td><td><div>None</div></td></tr><tr><td style="font-weight:bold;vertical-align:top;">headers</td><td style="vertical-align:top;">:</td><td><div><table><tr><td style="font-weight:bold;vertical-align:top;">X-Powered-By</td><td style="vertical-align:top;">:</td><td><div>web2py</div></td></tr></table></div></td></tr><tr><td style="font-weight:bold;vertical-align:top;">logo</td><td style="vertical-align:top;">:</td><td><div><a class="navbar-brand" href="http://www.web2py.com/" id="web2py-logo"><b>web<span>2</span>py</b>&trade;&nbsp;</a></div></td></tr><tr><td style="font-weight:bold;vertical-align:top;">menu</td><td style="vertical-align:top;">:</td><td><div><table><tr><td><div><table><tr><td><div>Sniff</div></td></tr><tr><td><div>False</div></td></tr><tr><td><div>/sniffer/default/index</div></td></tr><tr><td><div><table></table></div></td></tr></table></div></td></tr></table></div></td></tr><tr><td style="font-weight:bold;vertical-align:top;">meta</td><td style="vertical-align:top;">:</td><td><div><table><tr><td style="font-weight:bold;vertical-align:top;">author</td><td style="vertical-align:top;">:</td><td><div>Your Name &lt;you@example.com&gt;</div></td></tr><tr><td style="font-weight:bold;vertical-align:top;">description</td><td style="vertical-align:top;">:</td><td><div>a cool new app</div></td></tr><tr><td style="font-weight:bold;vertical-align:top;">generator</td><td style="vertical-align:top;">:</td><td><div>Web2py Web Framework</div></td></tr><tr><td style="font-weight:bold;vertical-align:top;">keywords</td><td style="vertical-align:top;">:</td><td><div><table><tr><td><div>web2py</div></td></tr><tr><td><div>python</div></td></tr><tr><td><div>framework</div></td></tr></table></div></td></tr></table></div></td></tr><tr><td style="font-weight:bold;vertical-align:top;">models_to_run</td><td style="vertical-align:top;">:</td><td><div><table><tr><td><div>^\\w+\\.py$</div></td></tr><tr><td><div>^default/\\w+\\.py$</div></td></tr><tr><td><div>^default/snif/\\w+\\.py$</div></td></tr></table></div></td></tr><tr><td style="font-weight:bold;vertical-align:top;">postprocessing</td><td style="vertical-align:top;">:</td><td><div><table></table></div></td></tr><tr><td style="font-weight:bold;vertical-align:top;">session_client</td><td style="vertical-align:top;">:</td><td><div>127.0.0.1</div></td></tr><tr><td style="font-weight:bold;vertical-align:top;">session_cookie_compression_level</td><td style="vertical-align:top;">:</td><td><div>None</div></td></tr><tr><td style="font-weight:bold;vertical-align:top;">session_cookie_expires</td><td style="vertical-align:top;">:</td><td><div>None</div></td></tr><tr><td style="font-weight:bold;vertical-align:top;">session_data_name</td><td style="vertical-align:top;">:</td><td><div>session_data_sniffer</div></td></tr><tr><td style="font-weight:bold;vertical-align:top;">session_file</td><td style="vertical-align:top;">:</td><td><div>&lt;open file &#x27;/home/preethi/Downloads/web2py/applications/sniffer/sessions/10b/0bf/127.0.0.1-888372bd-25a6-450b-b682-cd53cc2c25d5&#x27;, mode &#x27;rb+&#x27; at 0x7fcd5e066a50&gt;</div></td></tr><tr><td style="font-weight:bold;vertical-align:top;">session_filename</td><td style="vertical-align:top;">:</td><td><div>/home/preethi/Downloads/web2py/applications/sniffer/sessions/127.0.0.1-888372bd-25a6-450b-b682-cd53cc2c25d5</div></td></tr><tr><td style="font-weight:bold;vertical-align:top;">session_hash</td><td style="vertical-align:top;">:</td><td><div>f406832a17333736fa0b69e460ea49f3</div></td></tr><tr><td style="font-weight:bold;vertical-align:top;">session_id</td><td style="vertical-align:top;">:</td><td><div>127.0.0.1-888372bd-25a6-450b-b682-cd53cc2c25d5</div></td></tr><tr><td style="font-weight:bold;vertical-align:top;">session_id_name</td><td style="vertical-align:top;">:</td><td><div>session_id_sniffer</div></td></tr><tr><td style="font-weight:bold;vertical-align:top;">session_locked</td><td style="vertical-align:top;">:</td><td><div>True</div></td></tr><tr><td style="font-weight:bold;vertical-align:top;">session_masterapp</td><td style="vertical-align:top;">:</td><td><div>sniffer</div></td></tr><tr><td style="font-weight:bold;vertical-align:top;">session_new</td><td style="vertical-align:top;">:</td><td><div>False</div></td></tr><tr><td style="font-weight:bold;vertical-align:top;">session_storage_type</td><td style="vertical-align:top;">:</td><td><div>file</div></td></tr><tr><td style="font-weight:bold;vertical-align:top;">status</td><td style="vertical-align:top;">:</td><td><div>200</div></td></tr><tr><td style="font-weight:bold;vertical-align:top;">subtitle</td><td style="vertical-align:top;">:</td><td><div></div></td></tr><tr><td style="font-weight:bold;vertical-align:top;">title</td><td style="vertical-align:top;">:</td><td><div>Sniffer</div></td></tr><tr><td style="font-weight:bold;vertical-align:top;">view</td><td style="vertical-align:top;">:</td><td><div>default/snif.html</div></td></tr></table></div>'
tRp154
sS'locals'
p155
(dp156
S'json'
p157
S"<module 'json' from '/usr/lib/python2.7/json/__init__.pyc'>"
p158
sS'd'
S'[[1, 1, 0, 0], [2, 3, 1, 0], [3, 2, 0, 0], [4, 4, 0, 0], [5, 0, 2, 0], [6, 0, 2, 0], [7, 0, 0, 0], [8, 4, 0, 0], [9, 0, 0, 0], [10, 0, 0, 0], [11, 0, 0, 0], [12, 0, 0, 0], [13, 0, 2, 0], [14, 0, 0, 0], [15, 0, 0, 0], [16, 27, 12, 0], [17, 1, 0, 0], [18, 0, 0, 0], [19, 2, 0, 0], [20, 0, 0, 0], ...]'
p159
sssS'traceback'
p160
S'Traceback (most recent call last):\n  File "/home/preethi/Downloads/web2py/gluon/restricted.py", line 227, in restricted\n    exec ccode in environment\n  File "/home/preethi/Downloads/web2py/applications/sniffer/controllers/default.py", line 267, in <module>\n  File "/home/preethi/Downloads/web2py/gluon/globals.py", line 417, in <lambda>\n    self._caller = lambda f: f()\n  File "/home/preethi/Downloads/web2py/applications/sniffer/controllers/default.py", line 247, in snif\n    t1 = threading.Thread(target=sniffer, args=(interface,))\nNameError: global name \'interface\' is not defined\n'
p161
s.